 0001:00000000       ?CreateNewBrain@@YAPAVPersistentObject@@XZ 00401000 f   Brain.obj
 0001:00000090       ?GetClassNameX@Brain@@UBEPBDXZ 00401090 f   Brain.obj
 0001:000000a0       ??5@YAAAVCreaturesArchive@@AAV0@AAPAVBrain@@@Z 004010a0 f   Brain.obj
 0001:00000170       ?AddInstinct@Brain@@QAEXHHMH@Z 00401170 f   Brain.obj
 0001:00000380       ??0Brain@@QAE@XZ           00401380 f   Brain.obj
 0001:00000640       ??_EBrain@@UAEPAXI@Z       00401640 f i Brain.obj
 0001:00000640       ??_GBrain@@UAEPAXI@Z       00401640 f i Brain.obj
 0001:00000670       ??1Brain@@UAE@XZ           00401670 f   Brain.obj
 0001:00000790       ?ReadFromGenome@Brain@@UAEXAAVGenome@@@Z 00401790 f   Brain.obj
 0001:00000ce0       ?GetNoOfInstinctsLeftToProcess@Brain@@QAEHXZ 00401ce0 f   Brain.obj
 0001:00000d00       ??0GenomeInitFailedException@@QAE@ABV0@@Z 00401d00 f i Brain.obj
 0001:00000e40       ?RegisterBiochemistry@Brain@@QAEXPAM@Z 00401e40 f   Brain.obj
 0001:00000e80       ?SetWhetherToProcessInstincts@Brain@@QAEX_N@Z 00401e80 f   Brain.obj
 0001:00000ef0       ?ClearActivity@Brain@@QAEXXZ 00401ef0 f   Brain.obj
 0001:00000f20       ?UpdateComponents@Brain@@QAEXXZ 00401f20 f   Brain.obj
 0001:00000f50       ?Update@Brain@@UAEXXZ      00401f50 f   Brain.obj
 0001:00001180       ??4FlightRecorder@@QAEAAV0@ABV0@@Z 00402180 f i Brain.obj
 0001:000011a0       ?GetLobeNameFromTissueId@Brain@@QAEPADH@Z 004021a0 f   Brain.obj
 0001:000011c0       ?GetLobeFromTissueId@Brain@@IAEPAVLobe@@H@Z 004021c0 f   Brain.obj
 0001:000011f0       ?GetLocusAddress@Brain@@UAEPAMHHHH@Z 004021f0 f   Brain.obj
 0001:00001260       ?SetInput@Brain@@QAEXPBDHM@Z 00402260 f   Brain.obj
 0001:00001280       ?GetWinningId@Brain@@QAEHPBD@Z 00402280 f   Brain.obj
 0001:000012a0       ?GetNeuronState@Brain@@QAEMPBDHH@Z 004022a0 f   Brain.obj
 0001:000012c0       ?SetNeuronState@Brain@@QAEXPBDHHM@Z 004022c0 f   Brain.obj
 0001:000012f0       ?GetLobeFromTokenString@Brain@@IAEPAVLobe@@PBD@Z 004022f0 f   Brain.obj
 0001:00001350       ?GetLobeSize@Brain@@QAEHPBD@Z 00402350 f   Brain.obj
 0001:00001380       ?SetNeuronState@Brain@@QAE_NHHHM@Z 00402380 f   Brain.obj
 0001:000013c0       ?SetDendriteWeight@Brain@@QAE_NHHHM@Z 004023c0 f   Brain.obj
 0001:00001400       ?SetLobeSVFloat@Brain@@QAE_NHHM@Z 00402400 f   Brain.obj
 0001:00001440       ?SetTractSVFloat@Brain@@QAE_NHHM@Z 00402440 f   Brain.obj
 0001:00001480       ?GetKnowledge@Brain@@QAE?AUKnowledgeAction@1@H@Z 00402480 f   Brain.obj
 0001:00001500       ?Write@Brain@@UBE_NAAVCreaturesArchive@@@Z 00402500 f   Brain.obj
 0001:00001720       ?Read@Brain@@UAE_NAAVCreaturesArchive@@@Z 00402720 f   Brain.obj
 0001:00001a80       ?DumpSpec@Brain@@QAEXAAV?$basic_ostream@DU?$char_traits@D@std@@@std@@@Z 00402a80 f   Brain.obj
 0001:00001b70       ?DumpLobe@Brain@@QAE_NHAAV?$basic_ostream@DU?$char_traits@D@std@@@std@@@Z 00402b70 f   Brain.obj
 0001:00001bd0       ?DumpTract@Brain@@QAE_NHAAV?$basic_ostream@DU?$char_traits@D@std@@@std@@@Z 00402bd0 f   Brain.obj
 0001:00001c30       ?DumpNeuron@Brain@@QAE_NHHAAV?$basic_ostream@DU?$char_traits@D@std@@@std@@@Z 00402c30 f   Brain.obj
 0001:00001c90       ?DumpDendrite@Brain@@QAE_NHHAAV?$basic_ostream@DU?$char_traits@D@std@@@std@@@Z 00402c90 f   Brain.obj
 0001:00001cf0       ?DumpAllDendrites@Brain@@QAE_NHAAV?$basic_ostream@DU?$char_traits@D@std@@@std@@@Z 00402cf0 f   Brain.obj
 0001:00001d50       ?UnDumpAllDendrites@Brain@@QAE_NHAAV?$basic_istream@DU?$char_traits@D@std@@@std@@@Z 00402d50 f   Brain.obj
 0001:00001e40       ??0BasicException@@QAE@PBD@Z 00402e40 f i Brain.obj
 0001:00001f60       ?what@BasicException@@UBEPBDXZ 00402f60 f i Brain.obj
 0001:00001f70       ??_EBasicException@@UAEPAXI@Z 00402f70 f i Brain.obj
 0001:00001f70       ??_GBasicException@@UAEPAXI@Z 00402f70 f i Brain.obj
 0001:00001fa0       ?Get@Catalogue@@ABEPBDH@Z  00402fa0 f i Brain.obj
 0001:00002030       ??0Err@Catalogue@@QAE@ABV01@@Z 00403030 f i Brain.obj
 0001:000021a0       ??0BasicException@@QAE@ABV0@@Z 004031a0 f i Brain.obj
 0001:00002310       ??_GErr@Catalogue@@UAEPAXI@Z 00403310 f i Brain.obj
 0001:00002310       ??_EErr@Catalogue@@UAEPAXI@Z 00403310 f i Brain.obj
 0001:00002340       ?FindTag@Catalogue@@ABEHABV?$basic_string@DU?$char_traits@D@std@@V?$allocator@D@2@@std@@@Z 00403340 f i Brain.obj
 0001:000023e0       ??0DirectoryManager@@QAE@XZ 004033e0 f i Brain.obj
 0001:00002400       ??0DirectoryManager@@QAE@ABV0@@Z 00403400 f i Brain.obj
 0001:00002540       ??2@YAPAXIPAX@Z            00403540 f i Brain.obj
 0001:00002550       ??4DirectoryManager@@QAEAAV0@ABV0@@Z 00403550 f i Brain.obj
 0001:00002730       ??4?$vector@V?$basic_string@DU?$char_traits@D@std@@V?$allocator@D@2@@std@@V?$allocator@V?$basic_string@DU?$char_traits@D@std@@V?$allocator@D@2@@std@@@2@@std@@QAEAAV01@ABV01@@Z 00403730 f i Brain.obj
 0001:00002920       ??1DirectoryManager@@QAE@XZ 00403920 f i Brain.obj
 0001:000029a0       ?IsLoading@CreaturesArchive@@QAE_NXZ 004039a0 f i Brain.obj
 0001:000029b0       ?IsSaving@CreaturesArchive@@QAE_NXZ 004039b0 f i Brain.obj
 0001:000029c0       ?size@?$vector@ULine@UITextPart@@V?$allocator@ULine@UITextPart@@@std@@@std@@QBEIXZ 004039c0 f i Brain.obj
 0001:000029c0       ?size@?$vector@UKnowledgeAction@Brain@@V?$allocator@UKnowledgeAction@Brain@@@std@@@std@@QBEIXZ 004039c0 f i Brain.obj
 0001:000029e0       ?SetCloningASkeletalCreature@CreaturesArchive@@QAEX_N@Z 004039e0 f i Brain.obj
 0001:000029f0       ?GetCloningASkeletalCreature@CreaturesArchive@@QAE_NXZ 004039f0 f i Brain.obj
 0001:00002a00       ??0CreaturesArchive@@QAE@ABV0@@Z 00403a00 f i Brain.obj
 0001:00002c60       ??1?$vector@V?$basic_string@DU?$char_traits@D@std@@V?$allocator@D@2@@std@@V?$allocator@V?$basic_string@DU?$char_traits@D@std@@V?$allocator@D@2@@std@@@2@@std@@QAE@XZ 00403c60 f i Brain.obj
 0001:00002c60       ??1ProfanityFilter@@QAE@XZ 00403c60 f i Brain.obj
 0001:00002c60       ??1TableSpec@@QAE@XZ       00403c60 f i Brain.obj
 0001:00002cd0       ??0?$_Tree@V?$basic_string@DU?$char_traits@D@std@@V?$allocator@D@2@@std@@U?$pair@$$CBV?$basic_string@DU?$char_traits@D@std@@V?$allocator@D@2@@std@@J@2@U_Kfn@?$map@V?$basic_string@DU?$char_traits@D@std@@V?$allocator@D@2@@std@@JU?$less@V?$basic_string@DU?$char_traits@D@std@@V?$allocator@D@2@@std@@@2@V?$allocator@J@2@@2@U?$less@V?$basic_string@DU?$char_traits@D@std@@V?$allocator@D@2@@std@@@2@V?$allocator@J@2@@std@@QAE@ABV01@@Z 00403cd0 f i Brain.obj
 0001:00002e20       ??4CreaturesArchive@@QAEAAV0@ABV0@@Z 00403e20 f i Brain.obj
 0001:00003120       ??1?$map@PBVPersistentObject@@JU?$less@PBVPersistentObject@@@std@@V?$allocator@J@3@@std@@QAE@XZ 00404120 f i Brain.obj
 0001:000031e0       ??1?$map@PBMJU?$less@PBM@std@@V?$allocator@J@2@@std@@QAE@XZ 004041e0 f i Brain.obj
 0001:000032a0       ?_Ucopy@?$vector@V?$vector@V?$basic_string@DU?$char_traits@D@std@@V?$allocator@D@2@@std@@V?$allocator@V?$basic_string@DU?$char_traits@D@std@@V?$allocator@D@2@@std@@@2@@std@@V?$allocator@V?$vector@V?$basic_string@DU?$char_traits@D@std@@V?$allocator@D@2@@std@@V?$allocator@V?$basic_string@DU?$char_traits@D@std@@V?$allocator@D@2@@std@@@2@@std@@@2@@std@@IAEPAV?$vector@V?$basic_string@DU?$char_traits@D@std@@V?$allocator@D@2@@std@@V?$allocator@V?$basic_string@DU?$char_traits@D@std@@V?$allocator@D@2@@std@@@2@@2@PBV32@0PAV32@@Z 004042a0 f i Brain.obj
 0001:000032e0       ?erase@?$_Tree@PBVPersistentObject@@U?$pair@QBVPersistentObject@@J@std@@U_Kfn@?$map@PBVPersistentObject@@JU?$less@PBVPersistentObject@@@std@@V?$allocator@J@3@@3@U?$less@PBVPersistentObject@@@3@V?$allocator@J@3@@std@@QAE?AViterator@12@V312@0@Z 004042e0 f i Brain.obj
 0001:00003390       ?_Copy@?$_Tree@PBVPersistentObject@@U?$pair@QBVPersistentObject@@J@std@@U_Kfn@?$map@PBVPersistentObject@@JU?$less@PBVPersistentObject@@@std@@V?$allocator@J@3@@3@U?$less@PBVPersistentObject@@@3@V?$allocator@J@3@@std@@IAEXABV12@@Z 00404390 f i Brain.obj
 0001:00003490       ?_Init@?$_Tree@PBMU?$pair@QBMJ@std@@U_Kfn@?$map@PBMJU?$less@PBM@std@@V?$allocator@J@2@@2@U?$less@PBM@2@V?$allocator@J@2@@std@@IAEXXZ 00404490 f i Brain.obj
 0001:00003490       ?_Init@?$_Tree@PBVPersistentObject@@U?$pair@QBVPersistentObject@@J@std@@U_Kfn@?$map@PBVPersistentObject@@JU?$less@PBVPersistentObject@@@std@@V?$allocator@J@3@@3@U?$less@PBVPersistentObject@@@3@V?$allocator@J@3@@std@@IAEXXZ 00404490 f i Brain.obj
 0001:00003490       ?_Init@?$_Tree@KU?$pair@$$CBK_N@std@@U_Kfn@?$map@K_NU?$less@K@std@@V?$allocator@_N@2@@2@U?$less@K@2@V?$allocator@_N@2@@std@@IAEXXZ 00404490 f i Brain.obj
 0001:000034f0       ??4?$_Tree@PBMU?$pair@QBMJ@std@@U_Kfn@?$map@PBMJU?$less@PBM@std@@V?$allocator@J@2@@2@U?$less@PBM@2@V?$allocator@J@2@@std@@QAEAAV01@ABV01@@Z 004044f0 f i Brain.obj
 0001:00003670       ?_Copy@?$_Tree@PBMU?$pair@QBMJ@std@@U_Kfn@?$map@PBMJU?$less@PBM@std@@V?$allocator@J@2@@2@U?$less@PBM@2@V?$allocator@J@2@@std@@IAEXABV12@@Z 00404670 f i Brain.obj
 0001:00003770       ?_Ucopy@?$vector@V?$basic_string@DU?$char_traits@D@std@@V?$allocator@D@2@@std@@V?$allocator@V?$basic_string@DU?$char_traits@D@std@@V?$allocator@D@2@@std@@@2@@std@@IAEPAV?$basic_string@DU?$char_traits@D@std@@V?$allocator@D@2@@2@PBV32@0PAV32@@Z 00404770 f i Brain.obj
 0001:000037b0       ??4?$_Tree@V?$basic_string@DU?$char_traits@D@std@@V?$allocator@D@2@@std@@U?$pair@$$CBV?$basic_string@DU?$char_traits@D@std@@V?$allocator@D@2@@std@@J@2@U_Kfn@?$map@V?$basic_string@DU?$char_traits@D@std@@V?$allocator@D@2@@std@@JU?$less@V?$basic_string@DU?$char_traits@D@std@@V?$allocator@D@2@@std@@@2@V?$allocator@J@2@@2@U?$less@V?$basic_string@DU?$char_traits@D@std@@V?$allocator@D@2@@std@@@2@V?$allocator@J@2@@std@@QAEAAV01@ABV01@@Z 004047b0 f i Brain.obj
 0001:00003940       ?insert@?$vector@UKnowledgeAction@Brain@@V?$allocator@UKnowledgeAction@Brain@@@std@@@std@@QAEXPAUKnowledgeAction@Brain@@IABU34@@Z 00404940 f i Brain.obj
 0001:00003940       ?insert@?$vector@ULine@UITextPart@@V?$allocator@ULine@UITextPart@@@std@@@std@@QAEXPAULine@UITextPart@@IABU34@@Z 00404940 f i Brain.obj
 0001:00003c70       ?erase@?$vector@ULine@UITextPart@@V?$allocator@ULine@UITextPart@@@std@@@std@@QAEPAULine@UITextPart@@PAU34@0@Z 00404c70 f i Brain.obj
 0001:00003c70       ?erase@?$vector@UKnowledgeAction@Brain@@V?$allocator@UKnowledgeAction@Brain@@@std@@@std@@QAEPAUKnowledgeAction@Brain@@PAU34@0@Z 00404c70 f i Brain.obj
 0001:00003cc0       ?erase@?$_Tree@KU?$pair@$$CBKViterator@?$list@VAgentHandle@@V?$allocator@VAgentHandle@@@std@@@std@@@std@@U_Kfn@?$map@KViterator@?$list@VAgentHandle@@V?$allocator@VAgentHandle@@@std@@@std@@U?$less@K@3@V?$allocator@Viterator@?$list@VAgentHandle@@V?$allocator@VAgentHandle@@@std@@@std@@@3@@2@U?$less@K@2@V?$allocator@Viterator@?$list@VAgentHandle@@V?$allocator@VAgentHandle@@@std@@@std@@@2@@std@@QAE?AViterator@12@V312@@Z 00404cc0 f i Brain.obj
 0001:00003cc0       ?erase@?$_Tree@HU?$pair@$$CBHH@std@@U_Kfn@?$map@HHU?$less@H@std@@V?$allocator@H@2@@2@U?$less@H@2@V?$allocator@H@2@@std@@QAE?AViterator@12@V312@@Z 00404cc0 f i Brain.obj
 0001:00003cc0       ?erase@?$_Tree@PBMU?$pair@QBMJ@std@@U_Kfn@?$map@PBMJU?$less@PBM@std@@V?$allocator@J@2@@2@U?$less@PBM@2@V?$allocator@J@2@@std@@QAE?AViterator@12@V312@@Z 00404cc0 f i Brain.obj
 0001:00003cc0       ?erase@?$_Tree@KU?$pair@$$CBKViterator@?$_Tree@VClassifier@@U?$pair@$$CBVClassifier@@VAgentHandle@@@std@@U_Kfn@?$multimap@VClassifier@@VAgentHandle@@U?$less@VClassifier@@@std@@V?$allocator@VAgentHandle@@@4@@3@U?$less@VClassifier@@@3@V?$allocator@VAgentHandle@@@3@@std@@@std@@U_Kfn@?$map@KViterator@?$_Tree@VClassifier@@U?$pair@$$CBVClassifier@@VAgentHandle@@@std@@U_Kfn@?$multimap@VClassifier@@VAgentHandle@@U?$less@VClassifier@@@std@@V?$allocator@VAgentHandle@@@4@@3@U?$less@VClassifier@@@3@V?$allocator@VAgentHandle@@@3@@std@@U?$less@K@3@V?$allocator@Viterator@?$_Tree@VClassifier@@U?$pair@$$CBVClassifier@@VAgentHandle@@@std@@U_Kfn@?$multimap@VClassifier@@VAgentHandle@@U?$less@VClassifier@@@std@@V?$allocator@VAgentHandle@@@4@@3@U?$less@VClassifier@@@3@V?$allocator@VAgentHandle@@@3@@std@@@3@@2@U?$less@K@2@V?$allocator@Viterator@?$_Tree@VClassifier@@U?$pair@$$CBVClassifier@@VAgentHandle@@@std@@U_Kfn@?$multimap@VClassifier@@VAgentHandle@@U?$less@VClassifier@@@std@@V?$allocator@VAgentHandle@@@4@@3@U?$less@VClassifier@@@3@V?$allocator@VAgentHandle@@@3@@std@@@2@@std@@QAE?AViterator@12@V312@@Z 00404cc0 f i Brain.obj
 0001:00003cc0       ?erase@?$_Tree@KU?$pair@$$CBK_N@std@@U_Kfn@?$map@K_NU?$less@K@std@@V?$allocator@_N@2@@2@U?$less@K@2@V?$allocator@_N@2@@std@@QAE?AViterator@12@V312@@Z 00404cc0 f i Brain.obj
 0001:00003cc0       ?erase@?$_Tree@PBVPersistentObject@@U?$pair@QBVPersistentObject@@J@std@@U_Kfn@?$map@PBVPersistentObject@@JU?$less@PBVPersistentObject@@@std@@V?$allocator@J@3@@3@U?$less@PBVPersistentObject@@@3@V?$allocator@J@3@@std@@QAE?AViterator@12@V312@@Z 00404cc0 f i Brain.obj
 0001:00003cc0       ?erase@?$_Tree@PAVDrawableObject@@U?$pair@QAVDrawableObject@@Viterator@?$list@PAVDrawableObject@@V?$allocator@PAVDrawableObject@@@std@@@std@@@std@@U_Kfn@?$map@PAVDrawableObject@@Viterator@?$list@PAVDrawableObject@@V?$allocator@PAVDrawableObject@@@std@@@std@@U?$less@PAVDrawableObject@@@4@V?$allocator@Viterator@?$list@PAVDrawableObject@@V?$allocator@PAVDrawableObject@@@std@@@std@@@4@@3@U?$less@PAVDrawableObject@@@3@V?$allocator@Viterator@?$list@PAVDrawableObject@@V?$allocator@PAVDrawableObject@@@std@@@std@@@3@@std@@QAE?AViterator@12@V312@@Z 00404cc0 f i Brain.obj
 0001:00004080       ?_Copy@?$_Tree@PBVPersistentObject@@U?$pair@QBVPersistentObject@@J@std@@U_Kfn@?$map@PBVPersistentObject@@JU?$less@PBVPersistentObject@@@std@@V?$allocator@J@3@@3@U?$less@PBVPersistentObject@@@3@V?$allocator@J@3@@std@@IAEPAU_Node@12@PAU312@0@Z 00405080 f i Brain.obj
 0001:00004110       ?_Erase@?$_Tree@PBVPersistentObject@@U?$pair@QBVPersistentObject@@J@std@@U_Kfn@?$map@PBVPersistentObject@@JU?$less@PBVPersistentObject@@@std@@V?$allocator@J@3@@3@U?$less@PBVPersistentObject@@@3@V?$allocator@J@3@@std@@IAEXPAU_Node@12@@Z 00405110 f i Brain.obj
 0001:00004150       ?_Copy@?$_Tree@PBMU?$pair@QBMJ@std@@U_Kfn@?$map@PBMJU?$less@PBM@std@@V?$allocator@J@2@@2@U?$less@PBM@2@V?$allocator@J@2@@std@@IAEPAU_Node@12@PAU312@0@Z 00405150 f i Brain.obj
 0001:000041e0       ?_Erase@?$_Tree@PBMU?$pair@QBMJ@std@@U_Kfn@?$map@PBMJU?$less@PBM@std@@V?$allocator@J@2@@2@U?$less@PBM@2@V?$allocator@J@2@@std@@IAEXPAU_Node@12@@Z 004051e0 f i Brain.obj
 0001:00004220       ?_Copy@?$_Tree@V?$basic_string@DU?$char_traits@D@std@@V?$allocator@D@2@@std@@U?$pair@$$CBV?$basic_string@DU?$char_traits@D@std@@V?$allocator@D@2@@std@@J@2@U_Kfn@?$map@V?$basic_string@DU?$char_traits@D@std@@V?$allocator@D@2@@std@@JU?$less@V?$basic_string@DU?$char_traits@D@std@@V?$allocator@D@2@@std@@@2@V?$allocator@J@2@@2@U?$less@V?$basic_string@DU?$char_traits@D@std@@V?$allocator@D@2@@std@@@2@V?$allocator@J@2@@std@@IAEPAU_Node@12@PAU312@0@Z 00405220 f i Brain.obj
 0001:000042b0       ?_Erase@?$_Tree@V?$basic_string@DU?$char_traits@D@std@@V?$allocator@D@2@@std@@U?$pair@$$CBV?$basic_string@DU?$char_traits@D@std@@V?$allocator@D@2@@std@@J@2@U_Kfn@?$map@V?$basic_string@DU?$char_traits@D@std@@V?$allocator@D@2@@std@@JU?$less@V?$basic_string@DU?$char_traits@D@std@@V?$allocator@D@2@@std@@@2@V?$allocator@J@2@@2@U?$less@V?$basic_string@DU?$char_traits@D@std@@V?$allocator@D@2@@std@@@2@V?$allocator@J@2@@std@@IAEXPAU_Node@12@@Z 004052b0 f i Brain.obj
 0001:00004300       ?_Inc@iterator@?$_Tree@KU?$pair@$$CBKViterator@?$list@VAgentHandle@@V?$allocator@VAgentHandle@@@std@@@std@@@std@@U_Kfn@?$map@KViterator@?$list@VAgentHandle@@V?$allocator@VAgentHandle@@@std@@@std@@U?$less@K@3@V?$allocator@Viterator@?$list@VAgentHandle@@V?$allocator@VAgentHandle@@@std@@@std@@@3@@2@U?$less@K@2@V?$allocator@Viterator@?$list@VAgentHandle@@V?$allocator@VAgentHandle@@@std@@@std@@@2@@std@@QAEXXZ 00405300 f i Brain.obj
 0001:00004300       ?_Inc@iterator@?$_Tree@PBMU?$pair@QBMJ@std@@U_Kfn@?$map@PBMJU?$less@PBM@std@@V?$allocator@J@2@@2@U?$less@PBM@2@V?$allocator@J@2@@std@@QAEXXZ 00405300 f i Brain.obj
 0001:00004300       ?_Inc@iterator@?$_Tree@KU?$pair@$$CBK_N@std@@U_Kfn@?$map@K_NU?$less@K@std@@V?$allocator@_N@2@@2@U?$less@K@2@V?$allocator@_N@2@@std@@QAEXXZ 00405300 f i Brain.obj
 0001:00004300       ?_Inc@iterator@?$_Tree@KU?$pair@$$CBKViterator@?$_Tree@VClassifier@@U?$pair@$$CBVClassifier@@VAgentHandle@@@std@@U_Kfn@?$multimap@VClassifier@@VAgentHandle@@U?$less@VClassifier@@@std@@V?$allocator@VAgentHandle@@@4@@3@U?$less@VClassifier@@@3@V?$allocator@VAgentHandle@@@3@@std@@@std@@U_Kfn@?$map@KViterator@?$_Tree@VClassifier@@U?$pair@$$CBVClassifier@@VAgentHandle@@@std@@U_Kfn@?$multimap@VClassifier@@VAgentHandle@@U?$less@VClassifier@@@std@@V?$allocator@VAgentHandle@@@4@@3@U?$less@VClassifier@@@3@V?$allocator@VAgentHandle@@@3@@std@@U?$less@K@3@V?$allocator@Viterator@?$_Tree@VClassifier@@U?$pair@$$CBVClassifier@@VAgentHandle@@@std@@U_Kfn@?$multimap@VClassifier@@VAgentHandle@@U?$less@VClassifier@@@std@@V?$allocator@VAgentHandle@@@4@@3@U?$less@VClassifier@@@3@V?$allocator@VAgentHandle@@@3@@std@@@3@@2@U?$less@K@2@V?$allocator@Viterator@?$_Tree@VClassifier@@U?$pair@$$CBVClassifier@@VAgentHandle@@@std@@U_Kfn@?$multimap@VClassifier@@VAgentHandle@@U?$less@VClassifier@@@std@@V?$allocator@VAgentHandle@@@4@@3@U?$less@VClassifier@@@3@V?$allocator@VAgentHandle@@@3@@std@@@2@@std@@QAEXXZ 00405300 f i Brain.obj
 0001:00004300       ?_Inc@iterator@?$_Tree@PBVPersistentObject@@U?$pair@QBVPersistentObject@@J@std@@U_Kfn@?$map@PBVPersistentObject@@JU?$less@PBVPersistentObject@@@std@@V?$allocator@J@3@@3@U?$less@PBVPersistentObject@@@3@V?$allocator@J@3@@std@@QAEXXZ 00405300 f i Brain.obj
 0001:00004300       ?_Inc@iterator@?$_Tree@HU?$pair@$$CBHH@std@@U_Kfn@?$map@HHU?$less@H@std@@V?$allocator@H@2@@2@U?$less@H@2@V?$allocator@H@2@@std@@QAEXXZ 00405300 f i Brain.obj
 0001:00004300       ?_Inc@iterator@?$_Tree@PAVDrawableObject@@U?$pair@QAVDrawableObject@@Viterator@?$list@PAVDrawableObject@@V?$allocator@PAVDrawableObject@@@std@@@std@@@std@@U_Kfn@?$map@PAVDrawableObject@@Viterator@?$list@PAVDrawableObject@@V?$allocator@PAVDrawableObject@@@std@@@std@@U?$less@PAVDrawableObject@@@4@V?$allocator@Viterator@?$list@PAVDrawableObject@@V?$allocator@PAVDrawableObject@@@std@@@std@@@4@@3@U?$less@PAVDrawableObject@@@3@V?$allocator@Viterator@?$list@PAVDrawableObject@@V?$allocator@PAVDrawableObject@@@std@@@std@@@3@@std@@QAEXXZ 00405300 f i Brain.obj
 0001:00004350       ?_Inc@iterator@?$_Tree@V?$basic_string@DU?$char_traits@D@std@@V?$allocator@D@2@@std@@U?$pair@$$CBV?$basic_string@DU?$char_traits@D@std@@V?$allocator@D@2@@std@@J@2@U_Kfn@?$map@V?$basic_string@DU?$char_traits@D@std@@V?$allocator@D@2@@std@@JU?$less@V?$basic_string@DU?$char_traits@D@std@@V?$allocator@D@2@@std@@@2@V?$allocator@J@2@@2@U?$less@V?$basic_string@DU?$char_traits@D@std@@V?$allocator@D@2@@std@@@2@V?$allocator@J@2@@std@@QAEXXZ 00405350 f i Brain.obj
 0001:00004350       ?_Inc@iterator@?$_Tree@V?$basic_string@DU?$char_traits@D@std@@V?$allocator@D@2@@std@@U?$pair@$$CBV?$basic_string@DU?$char_traits@D@std@@V?$allocator@D@2@@std@@VPrayChunkPtr@@@2@U_Kfn@?$map@V?$basic_string@DU?$char_traits@D@std@@V?$allocator@D@2@@std@@VPrayChunkPtr@@U?$less@V?$basic_string@DU?$char_traits@D@std@@V?$allocator@D@2@@std@@@2@V?$allocator@VPrayChunkPtr@@@2@@2@U?$less@V?$basic_string@DU?$char_traits@D@std@@V?$allocator@D@2@@std@@@2@V?$allocator@VPrayChunkPtr@@@2@@std@@QAEXXZ 00405350 f i Brain.obj
 0001:00004350       ?_Inc@iterator@?$_Tree@V?$basic_string@DU?$char_traits@D@std@@V?$allocator@D@2@@std@@U?$pair@$$CBV?$basic_string@DU?$char_traits@D@std@@V?$allocator@D@2@@std@@PAVGallery@@@2@U_Kfn@?$map@V?$basic_string@DU?$char_traits@D@std@@V?$allocator@D@2@@std@@PAVGallery@@U?$less@V?$basic_string@DU?$char_traits@D@std@@V?$allocator@D@2@@std@@@2@V?$allocator@PAVGallery@@@2@@2@U?$less@V?$basic_string@DU?$char_traits@D@std@@V?$allocator@D@2@@std@@@2@V?$allocator@PAVGallery@@@2@@std@@QAEXXZ 00405350 f i Brain.obj
 0001:00004350       ?_Inc@iterator@?$_Tree@HU?$pair@$$CBHV?$basic_string@DU?$char_traits@D@std@@V?$allocator@D@2@@std@@@std@@U_Kfn@?$map@HV?$basic_string@DU?$char_traits@D@std@@V?$allocator@D@2@@std@@U?$less@H@2@V?$allocator@V?$basic_string@DU?$char_traits@D@std@@V?$allocator@D@2@@std@@@2@@2@U?$less@H@2@V?$allocator@V?$basic_string@DU?$char_traits@D@std@@V?$allocator@D@2@@std@@@2@@std@@QAEXXZ 00405350 f i Brain.obj
 0001:00004350       ?_Inc@iterator@?$_Tree@V?$basic_string@DU?$char_traits@D@std@@V?$allocator@D@2@@std@@U?$pair@$$CBV?$basic_string@DU?$char_traits@D@std@@V?$allocator@D@2@@std@@H@2@U_Kfn@?$map@V?$basic_string@DU?$char_traits@D@std@@V?$allocator@D@2@@std@@HU?$less@V?$basic_string@DU?$char_traits@D@std@@V?$allocator@D@2@@std@@@2@V?$allocator@H@2@@2@U?$less@V?$basic_string@DU?$char_traits@D@std@@V?$allocator@D@2@@std@@@2@V?$allocator@H@2@@std@@QAEXXZ 00405350 f i Brain.obj
 0001:00004350       ?_Inc@iterator@?$_Tree@PAVGallery@@U?$pair@QAVGallery@@V?$basic_string@DU?$char_traits@D@std@@V?$allocator@D@2@@std@@@std@@U_Kfn@?$map@PAVGallery@@V?$basic_string@DU?$char_traits@D@std@@V?$allocator@D@2@@std@@U?$less@PAVGallery@@@3@V?$allocator@V?$basic_string@DU?$char_traits@D@std@@V?$allocator@D@2@@std@@@3@@3@U?$less@PAVGallery@@@3@V?$allocator@V?$basic_string@DU?$char_traits@D@std@@V?$allocator@D@2@@std@@@3@@std@@QAEXXZ 00405350 f i Brain.obj
 0001:000043a0       ?_Construct@std@@YAXPAV?$basic_string@DU?$char_traits@D@std@@V?$allocator@D@2@@1@ABV21@@Z 004053a0 f i Brain.obj
 0001:00004520       ?_Destroy@std@@YAXPAV?$basic_string@DU?$char_traits@D@std@@V?$allocator@D@2@@1@@Z 00405520 f i Brain.obj
 0001:00004570       ?_Construct@std@@YAXPAV?$vector@V?$basic_string@DU?$char_traits@D@std@@V?$allocator@D@2@@std@@V?$allocator@V?$basic_string@DU?$char_traits@D@std@@V?$allocator@D@2@@std@@@2@@1@ABV21@@Z 00405570 f i Brain.obj
 0001:00004760       ?_Construct@std@@YAXPAU?$pair@$$CBV?$basic_string@DU?$char_traits@D@std@@V?$allocator@D@2@@std@@J@1@ABU21@@Z 00405760 f i Brain.obj
 0001:000048d0       ??_G?$basic_string@DU?$char_traits@D@std@@V?$allocator@D@2@@std@@QAEPAXI@Z 004058d0 f i Brain.obj
 0001:00004930       ??_G?$vector@V?$basic_string@DU?$char_traits@D@std@@V?$allocator@D@2@@std@@V?$allocator@V?$basic_string@DU?$char_traits@D@std@@V?$allocator@D@2@@std@@@2@@std@@QAEPAXI@Z 00405930 f i Brain.obj
 0001:000049b0       ?resize@?$vector@PAVTract@@V?$allocator@PAVTract@@@std@@@std@@QAEXIABQAVTract@@@Z 004059b0 f i Brain.obj
 0001:000049b0       ?resize@?$vector@PAVLobe@@V?$allocator@PAVLobe@@@std@@@std@@QAEXIABQAVLobe@@@Z 004059b0 f i Brain.obj
 0001:000049b0       ?resize@?$vector@PAVBrainComponent@@V?$allocator@PAVBrainComponent@@@std@@@std@@QAEXIABQAVBrainComponent@@@Z 004059b0 f i Brain.obj
 0001:000049b0       ?resize@?$vector@PAVInstinct@@V?$allocator@PAVInstinct@@@std@@@std@@QAEXIABQAVInstinct@@@Z 004059b0 f i Brain.obj
 0001:00004bb0       ?_Sort@std@@YAXPAPAVBrainComponent@@0P6A_NPAV2@1@Z0@Z 00405bb0 f i Brain.obj
 0001:00004cf0       ?_Unguarded_insert@std@@YAXPAPAVBrainComponent@@PAV2@P6A_N11@Z@Z 00405cf0 f i Brain.obj
 0001:00004d30       ?_Insertion_sort_1@std@@YAXPAPAVBrainComponent@@0P6A_NPAV2@1@Z0@Z 00405d30 f i Brain.obj
 0001:00004dc0       ?CreateNewBrainComponent@@YAPAVPersistentObject@@XZ 00405dc0 f   BrainComponent.obj
 0001:00004e50       ?GetClassNameX@BrainComponent@@UBEPBDXZ 00405e50 f   BrainComponent.obj
 0001:00004e60       ??5@YAAAVCreaturesArchive@@AAV0@AAPAVBrainComponent@@@Z 00405e60 f   BrainComponent.obj
 0001:00004ec0       ??0BrainComponent@@QAE@XZ  00405ec0 f   BrainComponent.obj
 0001:00004f30       ??_GBrainComponent@@UAEPAXI@Z 00405f30 f i BrainComponent.obj
 0001:00004f30       ??_EBrainComponent@@UAEPAXI@Z 00405f30 f i BrainComponent.obj
 0001:00004f60       ??1BrainComponent@@UAE@XZ  00405f60 f   BrainComponent.obj
 0001:00004fc0       ?RegisterBiochemistry@BrainComponent@@QAEXPAM@Z 00405fc0 f   BrainComponent.obj
 0001:00004fe0       ?xIsProcessedBeforeY@BrainComponent@@SA_NPAV1@0@Z 00405fe0 f   BrainComponent.obj
 0001:00005000       ?Write@BrainComponent@@UBE_NAAVCreaturesArchive@@@Z 00406000 f   BrainComponent.obj
 0001:00005070       ?Read@BrainComponent@@UAE_NAAVCreaturesArchive@@@Z 00406070 f   BrainComponent.obj
 0001:000051d0       ?GetClassNameX@PersistentObject@@UBEPBDXZ 004061d0 f i BrainComponent.obj
 0001:000051e0       ?AnimOver@Agent@@UAE_NH@Z  004061e0 f i BrainComponent.obj
 0001:000051e0       ?Read@PersistentObject@@UAE_NAAVCreaturesArchive@@@Z 004061e0 f i BrainComponent.obj
 0001:000051e0       ?Write@PersistentObject@@UBE_NAAVCreaturesArchive@@@Z 004061e0 f i BrainComponent.obj
 0001:000051e0       ?ValidatePart@Agent@@UAE_NH@Z 004061e0 f i BrainComponent.obj
 0001:000051f0       ??_EPersistentObject@@UAEPAXI@Z 004061f0 f i BrainComponent.obj
 0001:000051f0       ??_GPersistentObject@@UAEPAXI@Z 004061f0 f i BrainComponent.obj
 0001:00005220       ?DoesThisScriptRequireAnItObject@@YA_NH@Z 00406220 f   BrainScriptFunctions.obj
 0001:000052b0       ??1?$map@HHU?$less@H@std@@V?$allocator@H@2@@std@@QAE@XZ 004062b0 f i BrainScriptFunctions.obj
 0001:00005370       ?InitBrainMappingsFromCatalogues@@YAHXZ 00406370 f   BrainScriptFunctions.obj
 0001:00005450       ?EnsureGot@@YAXXZ          00406450 f i BrainScriptFunctions.obj
 0001:00005730       ?GetExpectedAgentScriptFromDecisionOffset@@YAHH@Z 00406730 f   BrainScriptFunctions.obj
 0001:00005750       ?GetScriptOffsetFromNeuronId@@YAHH@Z 00406750 f   BrainScriptFunctions.obj
 0001:00005770       ?GetNeuronIdFromScriptOffset@@YAHH@Z 00406770 f   BrainScriptFunctions.obj
 0001:000058a0       ?insert@?$_Tree@HU?$pair@$$CBHH@std@@U_Kfn@?$map@HHU?$less@H@std@@V?$allocator@H@2@@2@U?$less@H@2@V?$allocator@H@2@@std@@QAE?AU?$pair@Viterator@?$_Tree@HU?$pair@$$CBHH@std@@U_Kfn@?$map@HHU?$less@H@std@@V?$allocator@H@2@@2@U?$less@H@2@V?$allocator@H@2@@std@@_N@2@ABU?$pair@$$CBHH@2@@Z 004068a0 f i BrainScriptFunctions.obj
 0001:00005af0       ?_Erase@?$_Tree@HU?$pair@$$CBHH@std@@U_Kfn@?$map@HHU?$less@H@std@@V?$allocator@H@2@@2@U?$less@H@2@V?$allocator@H@2@@std@@IAEXPAU_Node@12@@Z 00406af0 f i BrainScriptFunctions.obj
 0001:00005b30       ?_Insert@?$_Tree@HU?$pair@$$CBHH@std@@U_Kfn@?$map@HHU?$less@H@std@@V?$allocator@H@2@@2@U?$less@H@2@V?$allocator@H@2@@std@@IAE?AViterator@12@PAU_Node@12@0ABU?$pair@$$CBHH@2@@Z 00406b30 f i BrainScriptFunctions.obj
 0001:00005d70       ?_Construct@std@@YAXPAUCharStyle@Sprite@@ABU23@@Z 00406d70 f i BrainScriptFunctions.obj
 0001:00005d70       ?_Construct@std@@YAXPAVVector2D@@ABV2@@Z 00406d70 f i BrainScriptFunctions.obj
 0001:00005d70       ?_Construct@std@@YAXPAU?$pair@HH@1@ABU21@@Z 00406d70 f i BrainScriptFunctions.obj
 0001:00005d70       ?_Construct@std@@YAXPAU?$pair@$$CBHH@1@ABU21@@Z 00406d70 f i BrainScriptFunctions.obj
 0001:00005d70       ?_Construct@std@@YAXPAU?$pair@$$CBKViterator@?$_Tree@VClassifier@@U?$pair@$$CBVClassifier@@VAgentHandle@@@std@@U_Kfn@?$multimap@VClassifier@@VAgentHandle@@U?$less@VClassifier@@@std@@V?$allocator@VAgentHandle@@@4@@3@U?$less@VClassifier@@@3@V?$allocator@VAgentHandle@@@3@@std@@@1@ABU21@@Z 00406d70 f i BrainScriptFunctions.obj
 0001:00005d70       ?_Construct@std@@YAXPAU?$pair@QAVDrawableObject@@Viterator@?$list@PAVDrawableObject@@V?$allocator@PAVDrawableObject@@@std@@@std@@@1@ABU21@@Z 00406d70 f i BrainScriptFunctions.obj
 0001:00005d70       ?_Construct@std@@YAXPAU?$pair@$$CBK_N@1@ABU21@@Z 00406d70 f i BrainScriptFunctions.obj
 0001:00005d70       ?_Construct@std@@YAXPAU?$pair@QBMJ@1@ABU21@@Z 00406d70 f i BrainScriptFunctions.obj
 0001:00005d70       ?_Construct@std@@YAXPAU?$pair@$$CBKViterator@?$list@VAgentHandle@@V?$allocator@VAgentHandle@@@std@@@std@@@1@ABU21@@Z 00406d70 f i BrainScriptFunctions.obj
 0001:00005d70       ?_Construct@std@@YAXPAU?$pair@QBVPersistentObject@@J@1@ABU21@@Z 00406d70 f i BrainScriptFunctions.obj
 0001:00005d90       ??0Dendrite@@QAE@PAUNeuron@@0@Z 00406d90 f   Dendrite.obj
 0001:00005dc0       ??0Dendrite@@QAE@XZ        00406dc0 f   Dendrite.obj
 0001:00005de0       ?InitByRule@Dendrite@@QAEXAAVSVRule@@PAVTract@@@Z 00406de0 f   Dendrite.obj
 0001:00005e20       ?ClearWeights@Dendrite@@QAEXXZ 00406e20 f   Dendrite.obj
 0001:00005ee0       ?ProcessGivenVariables@SVRule@@QAE?AW4ProcessReturnCode@1@AAY07M000HHPAVBrainComponent@@@Z 00406ee0 f i Dendrite.obj
 0001:00006a80       ?CreateNewInstinct@@YAPAVPersistentObject@@XZ 00407a80 f   Instinct.obj
 0001:00006b10       ?GetClassNameX@Instinct@@UBEPBDXZ 00407b10 f   Instinct.obj
 0001:00006b20       ??5@YAAAVCreaturesArchive@@AAV0@AAPAVInstinct@@@Z 00407b20 f   Instinct.obj
 0001:00006b80       ??0Instinct@@QAE@HHMHPAVBrain@@@Z 00407b80 f   Instinct.obj
 0001:00006d80       ??_EInstinct@@UAEPAXI@Z    00407d80 f i Instinct.obj
 0001:00006d80       ??_GInstinct@@UAEPAXI@Z    00407d80 f i Instinct.obj
 0001:00006db0       ??0InstinctInput@Instinct@@QAE@XZ 00407db0 f i Instinct.obj
 0001:00006dd0       ??1Instinct@@UAE@XZ        00407dd0 f i Instinct.obj
 0001:00006e20       ??0Instinct@@QAE@XZ        00407e20 f   Instinct.obj
 0001:00006e80       ??0Instinct@@QAE@AAVGenome@@PAVBrain@@@Z 00407e80 f   Instinct.obj
 0001:00007190       ?Process@Instinct@@QAE_NXZ 00408190 f   Instinct.obj
 0001:00007410       ?Write@Instinct@@UBE_NAAVCreaturesArchive@@@Z 00408410 f   Instinct.obj
 0001:00007490       ?Read@Instinct@@UAE_NAAVCreaturesArchive@@@Z 00408490 f   Instinct.obj
 0001:000075d0       ?CreateNewLobe@@YAPAVPersistentObject@@XZ 004085d0 f   Lobe.obj
 0001:00007660       ?GetClassNameX@Lobe@@UBEPBDXZ 00408660 f   Lobe.obj
 0001:00007670       ??5@YAAAVCreaturesArchive@@AAV0@AAPAVLobe@@@Z 00408670 f   Lobe.obj
 0001:000076d0       ??0Lobe@@QAE@XZ            004086d0 f   Lobe.obj
 0001:00007720       ??_GLobe@@UAEPAXI@Z        00408720 f i Lobe.obj
 0001:00007720       ??_ELobe@@UAEPAXI@Z        00408720 f i Lobe.obj
 0001:00007750       ??0Lobe@@QAE@AAVGenome@@@Z 00408750 f   Lobe.obj
 0001:00007a90       ?Initialise@Lobe@@UAEXXZ   00408a90 f   Lobe.obj
 0001:00007b00       ??1Lobe@@UAE@XZ            00408b00 f   Lobe.obj
 0001:00007b80       ?DoUpdate@Lobe@@UAEXXZ     00408b80 f   Lobe.obj
 0001:00007ca0       ?ClearActivity@Lobe@@QAEXXZ 00408ca0 f   Lobe.obj
 0001:00007cd0       ?GetWhichNeuronWon@Lobe@@QAEHXZ 00408cd0 f   Lobe.obj
 0001:00007ce0       ?GetNeuronState@Lobe@@QAEMHH@Z 00408ce0 f   Lobe.obj
 0001:00007d10       ?GetNeuronStatePointer@Lobe@@QAEPAMHH@Z 00408d10 f   Lobe.obj
 0001:00007d60       ?SetNeuronInput@Lobe@@QAEXHM@Z 00408d60 f   Lobe.obj
 0001:00007da0       ?TraceDebugInformation@Lobe@@UAEXXZ 00408da0 f   Lobe.obj
 0001:00007df0       ?Write@Lobe@@UBE_NAAVCreaturesArchive@@@Z 00408df0 f   Lobe.obj
 0001:00007f90       ?Read@Lobe@@UAE_NAAVCreaturesArchive@@@Z 00408f90 f   Lobe.obj
 0001:00008210       ?SetNeuronState@Lobe@@QAE_NHHM@Z 00409210 f   Lobe.obj
 0001:00008280       ?SetSVFloat@Lobe@@QAE_NHM@Z 00409280 f   Lobe.obj
 0001:000082c0       ?DumpLobe@Lobe@@QAEXAAV?$basic_ostream@DU?$char_traits@D@std@@@std@@@Z 004092c0 f   Lobe.obj
 0001:00008420       ?DumpNeuron@Lobe@@QAE_NHAAV?$basic_ostream@DU?$char_traits@D@std@@@std@@@Z 00409420 f   Lobe.obj
 0001:000084a0       ?DumpSize@Lobe@@QAEHXZ     004094a0 f   Lobe.obj
 0001:00008550       ??0Neuron@@QAE@XZ          00409550 f   Neuron.obj
 0001:00008560       ?ClearStates@Neuron@@QAEXXZ 00409560 f   Neuron.obj
 0001:00008570       ?CreateNewSVRule@@YAPAVPersistentObject@@XZ 00409570 f   SVRule.obj
 0001:00008600       ?GetClassNameX@SVRule@@UBEPBDXZ 00409600 f   SVRule.obj
 0001:00008630       ?InitVariables@SVRule@@KAHXZ 00409630 f   SVRule.obj
 0001:00008650       ??0SVRule@@QAE@XZ          00409650 f   SVRule.obj
 0001:00008670       ??_ESVRule@@UAEPAXI@Z      00409670 f i SVRule.obj
 0001:00008670       ??_ETintManager@@UAEPAXI@Z 00409670 f i SVRule.obj
 0001:00008670       ??_GSVRule@@UAEPAXI@Z      00409670 f i SVRule.obj
 0001:00008670       ??_GTintManager@@UAEPAXI@Z 00409670 f i SVRule.obj
 0001:000086a0       ??1SVRule@@UAE@XZ          004096a0 f   SVRule.obj
 0001:000086a0       ??1TintManager@@UAE@XZ     004096a0 f   SVRule.obj
 0001:000086b0       ?InitFromGenome@SVRule@@QAEXAAVGenome@@@Z 004096b0 f   SVRule.obj
 0001:00008730       ?Write@SVRule@@UBE_NAAVCreaturesArchive@@@Z 00409730 f   SVRule.obj
 0001:00008780       ?Read@SVRule@@UAE_NAAVCreaturesArchive@@@Z 00409780 f   SVRule.obj
 0001:000087e0       ?Dump@SVRule@@QAEXAAV?$basic_ostream@DU?$char_traits@D@std@@@std@@@Z 004097e0 f   SVRule.obj
 0001:00008870       ?SetFloat@SVRule@@QAE_NHM@Z 00409870 f   SVRule.obj
 0001:000088c0       ?HandleSetRewardThreshold@SVRule@@IAEXPAVBrainComponent@@M@Z 004098c0 f   SVRule.obj
 0001:00008920       ?HandleSetRewardRate@SVRule@@IAEXPAVBrainComponent@@M@Z 00409920 f   SVRule.obj
 0001:00008980       ?HandleSetRewardChemicalIndex@SVRule@@IAEXPAVBrainComponent@@E@Z 00409980 f   SVRule.obj
 0001:000089c0       ?HandleSetPunishmentThreshold@SVRule@@IAEXPAVBrainComponent@@M@Z 004099c0 f   SVRule.obj
 0001:00008a20       ?HandleSetPunishmentRate@SVRule@@IAEXPAVBrainComponent@@M@Z 00409a20 f   SVRule.obj
 0001:00008a80       ?HandleSetPunishmentChemicalIndex@SVRule@@IAEXPAVBrainComponent@@E@Z 00409a80 f   SVRule.obj
 0001:00008ac0       ?HandleSetSTtoLTRate@SVRule@@IAEXPAVBrainComponent@@M@Z 00409ac0 f   SVRule.obj
 0001:00008ae0       ?HandleSetLTtoSTRateAndDoCalc@SVRule@@IAEXPAVBrainComponent@@MAAY07M@Z 00409ae0 f   SVRule.obj
 0001:00008bd0       ?CreateNewTract@@YAPAVPersistentObject@@XZ 00409bd0 f   Tract.obj
 0001:00008c60       ?GetClassNameX@Tract@@UBEPBDXZ 00409c60 f   Tract.obj
 0001:00008c70       ??5@YAAAVCreaturesArchive@@AAV0@AAPAVTract@@@Z 00409c70 f   Tract.obj
 0001:00008cd0       ??0Tract@@QAE@XZ           00409cd0 f   Tract.obj
 0001:00008f50       ??_GTract@@UAEPAXI@Z       00409f50 f i Tract.obj
 0001:00008f50       ??_ETract@@UAEPAXI@Z       00409f50 f i Tract.obj
 0001:00008f80       ??1TractAttachmentDetails@Tract@@QAE@XZ 00409f80 f i Tract.obj
 0001:00008fb0       ??0Tract@@QAE@AAVGenome@@AAV?$vector@PAVLobe@@V?$allocator@PAVLobe@@@std@@@std@@@Z 00409fb0 f   Tract.obj
 0001:00009bb0       ??1Tract@@UAE@XZ           0040abb0 f   Tract.obj
 0001:00009cc0       ?Initialise@Tract@@UAEXXZ  0040acc0 f   Tract.obj
 0001:00009d10       ?InitNeuronLists@Tract@@IAEXXZ 0040ad10 f   Tract.obj
 0001:00009f50       ?DoesDendriteExistFromTo@Tract@@IAE_NPAUNeuron@@0@Z 0040af50 f   Tract.obj
 0001:00009f90       ?DoUpdate@Tract@@UAEXXZ    0040af90 f   Tract.obj
 0001:0000a070       ?UpdateWeakDendritesList@Tract@@IAEXAAUDendrite@@@Z 0040b070 f   Tract.obj
 0001:0000a1e0       ?MigrateWeakDendrites@Tract@@IAEXXZ 0040b1e0 f   Tract.obj
 0001:0000a370       ?FindNNeuronsWithHighestGivenState@Tract@@IAE?AV?$vector@PAUNeuron@@V?$allocator@PAUNeuron@@@std@@@std@@V23@HH@Z 0040b370 f   Tract.obj
 0001:0000a5c0       ?AttemptMigration@Tract@@IAE_NPAUNeuron@@0H@Z 0040b5c0 f   Tract.obj
 0001:0000a680       ?GetDendriteIfExistingFromTo@Tract@@IAEPAUDendrite@@PAUNeuron@@0@Z 0040b680 f   Tract.obj
 0001:0000a6c0       ?TraceDebugInformation@Tract@@UAEXXZ 0040b6c0 f   Tract.obj
 0001:0000a730       ?Write@Tract@@UBE_NAAVCreaturesArchive@@@Z 0040b730 f   Tract.obj
 0001:0000a950       ?Read@Tract@@UAE_NAAVCreaturesArchive@@@Z 0040b950 f   Tract.obj
 0001:0000ae50       ?SetDendriteWeight@Tract@@QAE_NHHM@Z 0040be50 f   Tract.obj
 0001:0000aec0       ?SetSVFloat@Tract@@QAE_NHM@Z 0040bec0 f   Tract.obj
 0001:0000af00       ?DumpTract@Tract@@QAEXAAV?$basic_ostream@DU?$char_traits@D@std@@@std@@@Z 0040bf00 f   Tract.obj
 0001:0000b050       ?DumpDendrite@Tract@@QAE_NHAAV?$basic_ostream@DU?$char_traits@D@std@@@std@@@Z 0040c050 f   Tract.obj
 0001:0000b0f0       ?DumpSize@Tract@@QAEHXZ    0040c0f0 f   Tract.obj
 0001:0000b120       ?DumpAllDendrites@Tract@@QAE_NAAV?$basic_ostream@DU?$char_traits@D@std@@@std@@@Z 0040c120 f   Tract.obj
 0001:0000b180       ?UnDumpAllDendrites@Tract@@QAE_NAAV?$basic_istream@DU?$char_traits@D@std@@@std@@@Z 0040c180 f   Tract.obj
 0001:0000b1f0       ?UnDumpDendrite@Tract@@QAE_NHAAV?$basic_istream@DU?$char_traits@D@std@@@std@@@Z 0040c1f0 f   Tract.obj
 0001:0000b290       ?ProcessRewardAndPunishment@Tract@@IAEXAAUDendrite@@@Z 0040c290 f   Tract.obj
 0001:0000b320       ?ReinforceAVariable@ReinforcementDetails@Tract@@QAEXMAAM@Z 0040c320 f   Tract.obj
 0001:0000b380       ?Write@ReinforcementDetails@Tract@@UBE_NAAVCreaturesArchive@@@Z 0040c380 f   Tract.obj
 0001:0000b3d0       ?Read@ReinforcementDetails@Tract@@UAE_NAAVCreaturesArchive@@@Z 0040c3d0 f   Tract.obj
 0001:0000b4a0       ?Get@Catalogue@@QBEPBDABV?$basic_string@DU?$char_traits@D@std@@V?$allocator@D@2@@std@@H@Z 0040c4a0 f i Tract.obj
 0001:0000b5f0       ??0?$vector@JV?$allocator@J@std@@@std@@QAE@ABV01@@Z 0040c5f0 f i Tract.obj
 0001:0000b5f0       ??0?$vector@PAUNeuron@@V?$allocator@PAUNeuron@@@std@@@std@@QAE@ABV01@@Z 0040c5f0 f i Tract.obj
 0001:0000b5f0       ??0?$vector@HV?$allocator@H@std@@@std@@QAE@ABV01@@Z 0040c5f0 f i Tract.obj
 0001:0000b660       ?find@?$_Tree@HU?$pair@$$CBHV?$basic_string@DU?$char_traits@D@std@@V?$allocator@D@2@@std@@@std@@U_Kfn@?$map@HV?$basic_string@DU?$char_traits@D@std@@V?$allocator@D@2@@std@@U?$less@H@2@V?$allocator@V?$basic_string@DU?$char_traits@D@std@@V?$allocator@D@2@@std@@@2@@2@U?$less@H@2@V?$allocator@V?$basic_string@DU?$char_traits@D@std@@V?$allocator@D@2@@std@@@2@@std@@QBE?AVconst_iterator@12@ABH@Z 0040c660 f i Tract.obj
 0001:0000b660       ?find@?$_Tree@HU?$pair@$$CBHV?$basic_string@DU?$char_traits@D@std@@V?$allocator@D@2@@std@@@std@@U_Kfn@?$map@HV?$basic_string@DU?$char_traits@D@std@@V?$allocator@D@2@@std@@U?$less@H@2@V?$allocator@V?$basic_string@DU?$char_traits@D@std@@V?$allocator@D@2@@std@@@2@@2@U?$less@H@2@V?$allocator@V?$basic_string@DU?$char_traits@D@std@@V?$allocator@D@2@@std@@@2@@std@@QAE?AViterator@12@ABH@Z 0040c660 f i Tract.obj
 0001:0000b6d0       ?_Ucopy@?$vector@MV?$allocator@M@std@@@std@@IAEPAMPBM0PAM@Z 0040c6d0 f i Tract.obj
 0001:0000b6d0       ?_Ucopy@?$vector@PAVInstinct@@V?$allocator@PAVInstinct@@@std@@@std@@IAEPAPAVInstinct@@PBQAV3@0PAPAV3@@Z 0040c6d0 f i Tract.obj
 0001:0000b6d0       ?_Ucopy@?$vector@PAMV?$allocator@PAM@std@@@std@@IAEPAPAMPBQAM0PAPAM@Z 0040c6d0 f i Tract.obj
 0001:0000b6d0       ?_Ucopy@?$vector@PAVMusicVariable@@V?$allocator@PAVMusicVariable@@@std@@@std@@IAEPAPAVMusicVariable@@PBQAV3@0PAPAV3@@Z 0040c6d0 f i Tract.obj
 0001:0000b6d0       ?_Ucopy@?$vector@PAVTract@@V?$allocator@PAVTract@@@std@@@std@@IAEPAPAVTract@@PBQAV3@0PAPAV3@@Z 0040c6d0 f i Tract.obj
 0001:0000b6d0       ?_Ucopy@?$vector@PAUNeuron@@V?$allocator@PAUNeuron@@@std@@@std@@IAEPAPAUNeuron@@PBQAU3@0PAPAU3@@Z 0040c6d0 f i Tract.obj
 0001:0000b6d0       ?_Ucopy@?$vector@PAVModuleInterface@@V?$allocator@PAVModuleInterface@@@std@@@std@@IAEPAPAVModuleInterface@@PBQAV3@0PAPAV3@@Z 0040c6d0 f i Tract.obj
 0001:0000b6d0       ?_Ucopy@?$vector@PAVCondition@Voice@MusicAleotoricLayer@@V?$allocator@PAVCondition@Voice@MusicAleotoricLayer@@@std@@@std@@IAEPAPAVCondition@Voice@MusicAleotoricLayer@@PBQAV345@0PAPAV345@@Z 0040c6d0 f i Tract.obj
 0001:0000b6d0       ?_Ucopy@?$vector@PAVMusicLayer@@V?$allocator@PAVMusicLayer@@@std@@@std@@IAEPAPAVMusicLayer@@PBQAV3@0PAPAV3@@Z 0040c6d0 f i Tract.obj
 0001:0000b6d0       ?_Ucopy@?$vector@P6AXAAVCAOSDescription@@@ZV?$allocator@P6AXAAVCAOSDescription@@@Z@std@@@std@@IAEPAP6AXAAVCAOSDescription@@@ZPBQ6AX0@Z1PAP6AX0@Z@Z 0040c6d0 f i Tract.obj
 0001:0000b6d0       ?_Ucopy@?$vector@PAVQueuedSound@MusicLayer@@V?$allocator@PAVQueuedSound@MusicLayer@@@std@@@std@@IAEPAPAVQueuedSound@MusicLayer@@PBQAV34@0PAPAV34@@Z 0040c6d0 f i Tract.obj
 0001:0000b6d0       ?_Ucopy@?$vector@PAUHINSTANCE__@@V?$allocator@PAUHINSTANCE__@@@std@@@std@@IAEPAPAUHINSTANCE__@@PBQAU3@0PAPAU3@@Z 0040c6d0 f i Tract.obj
 0001:0000b6d0       ?_Ucopy@?$vector@P6AXAAVCAOSMachine@@AAV?$basic_string@DU?$char_traits@D@std@@V?$allocator@D@2@@std@@@ZV?$allocator@P6AXAAVCAOSMachine@@AAV?$basic_string@DU?$char_traits@D@std@@V?$allocator@D@2@@std@@@Z@3@@std@@IAEPAP6AXAAVCAOSMachine@@AAV?$basic_string@DU?$char_traits@D@std@@V?$allocator@D@2@@2@@ZPBQ6AX01@Z2PAP6AX01@Z@Z 0040c6d0 f i Tract.obj
 0001:0000b6d0       ?_Ucopy@?$vector@PAVLobe@@V?$allocator@PAVLobe@@@std@@@std@@IAEPAPAVLobe@@PBQAV3@0PAPAV3@@Z 0040c6d0 f i Tract.obj
 0001:0000b6d0       ?_Ucopy@?$vector@P6AAAVCAOSVar@@AAVCAOSMachine@@@ZV?$allocator@P6AAAVCAOSVar@@AAVCAOSMachine@@@Z@std@@@std@@IAEPAP6AAAVCAOSVar@@AAVCAOSMachine@@@ZPBQ6AAAV3@0@Z1PAP6AAAV3@0@Z@Z 0040c6d0 f i Tract.obj
 0001:0000b6d0       ?_Ucopy@?$vector@P6AXAAVApp@@@ZV?$allocator@P6AXAAVApp@@@Z@std@@@std@@IAEPAP6AXAAVApp@@@ZPBQ6AX0@Z1PAP6AX0@Z@Z 0040c6d0 f i Tract.obj
 0001:0000b6d0       ?_Ucopy@?$vector@P6AXAAVCAOSMachine@@@ZV?$allocator@P6AXAAVCAOSMachine@@@Z@std@@@std@@IAEPAP6AXAAVCAOSMachine@@@ZPBQ6AX0@Z1PAP6AX0@Z@Z 0040c6d0 f i Tract.obj
 0001:0000b6d0       ?_Ucopy@?$vector@HV?$allocator@H@std@@@std@@IAEPAHPBH0PAH@Z 0040c6d0 f i Tract.obj
 0001:0000b6d0       ?_Ucopy@?$vector@PAVLine@@V?$allocator@PAVLine@@@std@@@std@@IAEPAPAVLine@@PBQAV3@0PAPAV3@@Z 0040c6d0 f i Tract.obj
 0001:0000b6d0       ?_Ucopy@?$vector@PAVPersistentObject@@V?$allocator@PAVPersistentObject@@@std@@@std@@IAEPAPAVPersistentObject@@PBQAV3@0PAPAV3@@Z 0040c6d0 f i Tract.obj
 0001:0000b6d0       ?_Ucopy@?$vector@PAVVoice@MusicAleotoricLayer@@V?$allocator@PAVVoice@MusicAleotoricLayer@@@std@@@std@@IAEPAPAVVoice@MusicAleotoricLayer@@PBQAV34@0PAPAV34@@Z 0040c6d0 f i Tract.obj
 0001:0000b6d0       ?_Ucopy@?$vector@PAVCamera@@V?$allocator@PAVCamera@@@std@@@std@@IAEPAPAVCamera@@PBQAV3@0PAPAV3@@Z 0040c6d0 f i Tract.obj
 0001:0000b6d0       ?_Ucopy@?$vector@PAVMacroScript@@V?$allocator@PAVMacroScript@@@std@@@std@@IAEPAPAVMacroScript@@PBQAV3@0PAPAV3@@Z 0040c6d0 f i Tract.obj
 0001:0000b6d0       ?_Ucopy@?$vector@PAVMusicEffect@@V?$allocator@PAVMusicEffect@@@std@@@std@@IAEPAPAVMusicEffect@@PBQAV3@0PAPAV3@@Z 0040c6d0 f i Tract.obj
 0001:0000b6d0       ?_Ucopy@?$vector@KV?$allocator@K@std@@@std@@IAEPAKPBK0PAK@Z 0040c6d0 f i Tract.obj
 0001:0000b6d0       ?_Ucopy@?$vector@PAVBrainComponent@@V?$allocator@PAVBrainComponent@@@std@@@std@@IAEPAPAVBrainComponent@@PBQAV3@0PAPAV3@@Z 0040c6d0 f i Tract.obj
 0001:0000b6d0       ?_Ucopy@?$vector@PAVSoundQueueItem@@V?$allocator@PAVSoundQueueItem@@@std@@@std@@IAEPAPAVSoundQueueItem@@PBQAV3@0PAPAV3@@Z 0040c6d0 f i Tract.obj
 0001:0000b6d0       ?_Ucopy@?$vector@PAVControlledSound@MusicLayer@@V?$allocator@PAVControlledSound@MusicLayer@@@std@@@std@@IAEPAPAVControlledSound@MusicLayer@@PBQAV34@0PAPAV34@@Z 0040c6d0 f i Tract.obj
 0001:0000b6d0       ?_Ucopy@?$vector@PAVCompoundPart@@V?$allocator@PAVCompoundPart@@@std@@@std@@IAEPAPAVCompoundPart@@PBQAV3@0PAPAV3@@Z 0040c6d0 f i Tract.obj
 0001:0000b700       ?_Ufill@?$vector@PAVCondition@Voice@MusicAleotoricLayer@@V?$allocator@PAVCondition@Voice@MusicAleotoricLayer@@@std@@@std@@IAEXPAPAVCondition@Voice@MusicAleotoricLayer@@IABQAV345@@Z 0040c700 f i Tract.obj
 0001:0000b700       ?_Ufill@?$vector@P6AXAAVApp@@@ZV?$allocator@P6AXAAVApp@@@Z@std@@@std@@IAEXPAP6AXAAVApp@@@ZIABQ6AX0@Z@Z 0040c700 f i Tract.obj
 0001:0000b700       ?_Ufill@?$vector@PAVControlledSound@MusicLayer@@V?$allocator@PAVControlledSound@MusicLayer@@@std@@@std@@IAEXPAPAVControlledSound@MusicLayer@@IABQAV34@@Z 0040c700 f i Tract.obj
 0001:0000b700       ?_Ufill@?$vector@P6AAAVCAOSVar@@AAVCAOSMachine@@@ZV?$allocator@P6AAAVCAOSVar@@AAVCAOSMachine@@@Z@std@@@std@@IAEXPAP6AAAVCAOSVar@@AAVCAOSMachine@@@ZIABQ6AAAV3@0@Z@Z 0040c700 f i Tract.obj
 0001:0000b700       ?_Ufill@?$vector@PAVSoundQueueItem@@V?$allocator@PAVSoundQueueItem@@@std@@@std@@IAEXPAPAVSoundQueueItem@@IABQAV3@@Z 0040c700 f i Tract.obj
 0001:0000b700       ?_Ufill@?$vector@PAVTract@@V?$allocator@PAVTract@@@std@@@std@@IAEXPAPAVTract@@IABQAV3@@Z 0040c700 f i Tract.obj
 0001:0000b700       ?_Ufill@?$vector@PAVBrainComponent@@V?$allocator@PAVBrainComponent@@@std@@@std@@IAEXPAPAVBrainComponent@@IABQAV3@@Z 0040c700 f i Tract.obj
 0001:0000b700       ?_Ufill@?$vector@PAUNeuron@@V?$allocator@PAUNeuron@@@std@@@std@@IAEXPAPAUNeuron@@IABQAU3@@Z 0040c700 f i Tract.obj
 0001:0000b700       ?_Ufill@?$vector@PAVCamera@@V?$allocator@PAVCamera@@@std@@@std@@IAEXPAPAVCamera@@IABQAV3@@Z 0040c700 f i Tract.obj
 0001:0000b700       ?_Ufill@?$vector@PAVMusicVariable@@V?$allocator@PAVMusicVariable@@@std@@@std@@IAEXPAPAVMusicVariable@@IABQAV3@@Z 0040c700 f i Tract.obj
 0001:0000b700       ?_Ufill@?$vector@PAVVoice@MusicAleotoricLayer@@V?$allocator@PAVVoice@MusicAleotoricLayer@@@std@@@std@@IAEXPAPAVVoice@MusicAleotoricLayer@@IABQAV34@@Z 0040c700 f i Tract.obj
 0001:0000b700       ?_Ufill@?$vector@P6AXAAVCAOSMachine@@AAV?$basic_string@DU?$char_traits@D@std@@V?$allocator@D@2@@std@@@ZV?$allocator@P6AXAAVCAOSMachine@@AAV?$basic_string@DU?$char_traits@D@std@@V?$allocator@D@2@@std@@@Z@3@@std@@IAEXPAP6AXAAVCAOSMachine@@AAV?$basic_string@DU?$char_traits@D@std@@V?$allocator@D@2@@2@@ZIABQ6AX01@Z@Z 0040c700 f i Tract.obj
 0001:0000b700       ?_Ufill@?$vector@PAVCompoundPart@@V?$allocator@PAVCompoundPart@@@std@@@std@@IAEXPAPAVCompoundPart@@IABQAV3@@Z 0040c700 f i Tract.obj
 0001:0000b700       ?_Ufill@?$vector@PAMV?$allocator@PAM@std@@@std@@IAEXPAPAMIABQAM@Z 0040c700 f i Tract.obj
 0001:0000b700       ?_Ufill@?$vector@PAVMusicLayer@@V?$allocator@PAVMusicLayer@@@std@@@std@@IAEXPAPAVMusicLayer@@IABQAV3@@Z 0040c700 f i Tract.obj
 0001:0000b700       ?_Ufill@?$vector@PAVModuleInterface@@V?$allocator@PAVModuleInterface@@@std@@@std@@IAEXPAPAVModuleInterface@@IABQAV3@@Z 0040c700 f i Tract.obj
 0001:0000b700       ?_Ufill@?$vector@PAVLine@@V?$allocator@PAVLine@@@std@@@std@@IAEXPAPAVLine@@IABQAV3@@Z 0040c700 f i Tract.obj
 0001:0000b700       ?_Ufill@?$vector@HV?$allocator@H@std@@@std@@IAEXPAHIABH@Z 0040c700 f i Tract.obj
 0001:0000b700       ?_Ufill@?$vector@PAVLobe@@V?$allocator@PAVLobe@@@std@@@std@@IAEXPAPAVLobe@@IABQAV3@@Z 0040c700 f i Tract.obj
 0001:0000b700       ?_Ufill@?$vector@PAVMusicEffect@@V?$allocator@PAVMusicEffect@@@std@@@std@@IAEXPAPAVMusicEffect@@IABQAV3@@Z 0040c700 f i Tract.obj
 0001:0000b700       ?_Ufill@?$vector@P6AXAAVCAOSMachine@@@ZV?$allocator@P6AXAAVCAOSMachine@@@Z@std@@@std@@IAEXPAP6AXAAVCAOSMachine@@@ZIABQ6AX0@Z@Z 0040c700 f i Tract.obj
 0001:0000b700       ?_Ufill@?$vector@PAVInstinct@@V?$allocator@PAVInstinct@@@std@@@std@@IAEXPAPAVInstinct@@IABQAV3@@Z 0040c700 f i Tract.obj
 0001:0000b700       ?_Ufill@?$vector@PAVMacroScript@@V?$allocator@PAVMacroScript@@@std@@@std@@IAEXPAPAVMacroScript@@IABQAV3@@Z 0040c700 f i Tract.obj
 0001:0000b700       ?_Ufill@?$vector@P6AXAAVCAOSDescription@@@ZV?$allocator@P6AXAAVCAOSDescription@@@Z@std@@@std@@IAEXPAP6AXAAVCAOSDescription@@@ZIABQ6AX0@Z@Z 0040c700 f i Tract.obj
 0001:0000b700       ?_Ufill@?$vector@PAVQueuedSound@MusicLayer@@V?$allocator@PAVQueuedSound@MusicLayer@@@std@@@std@@IAEXPAPAVQueuedSound@MusicLayer@@IABQAV34@@Z 0040c700 f i Tract.obj
 0001:0000b700       ?_Ufill@?$vector@PAUHINSTANCE__@@V?$allocator@PAUHINSTANCE__@@@std@@@std@@IAEXPAPAUHINSTANCE__@@IABQAU3@@Z 0040c700 f i Tract.obj
 0001:0000b730       ?copy@std@@YAPAHPBH0PAH@Z  0040c730 f i Tract.obj
 0001:0000b730       ?copy@std@@YAPAPAVPersistentObject@@PBQAV2@0PAPAV2@@Z 0040c730 f i Tract.obj
 0001:0000b730       ?copy@std@@YAPAHPAH00@Z    0040c730 f i Tract.obj
 0001:0000b730       ?copy@std@@YAPAPAUNeuron@@PAPAU2@00@Z 0040c730 f i Tract.obj
 0001:0000b730       ?copy@std@@YAPAPAMPBQAM0PAPAM@Z 0040c730 f i Tract.obj
 0001:0000b760       ?CreateNewBiochemistry@@YAPAVPersistentObject@@XZ 0040c760 f   Biochemistry.obj
 0001:0000b7f0       ?GetClassNameX@Biochemistry@@UBEPBDXZ 0040c7f0 f   Biochemistry.obj
 0001:0000b800       ??5@YAAAVCreaturesArchive@@AAV0@AAPAVBiochemistry@@@Z 0040c800 f   Biochemistry.obj
 0001:0000b860       ?GetChemical@Biochemistry@@QAEMH@Z 0040c860 f   Biochemistry.obj
 0001:0000b880       ?SetChemical@Biochemistry@@QAEXHM@Z 0040c880 f   Biochemistry.obj
 0001:0000b8e0       ?AddChemical@Biochemistry@@QAEXHM@Z 0040c8e0 f   Biochemistry.obj
 0001:0000b940       ?SubChemical@Biochemistry@@QAEXHM@Z 0040c940 f   Biochemistry.obj
 0001:0000b9a0       ??0Biochemistry@@QAE@XZ    0040c9a0 f   Biochemistry.obj
 0001:0000ba50       ??_GBiochemistry@@UAEPAXI@Z 0040ca50 f i Biochemistry.obj
 0001:0000ba50       ??_EBiochemistry@@UAEPAXI@Z 0040ca50 f i Biochemistry.obj
 0001:0000ba80       ??1Biochemistry@@UAE@XZ    0040ca80 f   Biochemistry.obj
 0001:0000bb10       ?Write@Biochemistry@@UBE_NAAVCreaturesArchive@@@Z 0040cb10 f   Biochemistry.obj
 0001:0000bbe0       ?Read@Biochemistry@@UAE_NAAVCreaturesArchive@@@Z 0040cbe0 f   Biochemistry.obj
 0001:0000bcd0       ?GetInvalidCreatureLocusAddress@Biochemistry@@QAEPAMXZ 0040ccd0 f   Biochemistry.obj
 0001:0000bce0       ?GetCreatureLocusAddress@Biochemistry@@UAEPAMHHHH@Z 0040cce0 f   Biochemistry.obj
 0001:0000bd00       ?ReadFromGenome@Biochemistry@@UAEXAAVGenome@@@Z 0040cd00 f   Biochemistry.obj
 0001:0000c280       ?Update@Biochemistry@@UAEXXZ 0040d280 f   Biochemistry.obj
 0001:0000c370       ?GetOrgan@Biochemistry@@QBEPAVOrgan@@H@Z 0040d370 f   Biochemistry.obj
 0001:0000c3a0       ?DumpAllChemicals@Biochemistry@@UAE_NAAV?$basic_ostream@DU?$char_traits@D@std@@@std@@@Z 0040d3a0 f   Biochemistry.obj
 0001:0000c400       ?UnDumpAllChemicals@Biochemistry@@UAE_NAAV?$basic_istream@DU?$char_traits@D@std@@@std@@@Z 0040d400 f   Biochemistry.obj
 0001:00014b90       ??0TableSpec@@QAE@XZ       00415b90 f i BiochemistryConstants.obj
 0001:00014bb0       ??0TableSpec@@QAE@ABV?$basic_string@DU?$char_traits@D@std@@V?$allocator@D@2@@std@@0000@Z 00415bb0 f i BiochemistryConstants.obj
 0001:00014d80       ?insert@?$vector@V?$basic_string@DU?$char_traits@D@std@@V?$allocator@D@2@@std@@V?$allocator@V?$basic_string@DU?$char_traits@D@std@@V?$allocator@D@2@@std@@@2@@std@@QAEPAV?$basic_string@DU?$char_traits@D@std@@V?$allocator@D@2@@2@PAV32@ABV32@@Z 00415d80 f i BiochemistryConstants.obj
 0001:00014f20       ?_Destroy@?$vector@V?$basic_string@DU?$char_traits@D@std@@V?$allocator@D@2@@std@@V?$allocator@V?$basic_string@DU?$char_traits@D@std@@V?$allocator@D@2@@std@@@2@@std@@IAEXPAV?$basic_string@DU?$char_traits@D@std@@V?$allocator@D@2@@2@0@Z 00415f20 f i BiochemistryConstants.obj
 0001:00014f70       ?insert@?$vector@V?$basic_string@DU?$char_traits@D@std@@V?$allocator@D@2@@std@@V?$allocator@V?$basic_string@DU?$char_traits@D@std@@V?$allocator@D@2@@std@@@2@@std@@QAEXPAV?$basic_string@DU?$char_traits@D@std@@V?$allocator@D@2@@2@IABV32@@Z 00415f70 f i BiochemistryConstants.obj
 0001:00015230       ?_Ufill@?$vector@V?$basic_string@DU?$char_traits@D@std@@V?$allocator@D@2@@std@@V?$allocator@V?$basic_string@DU?$char_traits@D@std@@V?$allocator@D@2@@std@@@2@@std@@IAEXPAV?$basic_string@DU?$char_traits@D@std@@V?$allocator@D@2@@2@IABV32@@Z 00416230 f i BiochemistryConstants.obj
 0001:00015260       ?fill@std@@YAXPAV?$basic_string@DU?$char_traits@D@std@@V?$allocator@D@2@@1@0ABV21@@Z 00416260 f i BiochemistryConstants.obj
 0001:000153c0       ?copy_backward@std@@YAPAV?$basic_string@DU?$char_traits@D@std@@V?$allocator@D@2@@1@PAV21@00@Z 004163c0 f i BiochemistryConstants.obj
 0001:00015530       ??0Emitter@@QAE@XZ         00416530 f   Emitter.obj
 0001:00015550       ??0NeuroEmitter@@QAE@XZ    00416550 f   NeuroEmitter.obj
 0001:00015590       ?Write@NeuroEmitter@@QBE_NAAVCreaturesArchive@@@Z 00416590 f   NeuroEmitter.obj
 0001:00015610       ?Read@NeuroEmitter@@QAE_NAAVCreaturesArchive@@@Z 00416610 f   NeuroEmitter.obj
 0001:00015750       ?CreateNewOrgan@@YAPAVPersistentObject@@XZ 00416750 f   Organ.obj
 0001:000157e0       ?GetClassNameX@Organ@@UBEPBDXZ 004167e0 f   Organ.obj
 0001:000157f0       ??5@YAAAVCreaturesArchive@@AAV0@AAPAVOrgan@@@Z 004167f0 f   Organ.obj
 0001:00015850       ??0Organ@@QAE@XZ           00416850 f   Organ.obj
 0001:00015940       ??_GOrgan@@UAEPAXI@Z       00416940 f i Organ.obj
 0001:00015940       ??_EOrgan@@UAEPAXI@Z       00416940 f i Organ.obj
 0001:00015970       ??_F?$vector@PAUReceptor@@V?$allocator@PAUReceptor@@@std@@@std@@QAEXXZ 00416970 f i Organ.obj
 0001:00015990       ?Init@Organ@@QAEXMMMMM@Z   00416990 f   Organ.obj
 0001:00015a00       ?BindToLoci@Organ@@QAEXXZ  00416a00 f   Organ.obj
 0001:00015af0       ??1Organ@@UAE@XZ           00416af0 f   Organ.obj
 0001:00015bd0       ?Write@Organ@@UBE_NAAVCreaturesArchive@@@Z 00416bd0 f   Organ.obj
 0001:00015e80       ?Read@Organ@@UAE_NAAVCreaturesArchive@@@Z 00416e80 f   Organ.obj
 0001:00016210       ??0Exception@CreaturesArchive@@QAE@ABV01@@Z 00417210 f i Organ.obj
 0001:00016380       ?InitFromGenome@Organ@@QAEXAAVGenome@@@Z 00417380 f   Organ.obj
 0001:00016880       ?Update@Organ@@UAE_NXZ     00417880 f   Organ.obj
 0001:00016950       ?LocToLf@Organ@@QAEMM@Z    00417950 f   Organ.obj
 0001:00016960       ?Injure@Organ@@UAEXM@Z     00417960 f   Organ.obj
 0001:000169a0       ?DecayLifeForce@Organ@@IAEXXZ 004179a0 f   Organ.obj
 0001:000169d0       ?RepairInjury@Organ@@MAE_N_N@Z 004179d0 f   Organ.obj
 0001:00016a50       ?GetLocusAddress@Organ@@UAEPAMHHHH@Z 00417a50 f   Organ.obj
 0001:00016ac0       ?GetLocusAddress@Organ@@UAEPAMHHH@Z 00417ac0 f   Organ.obj
 0001:00016b10       ?ProcessAll@Organ@@IAE_NXZ 00417b10 f   Organ.obj
 0001:00016c30       ?ProcessReceptors@Organ@@IAE_N_N@Z 00417c30 f   Organ.obj
 0001:00016e20       ?ProcessReaction@Organ@@IAE_NH@Z 00417e20 f   Organ.obj
 0001:00016f40       ?InitEnergyCost@Organ@@MAEXXZ 00417f40 f   Organ.obj
 0001:00016f80       ?ConsumeEnergy@Organ@@MAE_NXZ 00417f80 f   Organ.obj
 0001:00017080       ??0Exception@CreaturesArchive@@QAE@PBD@Z 00418080 f i Organ.obj
 0001:00017190       ?CreateNewReceptor@@YAPAVPersistentObject@@XZ 00418190 f   Receptor.obj
 0001:00017220       ?GetClassNameX@Receptor@@UBEPBDXZ 00418220 f   Receptor.obj
 0001:00017230       ??5@YAAAVCreaturesArchive@@AAV0@AAPAUReceptor@@@Z 00418230 f   Receptor.obj
 0001:00017290       ??0Receptor@@QAE@XZ        00418290 f   Receptor.obj
 0001:000172b0       ?Write@Receptor@@UBE_NAAVCreaturesArchive@@@Z 004182b0 f   Receptor.obj
 0001:00017340       ?Read@Receptor@@UAE_NAAVCreaturesArchive@@@Z 00418340 f   Receptor.obj
 0001:000174a0       ?CreateNewBodyPartOverlay@@YAPAVPersistentObject@@XZ 004184a0 f   BodyPartOverlay.obj
 0001:00017530       ?GetClassNameX@BodyPartOverlay@@UBEPBDXZ 00418530 f   BodyPartOverlay.obj
 0001:00017540       ??5@YAAAVCreaturesArchive@@AAV0@AAPAVBodyPartOverlay@@@Z 00418540 f   BodyPartOverlay.obj
 0001:000175a0       ??0BodyPartOverlay@@QAE@XZ 004185a0 f   BodyPartOverlay.obj
 0001:00017600       ??_EBodyPartOverlay@@UAEPAXI@Z 00418600 f i BodyPartOverlay.obj
 0001:00017600       ??_GBodyPartOverlay@@UAEPAXI@Z 00418600 f i BodyPartOverlay.obj
 0001:00017630       ??0BodyPartOverlay@@QAE@PAVBodyPart@@JJJJJ@Z 00418630 f   BodyPartOverlay.obj
 0001:000176b0       ?Init@BodyPartOverlay@@QAEXXZ 004186b0 f   BodyPartOverlay.obj
 0001:000176d0       ?ReloadOverlay@BodyPartOverlay@@QAEXJJJJJ@Z 004186d0 f   BodyPartOverlay.obj
 0001:00017820       ??1BodyPartOverlay@@UAE@XZ 00418820 f   BodyPartOverlay.obj
 0001:00017870       ?SetOverlay@BodyPartOverlay@@QAE_NJJJ@Z 00418870 f   BodyPartOverlay.obj
 0001:000178e0       ?GetOverlay@BodyPartOverlay@@QAEHJ@Z 004188e0 f   BodyPartOverlay.obj
 0001:00017920       ?UpdateOverlay@BodyPartOverlay@@QAE_NJ@Z 00418920 f   BodyPartOverlay.obj
 0001:00017970       ?Write@BodyPartOverlay@@UBE_NAAVCreaturesArchive@@@Z 00418970 f   BodyPartOverlay.obj
 0001:000179c0       ?Read@BodyPartOverlay@@UAE_NAAVCreaturesArchive@@@Z 004189c0 f   BodyPartOverlay.obj
 0001:00017af0       ?PrepareForAgeing@Creature@@UAE_NH@Z 00418af0 f   Creature.obj
 0001:00017bd0       ?TrackIt@Creature@@IAEXXZ  00418bd0 f   Creature.obj
 0001:00017c30       ?RememberThatYouAreBeingTracked@Creature@@QAEX_N@Z 00418c30 f   Creature.obj
 0001:00017c40       ?GetCreatureCount@@YAHXZ   00418c40 f   Creature.obj
 0001:00017c50       ?HandlePickup@Creature@@UAEXPAVMessage@@@Z 00418c50 f   Creature.obj
 0001:00017e40       ?SpeakSentence@Creature@@UAEXAAV?$basic_string@DU?$char_traits@D@std@@V?$allocator@D@2@@std@@@Z 00418e40 f   Creature.obj
 0001:00017f90       ?OwnTrash@Creature@@QAEXXZ 00418f90 f   Creature.obj
 0001:00017fd0       ?Trash@Creature@@UAEXXZ    00418fd0 f   Creature.obj
 0001:00017ff0       ?OwnUpdate@Creature@@QAEXXZ 00418ff0 f   Creature.obj
 0001:000180d0       ?Update@Creature@@UAEXXZ   004190d0 f   Creature.obj
 0001:000180f0       ?GetDriveLevel@Creature@@UAEMH@Z 004190f0 f   Creature.obj
 0001:00018120       ?GetHighestDrive@Creature@@QAEHXZ 00419120 f   Creature.obj
 0001:00018160       ?OwnWrite@Creature@@QBE_NAAVCreaturesArchive@@@Z 00419160 f   Creature.obj
 0001:00018290       ?OwnRead@Creature@@QAE_NAAVCreaturesArchive@@@Z 00419290 f   Creature.obj
 0001:000184b0       ?Write@Creature@@UBE_NAAVCreaturesArchive@@@Z 004194b0 f   Creature.obj
 0001:000184d0       ?Read@Creature@@UAE_NAAVCreaturesArchive@@@Z 004194d0 f   Creature.obj
 0001:00018510       ?SetupDefaults@Creature@@AAEXXZ 00419510 f   Creature.obj
 0001:000187a0       ?Init@Creature@@UAEXXZ     004197a0 f   Creature.obj
 0001:00018a20       ??0Creature@@IAE@XZ        00419a20 f   Creature.obj
 0001:00018ae0       ??_GCreature@@UAEPAXI@Z    00419ae0 f i Creature.obj
 0001:00018ae0       ??_ECreature@@UAEPAXI@Z    00419ae0 f i Creature.obj
 0001:00018b40       ??1Creature@@UAE@XZ        00419b40 f   Creature.obj
 0001:00018c30       ?Construct@Creature@@IAEXHKVAgentHandle@@HHH@Z 00419c30 f   Creature.obj
 0001:00018fc0       ??0Creature@@IAE@HKVAgentHandle@@HHH@Z 00419fc0 f   Creature.obj
 0001:000190b0       ??0Creature@@IAE@HKVAgentHandle@@HHHABVFilePath@@HHH@Z 0041a0b0 f   Creature.obj
 0001:000191b0       ?ReadFromGenome@Creature@@UAE_NXZ 0041a1b0 f   Creature.obj
 0001:000194b0       ?GetLocusAddress@Creature@@UAEPAMHHHH@Z 0041a4b0 f   Creature.obj
 0001:00019680       ?BecomeAZeroedIntegerOnYourNextRead@CAOSVar@@QAEXXZ 0041a680 f i Creature.obj
 0001:00019690       ?GetType@CAOSVar@@QBEHXZ   0041a690 f i Creature.obj
 0001:000196a0       ??0CAOSVar@@QAE@XZ         0041a6a0 f i Creature.obj
 0001:000196c0       ??1VelocityVariable@@QAE@XZ 0041a6c0 f i Creature.obj
 0001:000196c0       ??1CAOSVar@@QAE@XZ         0041a6c0 f i Creature.obj
 0001:00019730       ?GetFloat@CAOSVar@@QAEMXZ  0041a730 f i Creature.obj
 0001:00019770       ?GetInteger@CAOSVar@@QAEHXZ 0041a770 f i Creature.obj
 0001:000197b0       ?GetString@CAOSVar@@QAEXAAV?$basic_string@DU?$char_traits@D@std@@V?$allocator@D@2@@std@@@Z 0041a7b0 f i Creature.obj
 0001:00019950       ?GetAgent@CAOSVar@@QAE?AVAgentHandle@@XZ 0041a950 f i Creature.obj
 0001:000199a0       ?SetInteger@CAOSVar@@QAEXH@Z 0041a9a0 f i Creature.obj
 0001:000199c0       ?SetFloat@CAOSVar@@QAEXM@Z 0041a9c0 f i Creature.obj
 0001:000199e0       ?SetString@CAOSVar@@QAEXABV?$basic_string@DU?$char_traits@D@std@@V?$allocator@D@2@@std@@@Z 0041a9e0 f i Creature.obj
 0001:00019b30       ?SetAgent@CAOSVar@@QAEXVAgentHandle@@@Z 0041ab30 f i Creature.obj
 0001:00019bd0       ??0LifeEvent@@QAE@ABV0@@Z  0041abd0 f i Creature.obj
 0001:00019d80       ??4LifeEvent@@QAEAAV0@ABV0@@Z 0041ad80 f i Creature.obj
 0001:0001a0c0       ??1LifeEvent@@QAE@XZ       0041b0c0 f i Creature.obj
 0001:0001a260       ?GetAsAgentHandle@Agent@@UAE?AVAgentHandle@@XZ 0041b260 f i Creature.obj
 0001:0001a290       ?IsStopped@Agent@@UAE_NXZ  0041b290 f i Creature.obj
 0001:0001a2a0       ?GetClassifier@Agent@@UBEABVClassifier@@XZ 0041b2a0 f i Creature.obj
 0001:0001a2b0       ?SetWhetherHighlighted@Agent@@UAEX_NHHH@Z 0041b2b0 f i Creature.obj
 0001:0001a2d0       ?GetCAIncrease@Agent@@UBEMXZ 0041b2d0 f i Creature.obj
 0001:0001a2e0       ?GetEntityImage@Agent@@UAEPAVEntityImage@@XZ 0041b2e0 f i Creature.obj
 0001:0001a2f0       ?GetCarrier@Agent@@UAE?AVAgentHandle@@XZ 0041b2f0 f i Creature.obj
 0001:0001a320       ?GetCarried@Agent@@UAE?AVAgentHandle@@XZ 0041b320 f i Creature.obj
 0001:0001a350       ?GetVisualRange@Agent@@UBEMXZ 0041b350 f i Creature.obj
 0001:0001a360       ?GetMovementStatus@Agent@@UAEHXZ 0041b360 f i Creature.obj
 0001:0001a370       ?GetPosition@Agent@@UAE?AVVector2D@@XZ 0041b370 f i Creature.obj
 0001:0001a390       ?GetWidth@Agent@@UAEMXZ    0041b390 f i Creature.obj
 0001:0001a3a0       ?GetHeight@Agent@@UAEMXZ   0041b3a0 f i Creature.obj
 0001:0001a3b0       ?GetGenomeStore@Agent@@UAEAAVGenomeStore@@XZ 0041b3b0 f i Creature.obj
 0001:0001a3c0       ?GetFamily@Agent@@UAEKXZ   0041b3c0 f i Creature.obj
 0001:0001a3d0       ?GetGenus@Agent@@UAEKXZ    0041b3d0 f i Creature.obj
 0001:0001a3e0       ?GetSpecies@Agent@@UAEKXZ  0041b3e0 f i Creature.obj
 0001:0001a3f0       ?TestAttributes@Agent@@UAEHH@Z 0041b3f0 f i Creature.obj
 0001:0001a410       ?GetNormalPlane@CompoundAgent@@UAEHH@Z 0041b410 f i Creature.obj
 0001:0001a420       ?SetItAgent@Creature@@UAEXAAVAgentHandle@@@Z 0041b420 f i Creature.obj
 0001:0001a450       ?GetItAgent@Creature@@UBE?AVAgentHandle@@XZ 0041b450 f i Creature.obj
 0001:0001a480       ?SetIntrospective@Creature@@UAEX_N@Z 0041b480 f i Creature.obj
 0001:0001a490       ?IsIntrospective@Creature@@UAE_NXZ 0041b490 f i Creature.obj
 0001:0001a4a0       ?GetMoniker@Creature@@UAE?AV?$basic_string@DU?$char_traits@D@std@@V?$allocator@D@2@@std@@XZ 0041b4a0 f i Creature.obj
 0001:0001a4e0       ?GetShortMoniker@Creature@@UAE?AV?$basic_string@DU?$char_traits@D@std@@V?$allocator@D@2@@std@@XZ 0041b4e0 f i Creature.obj
 0001:0001a5b0       ?GetName@Bitmap@@QAE?AV?$basic_string@DU?$char_traits@D@std@@V?$allocator@D@2@@std@@XZ 0041b5b0 f i Creature.obj
 0001:0001a5b0       ?GetMotherMoniker@Creature@@UBE?AV?$basic_string@DU?$char_traits@D@std@@V?$allocator@D@2@@std@@XZ 0041b5b0 f i Creature.obj
 0001:0001a700       ?GetFatherMoniker@Creature@@UBE?AV?$basic_string@DU?$char_traits@D@std@@V?$allocator@D@2@@std@@XZ 0041b700 f i Creature.obj
 0001:0001a850       ?GetFacialExpression@Creature@@UAEHXZ 0041b850 f i Creature.obj
 0001:0001a850       ?GetDirection@Creature@@UBEHXZ 0041b850 f i Creature.obj
 0001:0001a860       ?GetNosePosition@Creature@@UAE?AVVector2D@@XZ 0041b860 f i Creature.obj
 0001:0001a890       ?GetCreatureRoomID@Creature@@UAE_NAAH@Z 0041b890 f i Creature.obj
 0001:0001a8b0       ?CanReachIt@Creature@@UAE_NXZ 0041b8b0 f i Creature.obj
 0001:0001a950       ?CannotBeMuchCloser@Creature@@UAE_NXZ 0041b950 f i Creature.obj
 0001:0001a980       ?ReachOut@Creature@@UAEHH@Z 0041b980 f i Creature.obj
 0001:0001a9a0       ?MoveFootTo@Creature@@UAEXMM@Z 0041b9a0 f i Creature.obj
 0001:0001a9d0       ?TestMoveFootTo@Creature@@UAE_NMM_N@Z 0041b9d0 f i Creature.obj
 0001:0001aa00       ?GetClothingSet@Creature@@UAEHHH@Z 0041ba00 f i Creature.obj
 0001:0001aa10       ?WearOutfit@Creature@@UAE_NHH@Z 0041ba10 f i Creature.obj
 0001:0001aa20       ?WearItem@Creature@@UAE_NHHH@Z 0041ba20 f i Creature.obj
 0001:0001aa30       ?GetDownFootPosition@Creature@@UAE?AVVector2D@@XZ 0041ba30 f i Creature.obj
 0001:0001aa70       ?GetUpFootPosition@Creature@@UAE?AVVector2D@@XZ 0041ba70 f i Creature.obj
 0001:0001aa70       ?GetMouthMapPosition@Creature@@UAE?AVVector2D@@XZ 0041ba70 f i Creature.obj
 0001:0001aaa0       ?Expressive@Creature@@UAEPAVExpressiveFaculty@@XZ 0041baa0 f i Creature.obj
 0001:0001aab0       ?Linguistic@Creature@@UAEPAVLinguisticFaculty@@XZ 0041bab0 f i Creature.obj
 0001:0001aac0       ?Reproductive@Creature@@UAEPAVReproductiveFaculty@@XZ 0041bac0 f i Creature.obj
 0001:0001aad0       ?Sensory@Creature@@UAEPAVSensoryFaculty@@XZ 0041bad0 f i Creature.obj
 0001:0001aae0       ?Motor@Creature@@UAEPAVMotorFaculty@@XZ 0041bae0 f i Creature.obj
 0001:0001aaf0       ?Life@Creature@@UAEPAVLifeFaculty@@XZ 0041baf0 f i Creature.obj
 0001:0001ab00       ?Music@Creature@@UAEPAVMusicFaculty@@XZ 0041bb00 f i Creature.obj
 0001:0001ab10       ?GetBrain@Creature@@UAEPAVBrain@@XZ 0041bb10 f i Creature.obj
 0001:0001ab20       ?GetBiochemistry@Creature@@UAEPAVBiochemistry@@XZ 0041bb20 f i Creature.obj
 0001:0001ab30       ?GetInvalidLocusAddress@Creature@@UAEPAMXZ 0041bb30 f i Creature.obj
 0001:0001ab40       ?GetMoniker@Genome@@QAE?AV?$basic_string@DU?$char_traits@D@std@@V?$allocator@D@2@@std@@XZ 0041bb40 f i Creature.obj
 0001:0001ac90       ?GetFrom@Message@@QBE?AVCAOSVar@@XZ 0041bc90 f i Creature.obj
 0001:0001acb0       ?Count@CreatureHistory@@QBEHXZ 0041bcb0 f i Creature.obj
 0001:0001ace0       ??0CreatureHistory@@QAE@ABV0@@Z 0041bce0 f i Creature.obj
 0001:0001ae50       ??4CreatureHistory@@QAEAAV0@ABV0@@Z 0041be50 f i Creature.obj
 0001:0001b180       ?size@?$vector@VLifeEvent@@V?$allocator@VLifeEvent@@@std@@@std@@QBEIXZ 0041c180 f i Creature.obj
 0001:0001b1b0       ??1CreatureHistory@@QAE@XZ 0041c1b0 f i Creature.obj
 0001:0001b2b0       ??0HistoryStore@@QAE@XZ    0041c2b0 f i Creature.obj
 0001:0001b350       ?capacity@?$vector@VLifeEvent@@V?$allocator@VLifeEvent@@@std@@@std@@QBEIXZ 0041c350 f i Creature.obj
 0001:0001b380       ??0HistoryStore@@QAE@ABV0@@Z 0041c380 f i Creature.obj
 0001:0001b540       ??4HistoryStore@@QAEAAV0@ABV0@@Z 0041c540 f i Creature.obj
 0001:0001b790       ?_Destroy@?$vector@VLifeEvent@@V?$allocator@VLifeEvent@@@std@@@std@@IAEXPAVLifeEvent@@0@Z 0041c790 f i Creature.obj
 0001:0001b7c0       ??1HistoryStore@@QAE@XZ    0041c7c0 f i Creature.obj
 0001:0001b950       ?_Ucopy@?$vector@VLifeEvent@@V?$allocator@VLifeEvent@@@std@@@std@@IAEPAVLifeEvent@@PBV3@0PAV3@@Z 0041c950 f i Creature.obj
 0001:0001b990       ??1?$map@V?$basic_string@DU?$char_traits@D@std@@V?$allocator@D@2@@std@@VCreatureHistory@@U?$less@V?$basic_string@DU?$char_traits@D@std@@V?$allocator@D@2@@std@@@2@V?$allocator@VCreatureHistory@@@2@@std@@QAE@XZ 0041c990 f i Creature.obj
 0001:0001ba60       ?_Copy@?$_Tree@V?$basic_string@DU?$char_traits@D@std@@V?$allocator@D@2@@std@@U?$pair@$$CBV?$basic_string@DU?$char_traits@D@std@@V?$allocator@D@2@@std@@VCreatureHistory@@@2@U_Kfn@?$map@V?$basic_string@DU?$char_traits@D@std@@V?$allocator@D@2@@std@@VCreatureHistory@@U?$less@V?$basic_string@DU?$char_traits@D@std@@V?$allocator@D@2@@std@@@2@V?$allocator@VCreatureHistory@@@2@@2@U?$less@V?$basic_string@DU?$char_traits@D@std@@V?$allocator@D@2@@std@@@2@V?$allocator@VCreatureHistory@@@2@@std@@IAEXABV12@@Z 0041ca60 f i Creature.obj
 0001:0001bb60       ??0Configurator@@QAE@ABV0@@Z 0041cb60 f i Creature.obj
 0001:0001bcf0       ??4Configurator@@QAEAAV0@ABV0@@Z 0041ccf0 f i Creature.obj
 0001:0001bf00       ??1?$map@V?$basic_string@DU?$char_traits@D@std@@V?$allocator@D@2@@std@@V12@U?$less@V?$basic_string@DU?$char_traits@D@std@@V?$allocator@D@2@@std@@@2@V?$allocator@V?$basic_string@DU?$char_traits@D@std@@V?$allocator@D@2@@std@@@2@@std@@QAE@XZ 0041cf00 f i Creature.obj
 0001:0001bfd0       ??0Configurator@@QAE@XZ    0041cfd0 f i Creature.obj
 0001:0001c050       ??1Configurator@@QAE@XZ    0041d050 f i Creature.obj
 0001:0001c150       ?Exists@Configurator@@QBE_NABV?$basic_string@DU?$char_traits@D@std@@V?$allocator@D@2@@std@@@Z 0041d150 f i Creature.obj
 0001:0001c1b0       ?DisplaySettingsErrorNextTick@App@@QAEXXZ 0041d1b0 f i Creature.obj
 0001:0001c1c0       ?GetLinePlane@App@@QAEHXZ  0041d1c0 f i Creature.obj
 0001:0001c1d0       ?GetCreaturePickupStatus@App@@QAEHXZ 0041d1d0 f i Creature.obj
 0001:0001c1e0       ?ShouldSkeletonsAnimateDoubleSpeed@App@@QAE_NXZ 0041d1e0 f i Creature.obj
 0001:0001c1f0       ?ShouldSkeletonsAnimateDoubleSpeed@App@@QAEX_N@Z 0041d1f0 f i Creature.obj
 0001:0001c200       ?ShouldHighlightAgentsKnownToCreature@App@@QAE_NXZ 0041d200 f i Creature.obj
 0001:0001c210       ?SetWhetherWeShouldHighlightAgentsKnownToCreature@App@@QAEX_N@Z 0041d210 f i Creature.obj
 0001:0001c220       ?SetWhichCreaturePermissionToHighlight@App@@QAEXH@Z 0041d220 f i Creature.obj
 0001:0001c230       ?GetWhichCreaturePermissionToHighlight@App@@QAEHXZ 0041d230 f i Creature.obj
 0001:0001c240       ?GetMaximumDistanceBeforePortLineWarns@App@@QAEMXZ 0041d240 f i Creature.obj
 0001:0001c250       ?GetMaximumDistanceBeforePortLineSnaps@App@@QAEMXZ 0041d250 f i Creature.obj
 0001:0001c260       ?GetWorld@App@@QAEAAVWorld@@XZ 0041d260 f i Creature.obj
 0001:0001c270       ?GetInputManager@App@@QAEAAVInputManager@@XZ 0041d270 f i Creature.obj
 0001:0001c280       ?GetGameName@App@@QAE?AV?$basic_string@DU?$char_traits@D@std@@V?$allocator@D@2@@std@@XZ 0041d280 f i Creature.obj
 0001:0001c3d0       ?SetGameName@App@@QAEXABV?$basic_string@DU?$char_traits@D@std@@V?$allocator@D@2@@std@@@Z 0041d3d0 f i Creature.obj
 0001:0001c530       ?DoYouOnlyPlayMidiMusic@App@@QAE_NXZ 0041d530 f i Creature.obj
 0001:0001c540       ?PlayAllSoundsAtMaximumLevel@App@@QAE_NXZ 0041d540 f i Creature.obj
 0001:0001c550       ?ToggleMidi@App@@QAEXXZ    0041d550 f i Creature.obj
 0001:0001c570       ?GetSystemTick@App@@QBEKXZ 0041d570 f i Creature.obj
 0001:0001c580       ?GetFastestTicks@App@@QBE_NXZ 0041d580 f i Creature.obj
 0001:0001c590       ?GetLastTickGap@App@@QBEHXZ 0041d590 f i Creature.obj
 0001:0001c5a0       ?AutoKillAgentsOnError@App@@QBE_NXZ 0041d5a0 f i Creature.obj
 0001:0001c5b0       ?UserSettings@App@@QAEAAVConfigurator@@XZ 0041d5b0 f i Creature.obj
 0001:0001c5c0       ?MachineSettings@App@@QAEAAVConfigurator@@XZ 0041d5c0 f i Creature.obj
 0001:0001c5d0       ??0App@@QAE@ABV0@@Z        0041d5d0 f i Creature.obj
 0001:0001ca00       ??0?$vector@UInputEvent@@V?$allocator@UInputEvent@@@std@@@std@@QAE@ABV01@@Z 0041da00 f i Creature.obj
 0001:0001ca90       ??0?$_Tree@V?$basic_string@DU?$char_traits@D@std@@V?$allocator@D@2@@std@@U?$pair@$$CBV?$basic_string@DU?$char_traits@D@std@@V?$allocator@D@2@@std@@V12@@2@U_Kfn@?$map@V?$basic_string@DU?$char_traits@D@std@@V?$allocator@D@2@@std@@V12@U?$less@V?$basic_string@DU?$char_traits@D@std@@V?$allocator@D@2@@std@@@2@V?$allocator@V?$basic_string@DU?$char_traits@D@std@@V?$allocator@D@2@@std@@@2@@2@U?$less@V?$basic_string@DU?$char_traits@D@std@@V?$allocator@D@2@@std@@@2@V?$allocator@V?$basic_string@DU?$char_traits@D@std@@V?$allocator@D@2@@std@@@2@@std@@QAE@ABV01@@Z 0041da90 f i Creature.obj
 0001:0001cbe0       ?_Copy@?$_Tree@V?$basic_string@DU?$char_traits@D@std@@V?$allocator@D@2@@std@@U?$pair@$$CBV?$basic_string@DU?$char_traits@D@std@@V?$allocator@D@2@@std@@VCAOSVar@@@2@U_Kfn@?$map@V?$basic_string@DU?$char_traits@D@std@@V?$allocator@D@2@@std@@VCAOSVar@@U?$less@V?$basic_string@DU?$char_traits@D@std@@V?$allocator@D@2@@std@@@2@V?$allocator@VCAOSVar@@@2@@2@U?$less@V?$basic_string@DU?$char_traits@D@std@@V?$allocator@D@2@@std@@@2@V?$allocator@VCAOSVar@@@2@@std@@IAEXABV12@@Z 0041dbe0 f i Creature.obj
 0001:0001cce0       ?_Init@?$_Tree@V?$basic_string@DU?$char_traits@D@std@@V?$allocator@D@2@@std@@U?$pair@$$CBV?$basic_string@DU?$char_traits@D@std@@V?$allocator@D@2@@std@@VCAOSVar@@@2@U_Kfn@?$map@V?$basic_string@DU?$char_traits@D@std@@V?$allocator@D@2@@std@@VCAOSVar@@U?$less@V?$basic_string@DU?$char_traits@D@std@@V?$allocator@D@2@@std@@@2@V?$allocator@VCAOSVar@@@2@@2@U?$less@V?$basic_string@DU?$char_traits@D@std@@V?$allocator@D@2@@std@@@2@V?$allocator@VCAOSVar@@@2@@std@@IAEXXZ 0041dce0 f i Creature.obj
 0001:0001cce0       ?_Init@?$_Tree@V?$basic_string@DU?$char_traits@D@std@@V?$allocator@D@2@@std@@U?$pair@$$CBV?$basic_string@DU?$char_traits@D@std@@V?$allocator@D@2@@std@@U?$pair@HV?$basic_string@DU?$char_traits@D@std@@V?$allocator@D@2@@std@@@2@@2@U_Kfn@?$map@V?$basic_string@DU?$char_traits@D@std@@V?$allocator@D@2@@std@@U?$pair@HV?$basic_string@DU?$char_traits@D@std@@V?$allocator@D@2@@std@@@2@U?$less@V?$basic_string@DU?$char_traits@D@std@@V?$allocator@D@2@@std@@@2@V?$allocator@U?$pair@HV?$basic_string@DU?$char_traits@D@std@@V?$allocator@D@2@@std@@@std@@@2@@2@U?$less@V?$basic_string@DU?$char_traits@D@std@@V?$allocator@D@2@@std@@@2@V?$allocator@U?$pair@HV?$basic_string@DU?$char_traits@D@std@@V?$allocator@D@2@@std@@@std@@@2@@std@@IAEXXZ 0041dce0 f i Creature.obj
 0001:0001cce0       ?_Init@?$_Tree@V?$basic_string@DU?$char_traits@D@std@@V?$allocator@D@2@@std@@U?$pair@$$CBV?$basic_string@DU?$char_traits@D@std@@V?$allocator@D@2@@std@@U?$pair@V?$basic_string@DU?$char_traits@D@std@@V?$allocator@D@2@@std@@H@2@@2@U_Kfn@?$map@V?$basic_string@DU?$char_traits@D@std@@V?$allocator@D@2@@std@@U?$pair@V?$basic_string@DU?$char_traits@D@std@@V?$allocator@D@2@@std@@H@2@U?$less@V?$basic_string@DU?$char_traits@D@std@@V?$allocator@D@2@@std@@@2@V?$allocator@U?$pair@V?$basic_string@DU?$char_traits@D@std@@V?$allocator@D@2@@std@@H@std@@@2@@2@U?$less@V?$basic_string@DU?$char_traits@D@std@@V?$allocator@D@2@@std@@@2@V?$allocator@U?$pair@V?$basic_string@DU?$char_traits@D@std@@V?$allocator@D@2@@std@@H@std@@@2@@std@@IAEXXZ 0041dce0 f i Creature.obj
 0001:0001cd40       ??4App@@QAEAAV0@ABV0@@Z    0041dd40 f i Creature.obj
 0001:0001d2a0       ??4?$vector@UInputEvent@@V?$allocator@UInputEvent@@@std@@@std@@QAEAAV01@ABV01@@Z 0041e2a0 f i Creature.obj
 0001:0001d2a0       ??4?$vector@VMutableVariables@QuickFsp@@V?$allocator@VMutableVariables@QuickFsp@@@std@@@std@@QAEAAV01@ABV01@@Z 0041e2a0 f i Creature.obj
 0001:0001d4a0       ?erase@?$_Tree@V?$basic_string@DU?$char_traits@D@std@@V?$allocator@D@2@@std@@U?$pair@$$CBV?$basic_string@DU?$char_traits@D@std@@V?$allocator@D@2@@std@@VCAOSVar@@@2@U_Kfn@?$map@V?$basic_string@DU?$char_traits@D@std@@V?$allocator@D@2@@std@@VCAOSVar@@U?$less@V?$basic_string@DU?$char_traits@D@std@@V?$allocator@D@2@@std@@@2@V?$allocator@VCAOSVar@@@2@@2@U?$less@V?$basic_string@DU?$char_traits@D@std@@V?$allocator@D@2@@std@@@2@V?$allocator@VCAOSVar@@@2@@std@@QAE?AViterator@12@V312@0@Z 0041e4a0 f i Creature.obj
 0001:0001d550       ??4?$_Tree@V?$basic_string@DU?$char_traits@D@std@@V?$allocator@D@2@@std@@U?$pair@$$CBV?$basic_string@DU?$char_traits@D@std@@V?$allocator@D@2@@std@@V12@@2@U_Kfn@?$map@V?$basic_string@DU?$char_traits@D@std@@V?$allocator@D@2@@std@@V12@U?$less@V?$basic_string@DU?$char_traits@D@std@@V?$allocator@D@2@@std@@@2@V?$allocator@V?$basic_string@DU?$char_traits@D@std@@V?$allocator@D@2@@std@@@2@@2@U?$less@V?$basic_string@DU?$char_traits@D@std@@V?$allocator@D@2@@std@@@2@V?$allocator@V?$basic_string@DU?$char_traits@D@std@@V?$allocator@D@2@@std@@@2@@std@@QAEAAV01@ABV01@@Z 0041e550 f i Creature.obj
 0001:0001d6e0       ?_Copy@?$_Tree@V?$basic_string@DU?$char_traits@D@std@@V?$allocator@D@2@@std@@U?$pair@$$CBV?$basic_string@DU?$char_traits@D@std@@V?$allocator@D@2@@std@@V12@@2@U_Kfn@?$map@V?$basic_string@DU?$char_traits@D@std@@V?$allocator@D@2@@std@@V12@U?$less@V?$basic_string@DU?$char_traits@D@std@@V?$allocator@D@2@@std@@@2@V?$allocator@V?$basic_string@DU?$char_traits@D@std@@V?$allocator@D@2@@std@@@2@@2@U?$less@V?$basic_string@DU?$char_traits@D@std@@V?$allocator@D@2@@std@@@2@V?$allocator@V?$basic_string@DU?$char_traits@D@std@@V?$allocator@D@2@@std@@@2@@std@@IAEXABV12@@Z 0041e6e0 f i Creature.obj
 0001:0001d7e0       ?_Ucopy@?$vector@EV?$allocator@E@std@@@std@@IAEPAEPBE0PAE@Z 0041e7e0 f i Creature.obj
 0001:0001d810       ??1InputManager@@QAE@XZ    0041e810 f i Creature.obj
 0001:0001d870       ?erase@?$_Tree@V?$basic_string@DU?$char_traits@D@std@@V?$allocator@D@2@@std@@U?$pair@$$CBV?$basic_string@DU?$char_traits@D@std@@V?$allocator@D@2@@std@@VCreatureHistory@@@2@U_Kfn@?$map@V?$basic_string@DU?$char_traits@D@std@@V?$allocator@D@2@@std@@VCreatureHistory@@U?$less@V?$basic_string@DU?$char_traits@D@std@@V?$allocator@D@2@@std@@@2@V?$allocator@VCreatureHistory@@@2@@2@U?$less@V?$basic_string@DU?$char_traits@D@std@@V?$allocator@D@2@@std@@@2@V?$allocator@VCreatureHistory@@@2@@std@@QAE?AViterator@12@V312@@Z 0041e870 f i Creature.obj
 0001:0001dc40       ?_Copy@?$_Tree@V?$basic_string@DU?$char_traits@D@std@@V?$allocator@D@2@@std@@U?$pair@$$CBV?$basic_string@DU?$char_traits@D@std@@V?$allocator@D@2@@std@@VCreatureHistory@@@2@U_Kfn@?$map@V?$basic_string@DU?$char_traits@D@std@@V?$allocator@D@2@@std@@VCreatureHistory@@U?$less@V?$basic_string@DU?$char_traits@D@std@@V?$allocator@D@2@@std@@@2@V?$allocator@VCreatureHistory@@@2@@2@U?$less@V?$basic_string@DU?$char_traits@D@std@@V?$allocator@D@2@@std@@@2@V?$allocator@VCreatureHistory@@@2@@std@@IAEPAU_Node@12@PAU312@0@Z 0041ec40 f i Creature.obj
 0001:0001dcd0       ?_Erase@?$_Tree@V?$basic_string@DU?$char_traits@D@std@@V?$allocator@D@2@@std@@U?$pair@$$CBV?$basic_string@DU?$char_traits@D@std@@V?$allocator@D@2@@std@@VCreatureHistory@@@2@U_Kfn@?$map@V?$basic_string@DU?$char_traits@D@std@@V?$allocator@D@2@@std@@VCreatureHistory@@U?$less@V?$basic_string@DU?$char_traits@D@std@@V?$allocator@D@2@@std@@@2@V?$allocator@VCreatureHistory@@@2@@2@U?$less@V?$basic_string@DU?$char_traits@D@std@@V?$allocator@D@2@@std@@@2@V?$allocator@VCreatureHistory@@@2@@std@@IAEXPAU_Node@12@@Z 0041ecd0 f i Creature.obj
 0001:0001dd20       ??Eiterator@?$_Tree@V?$basic_string@DU?$char_traits@D@std@@V?$allocator@D@2@@std@@U?$pair@$$CBV?$basic_string@DU?$char_traits@D@std@@V?$allocator@D@2@@std@@VCreatureHistory@@@2@U_Kfn@?$map@V?$basic_string@DU?$char_traits@D@std@@V?$allocator@D@2@@std@@VCreatureHistory@@U?$less@V?$basic_string@DU?$char_traits@D@std@@V?$allocator@D@2@@std@@@2@V?$allocator@VCreatureHistory@@@2@@2@U?$less@V?$basic_string@DU?$char_traits@D@std@@V?$allocator@D@2@@std@@@2@V?$allocator@VCreatureHistory@@@2@@std@@QAE?AV012@H@Z 0041ed20 f i Creature.obj
 0001:0001dd80       ?erase@?$_Tree@V?$basic_string@DU?$char_traits@D@std@@V?$allocator@D@2@@std@@U?$pair@$$CBV?$basic_string@DU?$char_traits@D@std@@V?$allocator@D@2@@std@@VCAOSVar@@@2@U_Kfn@?$map@V?$basic_string@DU?$char_traits@D@std@@V?$allocator@D@2@@std@@VCAOSVar@@U?$less@V?$basic_string@DU?$char_traits@D@std@@V?$allocator@D@2@@std@@@2@V?$allocator@VCAOSVar@@@2@@2@U?$less@V?$basic_string@DU?$char_traits@D@std@@V?$allocator@D@2@@std@@@2@V?$allocator@VCAOSVar@@@2@@std@@QAE?AViterator@12@V312@@Z 0041ed80 f i Creature.obj
 0001:0001e150       ?_Copy@?$_Tree@V?$basic_string@DU?$char_traits@D@std@@V?$allocator@D@2@@std@@U?$pair@$$CBV?$basic_string@DU?$char_traits@D@std@@V?$allocator@D@2@@std@@VCAOSVar@@@2@U_Kfn@?$map@V?$basic_string@DU?$char_traits@D@std@@V?$allocator@D@2@@std@@VCAOSVar@@U?$less@V?$basic_string@DU?$char_traits@D@std@@V?$allocator@D@2@@std@@@2@V?$allocator@VCAOSVar@@@2@@2@U?$less@V?$basic_string@DU?$char_traits@D@std@@V?$allocator@D@2@@std@@@2@V?$allocator@VCAOSVar@@@2@@std@@IAEPAU_Node@12@PAU312@0@Z 0041f150 f i Creature.obj
 0001:0001e1e0       ?_Erase@?$_Tree@V?$basic_string@DU?$char_traits@D@std@@V?$allocator@D@2@@std@@U?$pair@$$CBV?$basic_string@DU?$char_traits@D@std@@V?$allocator@D@2@@std@@VCAOSVar@@@2@U_Kfn@?$map@V?$basic_string@DU?$char_traits@D@std@@V?$allocator@D@2@@std@@VCAOSVar@@U?$less@V?$basic_string@DU?$char_traits@D@std@@V?$allocator@D@2@@std@@@2@V?$allocator@VCAOSVar@@@2@@2@U?$less@V?$basic_string@DU?$char_traits@D@std@@V?$allocator@D@2@@std@@@2@V?$allocator@VCAOSVar@@@2@@std@@IAEXPAU_Node@12@@Z 0041f1e0 f i Creature.obj
 0001:0001e230       ?erase@?$_Tree@V?$basic_string@DU?$char_traits@D@std@@V?$allocator@D@2@@std@@U?$pair@$$CBV?$basic_string@DU?$char_traits@D@std@@V?$allocator@D@2@@std@@V12@@2@U_Kfn@?$multimap@V?$basic_string@DU?$char_traits@D@std@@V?$allocator@D@2@@std@@V12@U?$less@V?$basic_string@DU?$char_traits@D@std@@V?$allocator@D@2@@std@@@2@V?$allocator@V?$basic_string@DU?$char_traits@D@std@@V?$allocator@D@2@@std@@@2@@2@U?$less@V?$basic_string@DU?$char_traits@D@std@@V?$allocator@D@2@@std@@@2@V?$allocator@V?$basic_string@DU?$char_traits@D@std@@V?$allocator@D@2@@std@@@2@@std@@QAE?AViterator@12@V312@@Z 0041f230 f i Creature.obj
 0001:0001e230       ?erase@?$_Tree@V?$basic_string@DU?$char_traits@D@std@@V?$allocator@D@2@@std@@U?$pair@$$CBV?$basic_string@DU?$char_traits@D@std@@V?$allocator@D@2@@std@@V12@@2@U_Kfn@?$map@V?$basic_string@DU?$char_traits@D@std@@V?$allocator@D@2@@std@@V12@U?$less@V?$basic_string@DU?$char_traits@D@std@@V?$allocator@D@2@@std@@@2@V?$allocator@V?$basic_string@DU?$char_traits@D@std@@V?$allocator@D@2@@std@@@2@@2@U?$less@V?$basic_string@DU?$char_traits@D@std@@V?$allocator@D@2@@std@@@2@V?$allocator@V?$basic_string@DU?$char_traits@D@std@@V?$allocator@D@2@@std@@@2@@std@@QAE?AViterator@12@V312@@Z 0041f230 f i Creature.obj
 0001:0001e600       ?_Copy@?$_Tree@V?$basic_string@DU?$char_traits@D@std@@V?$allocator@D@2@@std@@U?$pair@$$CBV?$basic_string@DU?$char_traits@D@std@@V?$allocator@D@2@@std@@V12@@2@U_Kfn@?$map@V?$basic_string@DU?$char_traits@D@std@@V?$allocator@D@2@@std@@V12@U?$less@V?$basic_string@DU?$char_traits@D@std@@V?$allocator@D@2@@std@@@2@V?$allocator@V?$basic_string@DU?$char_traits@D@std@@V?$allocator@D@2@@std@@@2@@2@U?$less@V?$basic_string@DU?$char_traits@D@std@@V?$allocator@D@2@@std@@@2@V?$allocator@V?$basic_string@DU?$char_traits@D@std@@V?$allocator@D@2@@std@@@2@@std@@IAEPAU_Node@12@PAU312@0@Z 0041f600 f i Creature.obj
 0001:0001e690       ?_Erase@?$_Tree@V?$basic_string@DU?$char_traits@D@std@@V?$allocator@D@2@@std@@U?$pair@$$CBV?$basic_string@DU?$char_traits@D@std@@V?$allocator@D@2@@std@@V12@@2@U_Kfn@?$map@V?$basic_string@DU?$char_traits@D@std@@V?$allocator@D@2@@std@@V12@U?$less@V?$basic_string@DU?$char_traits@D@std@@V?$allocator@D@2@@std@@@2@V?$allocator@V?$basic_string@DU?$char_traits@D@std@@V?$allocator@D@2@@std@@@2@@2@U?$less@V?$basic_string@DU?$char_traits@D@std@@V?$allocator@D@2@@std@@@2@V?$allocator@V?$basic_string@DU?$char_traits@D@std@@V?$allocator@D@2@@std@@@2@@std@@IAEXPAU_Node@12@@Z 0041f690 f i Creature.obj
 0001:0001e6e0       ??Eiterator@?$_Tree@V?$basic_string@DU?$char_traits@D@std@@V?$allocator@D@2@@std@@U?$pair@$$CBV?$basic_string@DU?$char_traits@D@std@@V?$allocator@D@2@@std@@V12@@2@U_Kfn@?$map@V?$basic_string@DU?$char_traits@D@std@@V?$allocator@D@2@@std@@V12@U?$less@V?$basic_string@DU?$char_traits@D@std@@V?$allocator@D@2@@std@@@2@V?$allocator@V?$basic_string@DU?$char_traits@D@std@@V?$allocator@D@2@@std@@@2@@2@U?$less@V?$basic_string@DU?$char_traits@D@std@@V?$allocator@D@2@@std@@@2@V?$allocator@V?$basic_string@DU?$char_traits@D@std@@V?$allocator@D@2@@std@@@2@@std@@QAE?AV012@H@Z 0041f6e0 f i Creature.obj
 0001:0001e740       ?_Inc@iterator@?$_Tree@V?$basic_string@DU?$char_traits@D@std@@V?$allocator@D@2@@std@@U?$pair@$$CBV?$basic_string@DU?$char_traits@D@std@@V?$allocator@D@2@@std@@VCreatureHistory@@@2@U_Kfn@?$map@V?$basic_string@DU?$char_traits@D@std@@V?$allocator@D@2@@std@@VCreatureHistory@@U?$less@V?$basic_string@DU?$char_traits@D@std@@V?$allocator@D@2@@std@@@2@V?$allocator@VCreatureHistory@@@2@@2@U?$less@V?$basic_string@DU?$char_traits@D@std@@V?$allocator@D@2@@std@@@2@V?$allocator@VCreatureHistory@@@2@@std@@QAEXXZ 0041f740 f i Creature.obj
 0001:0001e790       ?_Inc@iterator@?$_Tree@V?$basic_string@DU?$char_traits@D@std@@V?$allocator@D@2@@std@@U?$pair@$$CBV?$basic_string@DU?$char_traits@D@std@@V?$allocator@D@2@@std@@VCAOSVar@@@2@U_Kfn@?$map@V?$basic_string@DU?$char_traits@D@std@@V?$allocator@D@2@@std@@VCAOSVar@@U?$less@V?$basic_string@DU?$char_traits@D@std@@V?$allocator@D@2@@std@@@2@V?$allocator@VCAOSVar@@@2@@2@U?$less@V?$basic_string@DU?$char_traits@D@std@@V?$allocator@D@2@@std@@@2@V?$allocator@VCAOSVar@@@2@@std@@QAEXXZ 0041f790 f i Creature.obj
 0001:0001e790       ?_Inc@iterator@?$_Tree@V?$basic_string@DU?$char_traits@D@std@@V?$allocator@D@2@@std@@U?$pair@$$CBV?$basic_string@DU?$char_traits@D@std@@V?$allocator@D@2@@std@@U?$pair@HV?$basic_string@DU?$char_traits@D@std@@V?$allocator@D@2@@std@@@2@@2@U_Kfn@?$map@V?$basic_string@DU?$char_traits@D@std@@V?$allocator@D@2@@std@@U?$pair@HV?$basic_string@DU?$char_traits@D@std@@V?$allocator@D@2@@std@@@2@U?$less@V?$basic_string@DU?$char_traits@D@std@@V?$allocator@D@2@@std@@@2@V?$allocator@U?$pair@HV?$basic_string@DU?$char_traits@D@std@@V?$allocator@D@2@@std@@@std@@@2@@2@U?$less@V?$basic_string@DU?$char_traits@D@std@@V?$allocator@D@2@@std@@@2@V?$allocator@U?$pair@HV?$basic_string@DU?$char_traits@D@std@@V?$allocator@D@2@@std@@@std@@@2@@std@@QAEXXZ 0041f790 f i Creature.obj
 0001:0001e790       ?_Inc@iterator@?$_Tree@V?$basic_string@DU?$char_traits@D@std@@V?$allocator@D@2@@std@@U?$pair@$$CBV?$basic_string@DU?$char_traits@D@std@@V?$allocator@D@2@@std@@U?$pair@V?$basic_string@DU?$char_traits@D@std@@V?$allocator@D@2@@std@@H@2@@2@U_Kfn@?$map@V?$basic_string@DU?$char_traits@D@std@@V?$allocator@D@2@@std@@U?$pair@V?$basic_string@DU?$char_traits@D@std@@V?$allocator@D@2@@std@@H@2@U?$less@V?$basic_string@DU?$char_traits@D@std@@V?$allocator@D@2@@std@@@2@V?$allocator@U?$pair@V?$basic_string@DU?$char_traits@D@std@@V?$allocator@D@2@@std@@H@std@@@2@@2@U?$less@V?$basic_string@DU?$char_traits@D@std@@V?$allocator@D@2@@std@@@2@V?$allocator@U?$pair@V?$basic_string@DU?$char_traits@D@std@@V?$allocator@D@2@@std@@H@std@@@2@@std@@QAEXXZ 0041f790 f i Creature.obj
 0001:0001e7e0       ?_Inc@iterator@?$_Tree@V?$basic_string@DU?$char_traits@D@std@@V?$allocator@D@2@@std@@U?$pair@$$CBV?$basic_string@DU?$char_traits@D@std@@V?$allocator@D@2@@std@@V12@@2@U_Kfn@?$multimap@V?$basic_string@DU?$char_traits@D@std@@V?$allocator@D@2@@std@@V12@U?$less@V?$basic_string@DU?$char_traits@D@std@@V?$allocator@D@2@@std@@@2@V?$allocator@V?$basic_string@DU?$char_traits@D@std@@V?$allocator@D@2@@std@@@2@@2@U?$less@V?$basic_string@DU?$char_traits@D@std@@V?$allocator@D@2@@std@@@2@V?$allocator@V?$basic_string@DU?$char_traits@D@std@@V?$allocator@D@2@@std@@@2@@std@@QAEXXZ 0041f7e0 f i Creature.obj
 0001:0001e7e0       ?_Inc@iterator@?$_Tree@V?$basic_string@DU?$char_traits@D@std@@V?$allocator@D@2@@std@@U?$pair@$$CBV?$basic_string@DU?$char_traits@D@std@@V?$allocator@D@2@@std@@V12@@2@U_Kfn@?$map@V?$basic_string@DU?$char_traits@D@std@@V?$allocator@D@2@@std@@V12@U?$less@V?$basic_string@DU?$char_traits@D@std@@V?$allocator@D@2@@std@@@2@V?$allocator@V?$basic_string@DU?$char_traits@D@std@@V?$allocator@D@2@@std@@@2@@2@U?$less@V?$basic_string@DU?$char_traits@D@std@@V?$allocator@D@2@@std@@@2@V?$allocator@V?$basic_string@DU?$char_traits@D@std@@V?$allocator@D@2@@std@@@2@@std@@QAEXXZ 0041f7e0 f i Creature.obj
 0001:0001e830       ?copy@std@@YAPAVLifeEvent@@PBV2@0PAV2@@Z 0041f830 f i Creature.obj
 0001:0001eae0       ?copy@std@@YAPAEPBE0PAE@Z  0041fae0 f i Creature.obj
 0001:0001eb00       ?_Construct@std@@YAXPAVLifeEvent@@ABV2@@Z 0041fb00 f i Creature.obj
 0001:0001ecd0       ?_Construct@std@@YAXPAU?$pair@$$CBV?$basic_string@DU?$char_traits@D@std@@V?$allocator@D@2@@std@@VCreatureHistory@@@1@ABU21@@Z 0041fcd0 f i Creature.obj
 0001:0001ee60       ?_Construct@std@@YAXPAU?$pair@$$CBV?$basic_string@DU?$char_traits@D@std@@V?$allocator@D@2@@std@@VCAOSVar@@@1@ABU21@@Z 0041fe60 f i Creature.obj
 0001:0001efd0       ?_Construct@std@@YAXPAU?$pair@$$CBV?$basic_string@DU?$char_traits@D@std@@V?$allocator@D@2@@std@@V12@@1@ABU21@@Z 0041ffd0 f i Creature.obj
 0001:0001f120       ??_GLifeEvent@@QAEPAXI@Z   00420120 f i Creature.obj
 0001:0001f150       ??_G?$pair@$$CBV?$basic_string@DU?$char_traits@D@std@@V?$allocator@D@2@@std@@VCreatureHistory@@@std@@QAEPAXI@Z 00420150 f i Creature.obj
 0001:0001f180       ??1?$pair@$$CBV?$basic_string@DU?$char_traits@D@std@@V?$allocator@D@2@@std@@VCreatureHistory@@@std@@QAE@XZ 00420180 f i Creature.obj
 0001:0001f290       ??1?$pair@$$CBV?$basic_string@DU?$char_traits@D@std@@V?$allocator@D@2@@std@@VCAOSVar@@@std@@QAE@XZ 00420290 f i Creature.obj
 0001:0001f350       ??1?$pair@$$CBV?$basic_string@DU?$char_traits@D@std@@V?$allocator@D@2@@std@@U?$pair@V?$basic_string@DU?$char_traits@D@std@@V?$allocator@D@2@@std@@H@2@@std@@QAE@XZ 00420350 f i Creature.obj
 0001:0001f350       ??1?$pair@V?$basic_string@DU?$char_traits@D@std@@V?$allocator@D@2@@std@@V12@@std@@QAE@XZ 00420350 f i Creature.obj
 0001:0001f350       ??1ErrorDialog@@QAE@XZ     00420350 f i Creature.obj
 0001:0001f350       ??1Vocab@@QAE@XZ           00420350 f i Creature.obj
 0001:0001f350       ??1?$pair@$$CBV?$basic_string@DU?$char_traits@D@std@@V?$allocator@D@2@@std@@V12@@std@@QAE@XZ 00420350 f i Creature.obj
 0001:0001f3c0       ?CreateNewCreatureAgent@@YAPAVPersistentObject@@XZ 004203c0 f   CreatureAgent.obj
 0001:0001f450       ?GetClassNameX@CreatureAgent@@UBEPBDXZ 00420450 f   CreatureAgent.obj
 0001:0001f460       ?CanSee@CreatureAgent@@UAE_NABVAgentHandle@@@Z 00420460 f   CreatureAgent.obj
 0001:0001f590       ?Approach@CreatureAgent@@UAE_N_N@Z 00420590 f   CreatureAgent.obj
 0001:0001f8b0       ?GetBodyPartFileName@CreatureAgent@@UAEXHAAV?$basic_string@DU?$char_traits@D@std@@V?$allocator@D@2@@std@@@Z 004208b0 f   CreatureAgent.obj
 0001:0001fb30       ?SetAnim@CreatureAgent@@UAE_NPBEHH@Z 00420b30 f   CreatureAgent.obj
 0001:0001fba0       ?ShowPose@CreatureAgent@@UAE_NHH@Z 00420ba0 f   CreatureAgent.obj
 0001:0001fc40       ??0CreatureAgent@@QAE@XZ   00420c40 f   CreatureAgent.obj
 0001:0001fc70       ??_ECreatureAgent@@UAEPAXI@Z 00420c70 f i CreatureAgent.obj
 0001:0001fc70       ??_GCreatureAgent@@UAEPAXI@Z 00420c70 f i CreatureAgent.obj
 0001:0001fca0       ??1CreatureAgent@@UAE@XZ   00420ca0 f   CreatureAgent.obj
 0001:0001fcc0       ??0CreatureAgent@@QAE@HKVAgentHandle@@HHHABVFilePath@@HHH@Z 00420cc0 f   CreatureAgent.obj
 0001:0001fef0       ?Trash@CreatureAgent@@UAEXXZ 00420ef0 f   CreatureAgent.obj
 0001:0001ff00       ?Update@CreatureAgent@@UAEXXZ 00420f00 f   CreatureAgent.obj
 0001:0001ff10       ?Write@CreatureAgent@@UBE_NAAVCreaturesArchive@@@Z 00420f10 f   CreatureAgent.obj
 0001:0001ff30       ?Read@CreatureAgent@@UAE_NAAVCreaturesArchive@@@Z 00420f30 f   CreatureAgent.obj
 0001:0001ff50       ?GetSensoryDistanceFromAgent@CreatureAgent@@UAEMVAgentHandle@@@Z 00420f50 f   CreatureAgent.obj
 0001:000200f0       ??0AgentManager@@QAE@HH@Z  004210f0 f i CreatureAgent.obj
 0001:00020120       ?CreateNewCreatureHead@@YAPAVPersistentObject@@XZ 00421120 f   CreatureHead.obj
 0001:000201b0       ?GetClassNameX@CreatureHead@@UBEPBDXZ 004211b0 f   CreatureHead.obj
 0001:000201c0       ??0CreatureHead@@QAE@PAVLimb@@ABVFilePath@@QAJJJJJJJP6APAULimbData@@HHHHH@ZJJ_N@Z 004211c0 f   CreatureHead.obj
 0001:000203b0       ?Reload@CreatureHead@@QAEXJABVFilePath@@P6APAULimbData@@HHHHH@ZQAJ@Z 004213b0 f   CreatureHead.obj
 0001:00020430       ??1CreatureHead@@UAE@XZ    00421430 f   CreatureHead.obj
 0001:000204d0       ?AttachLimbChain@CreatureHead@@QAEXJPAVLimb@@@Z 004214d0 f   CreatureHead.obj
 0001:000204f0       ?UpdatePosn@CreatureHead@@QAEXEJJAAE@Z 004214f0 f   CreatureHead.obj
 0001:00020600       ?GetMouthMapPosition@CreatureHead@@QAE?AVVector2D@@XZ 00421600 f   CreatureHead.obj
 0001:00020650       ?GetHeadData@CreatureHead@@QAEXJJJJJ@Z 00421650 f   CreatureHead.obj
 0001:000209e0       ?SetCurrentPoseString@CreatureHead@@QAEXHJJAAE@Z 004219e0 f   CreatureHead.obj
 0001:00020a70       ?SetHeadImage@CreatureHead@@QAEXJJAAE@Z 00421a70 f   CreatureHead.obj
 0001:00020dd0       ?GetOverlayIndex@CreatureHead@@QAEHH@Z 00421dd0 f   CreatureHead.obj
 0001:00020df0       ?GetClothingSet@CreatureHead@@QAEHHH@Z 00421df0 f   CreatureHead.obj
 0001:00020e20       ?WearItem@CreatureHead@@QAE_NHHH@Z 00421e20 f   CreatureHead.obj
 0001:00020e50       ?GetHeadPartFileName@CreatureHead@@QAEXHAAV?$basic_string@DU?$char_traits@D@std@@V?$allocator@D@2@@std@@@Z 00421e50 f   CreatureHead.obj
 0001:00020e70       ?RuffleHair@CreatureHead@@QAEXXZ 00421e70 f   CreatureHead.obj
 0001:00020ea0       ?TidyHair@CreatureHead@@QAEXXZ 00421ea0 f   CreatureHead.obj
 0001:00020ed0       ?PrepareForReloadingGallery@CreatureHead@@UAEXXZ 00421ed0 f   CreatureHead.obj
 0001:00020f00       ?Write@CreatureHead@@UBE_NAAVCreaturesArchive@@@Z 00421f00 f   CreatureHead.obj
 0001:00020fa0       ?Read@CreatureHead@@UAE_NAAVCreaturesArchive@@@Z 00421fa0 f   CreatureHead.obj
 0001:00021030       ?Visibility@CreatureHead@@QAE_NH@Z 00422030 f   CreatureHead.obj
 0001:00021100       ?AdjustXY@EntityImage@@UAEXJJ@Z 00422100 f i CreatureHead.obj
 0001:00021120       ??_ECreatureHead@@UAEPAXI@Z 00422120 f i CreatureHead.obj
 0001:00021120       ??_GCreatureHead@@UAEPAXI@Z 00422120 f i CreatureHead.obj
 0001:00021150       ?CreateNewBodyPart@@YAPAVPersistentObject@@XZ 00422150 f   Entity.obj
 0001:000211e0       ?GetClassNameX@BodyPart@@UBEPBDXZ 004221e0 f   Entity.obj
 0001:000211f0       ??5@YAAAVCreaturesArchive@@AAV0@AAPAVBodyPart@@@Z 004221f0 f   Entity.obj
 0001:00021250       ?CreateNewBody@@YAPAVPersistentObject@@XZ 00422250 f   Entity.obj
 0001:000212e0       ?GetClassNameX@Body@@UBEPBDXZ 004222e0 f   Entity.obj
 0001:000212f0       ??5@YAAAVCreaturesArchive@@AAV0@AAPAVBody@@@Z 004222f0 f   Entity.obj
 0001:00021350       ?CreateNewLimb@@YAPAVPersistentObject@@XZ 00422350 f   Entity.obj
 0001:000213e0       ?GetClassNameX@Limb@@UBEPBDXZ 004223e0 f   Entity.obj
 0001:000213f0       ??5@YAAAVCreaturesArchive@@AAV0@AAPAVLimb@@@Z 004223f0 f   Entity.obj
 0001:00021450       ??0BodyPart@@QAE@XZ        00422450 f   Entity.obj
 0001:000214d0       ??_EBodyPart@@UAEPAXI@Z    004224d0 f i Entity.obj
 0001:000214d0       ??_GBodyPart@@UAEPAXI@Z    004224d0 f i Entity.obj
 0001:00021500       ??0BodyPart@@QAE@JJJABVFilePath@@JKHHHHHH_N@Z 00422500 f   Entity.obj
 0001:00021620       ??1BodyPart@@UAE@XZ        00422620 f   Entity.obj
 0001:000216c0       ?Reload@BodyPart@@QAEXABVFilePath@@KH@Z 004226c0 f   Entity.obj
 0001:00021720       ?SetOverlay@BodyPart@@QAE_NJJ@Z 00422720 f   Entity.obj
 0001:00021750       ?GetOverlay@BodyPart@@QAEHJ@Z 00422750 f   Entity.obj
 0001:00021770       ?CreateClothes@BodyPart@@QAEXJJJJJ@Z 00422770 f   Entity.obj
 0001:00021810       ?SetBodyPartFileName@BodyPart@@QAEXHHHHH@Z 00422810 f   Entity.obj
 0001:00021a50       ?GetBodyPartFileName@BodyPart@@QAEXAAV?$basic_string@DU?$char_traits@D@std@@V?$allocator@D@2@@std@@@Z 00422a50 f   Entity.obj
 0001:00021bb0       ?Write@BodyPart@@UBE_NAAVCreaturesArchive@@@Z 00422bb0 f   Entity.obj
 0001:00021c80       ?Read@BodyPart@@UAE_NAAVCreaturesArchive@@@Z 00422c80 f   Entity.obj
 0001:00021dd0       ?SetViewAndImage@BodyPart@@UAEXH@Z 00422dd0 f   Entity.obj
 0001:00021f10       ??0Limb@@QAE@PAV0@PAULimbData@@ABVFilePath@@KJJJJJJJ_N@Z 00422f10 f   Entity.obj
 0001:00022010       ?Reload@Limb@@QAEXAAJP6APAULimbData@@HHHHH@ZABVFilePath@@QAJJJ@Z 00423010 f   Entity.obj
 0001:000220e0       ?PrepareForReloadingGallery@Limb@@UAEXXZ 004230e0 f   Entity.obj
 0001:00022100       ?SetViewAndImage@Limb@@UAEXH@Z 00423100 f   Entity.obj
 0001:00022110       ??1Limb@@UAE@XZ            00423110 f   Entity.obj
 0001:00022160       ?Write@Limb@@UBE_NAAVCreaturesArchive@@@Z 00423160 f   Entity.obj
 0001:000221e0       ?Read@Limb@@UAE_NAAVCreaturesArchive@@@Z 004231e0 f   Entity.obj
 0001:00022280       ?SetClothing@Limb@@QAE_NJJ@Z 00423280 f   Entity.obj
 0001:000222a0       ??0Body@@QAE@PAUBodyData@@ABVFilePath@@KJJJJJJJJ_N@Z 004232a0 f   Entity.obj
 0001:00022340       ?Reload@Body@@QAEXPAUBodyData@@ABVFilePath@@KJ@Z 00423340 f   Entity.obj
 0001:00022380       ?SetViewAndImage@Body@@UAEXH@Z 00423380 f   Entity.obj
 0001:000223e0       ?SetClothing@Body@@QAE_NJJ@Z 004233e0 f   Entity.obj
 0001:00022400       ?SetPregnancyStage@Body@@QAEXM@Z 00423400 f   Entity.obj
 0001:00022430       ??1Body@@UAE@XZ            00423430 f   Entity.obj
 0001:00022480       ?Write@Body@@UBE_NAAVCreaturesArchive@@@Z 00423480 f   Entity.obj
 0001:000224e0       ?Read@Body@@UAE_NAAVCreaturesArchive@@@Z 004234e0 f   Entity.obj
 0001:000225e0       ??0FilePath@@QAE@ABV0@@Z   004235e0 f i Entity.obj
 0001:00022730       ??_ELimb@@UAEPAXI@Z        00423730 f i Entity.obj
 0001:00022730       ??_GLimb@@UAEPAXI@Z        00423730 f i Entity.obj
 0001:00022760       ??_EBody@@UAEPAXI@Z        00423760 f i Entity.obj
 0001:00022760       ??_GBody@@UAEPAXI@Z        00423760 f i Entity.obj
 0001:00022790       ?CreateNewGenome@@YAPAVPersistentObject@@XZ 00423790 f   Genome.obj
 0001:00022820       ?GetClassNameX@Genome@@UBEPBDXZ 00423820 f   Genome.obj
 0001:00022830       ??0GenomeInitFailedException@@QAE@HPBD@Z 00423830 f   Genome.obj
 0001:00022a80       ?Init@Genome@@QAEXXZ       00423a80 f   Genome.obj
 0001:00022b70       ??0Genome@@QAE@XZ          00423b70 f   Genome.obj
 0001:00022bd0       ??_GGenome@@UAEPAXI@Z      00423bd0 f i Genome.obj
 0001:00022bd0       ??_EGenome@@UAEPAXI@Z      00423bd0 f i Genome.obj
 0001:00022c00       ??1Genome@@UAE@XZ          00423c00 f   Genome.obj
 0001:00022c60       ??0Genome@@QAE@AAVGenomeStore@@HHEH@Z 00423c60 f   Genome.obj
 0001:00022dc0       ?ReadFromFile@Genome@@QAEXV?$basic_string@DU?$char_traits@D@std@@V?$allocator@D@2@@std@@HEH0@Z 00423dc0 f   Genome.obj
 0001:000230d0       ??0GenomeException@Genome@@QAE@ABV01@@Z 004240d0 f i Genome.obj
 0001:00023250       ?DeclareUnverifiedParents@Genome@@QAEXXZ 00424250 f   Genome.obj
 0001:00023270       ?WriteToFile@Genome@@QAEXV?$basic_string@DU?$char_traits@D@std@@V?$allocator@D@2@@std@@@Z 00424270 f   Genome.obj
 0001:00023460       ?Cross@Genome@@QAEXV?$basic_string@DU?$char_traits@D@std@@V?$allocator@D@2@@std@@PAV1@1EEEE@Z 00424460 f   Genome.obj
 0001:00023660       ?CrossLoop@Genome@@AAEXPAV1@0EEEE@Z 00424660 f   Genome.obj
 0001:00023880       ?Terminate@Genome@@AAEXXZ  00424880 f   Genome.obj
 0001:000238d0       ?NextMarker@Genome@@AAE_NXZ 004248d0 f   Genome.obj
 0001:00023910       ?GeneID@Genome@@AAEHXZ     00424910 f   Genome.obj
 0001:00023930       ?FindGene@Genome@@AAE_NH@Z 00424930 f   Genome.obj
 0001:00023970       ?CopyGene@Genome@@AAEXPAV1@EE@Z 00424970 f   Genome.obj
 0001:00023b30       ?CopyCodon@Genome@@AAEXPAV1@HEEE@Z 00424b30 f   Genome.obj
 0001:00023c40       ?Reset@Genome@@QAEXXZ      00424c40 f   Genome.obj
 0001:00023c50       ?Store@Genome@@QAEXXZ      00424c50 f   Genome.obj
 0001:00023c60       ?Restore@Genome@@QAEXXZ    00424c60 f   Genome.obj
 0001:00023c70       ?Store2@Genome@@QAEXXZ     00424c70 f   Genome.obj
 0001:00023c80       ?Restore2@Genome@@QAEXXZ   00424c80 f   Genome.obj
 0001:00023c90       ?GetCodon@Genome@@QAEHHH@Z 00424c90 f   Genome.obj
 0001:00023cc0       ?GetToken@Genome@@QAEKXZ   00424cc0 f   Genome.obj
 0001:00023cd0       ?GetStart@Genome@@AAE_NXZ  00424cd0 f   Genome.obj
 0001:00023d10       ?GetGeneType@Genome@@QAE_NHHHHHHH@Z 00424d10 f   Genome.obj
 0001:00023e40       ?TimeToSwitchOn@Genome@@AAE_NEH@Z 00424e40 f   Genome.obj
 0001:00023ea0       ?Generation@Genome@@QAEEXZ 00424ea0 f   Genome.obj
 0001:00023eb0       ?GetGenus@Genome@@QAEEXZ   00424eb0 f   Genome.obj
 0001:00023f50       ??0GenomeException@Genome@@QAE@V?$basic_string@DU?$char_traits@D@std@@V?$allocator@D@2@@std@@G@Z 00424f50 f i Genome.obj
 0001:00024050       ??1File@@UAE@XZ            00425050 f i Genome.obj
 0001:000240c0       ??_EFile@@UAEPAXI@Z        004250c0 f i Genome.obj
 0001:000240c0       ??_GFile@@UAEPAXI@Z        004250c0 f i Genome.obj
 0001:000240f0       ?ClearSlot@GenomeStore@@QAEXH@Z 004250f0 f   GenomeStore.obj
 0001:00024240       ?ClearAllSlots@GenomeStore@@QAEXXZ 00425240 f   GenomeStore.obj
 0001:00024270       ??1GenomeStore@@QAE@XZ     00425270 f   GenomeStore.obj
 0001:000242e0       ?MoveSlotFrom@GenomeStore@@QAE_NHAAV1@H@Z 004252e0 f   GenomeStore.obj
 0001:00024440       ?LoadEngineeredFile@GenomeStore@@QAE_NHV?$basic_string@DU?$char_traits@D@std@@V?$allocator@D@2@@std@@@Z 00425440 f   GenomeStore.obj
 0001:00024bb0       ?CloneSlot@GenomeStore@@QAE_NHV?$basic_string@DU?$char_traits@D@std@@V?$allocator@D@2@@std@@@Z 00425bb0 f   GenomeStore.obj
 0001:00025010       ?CrossoverFrom@GenomeStore@@QAE_NHAAV1@H0HHHHH_N@Z 00426010 f   GenomeStore.obj
 0001:000253c0       ?IdenticalTwinFrom@GenomeStore@@QAE_NHAAV1@H0HV?$basic_string@DU?$char_traits@D@std@@V?$allocator@D@2@@std@@@Z 004263c0 f   GenomeStore.obj
 0001:000257f0       ?MonikerAsString@GenomeStore@@QAE?AV?$basic_string@DU?$char_traits@D@std@@V?$allocator@D@2@@std@@H@Z 004267f0 f   GenomeStore.obj
 0001:00025910       ?FillSlot@GenomeStore@@IAE_NHV?$basic_string@DU?$char_traits@D@std@@V?$allocator@D@2@@std@@@Z 00426910 f   GenomeStore.obj
 0001:00025a90       ?FileExists@GenomeStore@@KA_NV?$basic_string@DU?$char_traits@D@std@@V?$allocator@D@2@@std@@@Z 00426a90 f   GenomeStore.obj
 0001:00025be0       ?Filename@GenomeStore@@SA?AV?$basic_string@DU?$char_traits@D@std@@V?$allocator@D@2@@std@@V23@@Z 00426be0 f   GenomeStore.obj
 0001:00025db0       ?GetFilePath@GenomeStore@@SA?AVFilePath@@V?$basic_string@DU?$char_traits@D@std@@V?$allocator@D@2@@std@@@Z 00426db0 f   GenomeStore.obj
 0001:00025eb0       ??6@YAAAVCreaturesArchive@@AAV0@ABVGenomeStore@@@Z 00426eb0 f   GenomeStore.obj
 0001:00025f10       ??5@YAAAVCreaturesArchive@@AAV0@AAVGenomeStore@@@Z 00426f10 f   GenomeStore.obj
 0001:00025f30       ?GetSlotCount@GenomeStore@@QAEHXZ 00426f30 f   GenomeStore.obj
 0001:00025f30       ?GetEventCount@InputManager@@QAEHXZ 00426f30 f   GenomeStore.obj
 0001:00025f50       ?RegisterConceptionEventAndBasicData@GenomeStore@@IAEXAAVGenome@@ABV?$basic_string@DU?$char_traits@D@std@@V?$allocator@D@2@@std@@1W4EventType@LifeEvent@@@Z 00426f50 f   GenomeStore.obj
 0001:00026120       ?ClonedEntirely@GenomeStore@@QAEXXZ 00427120 f   GenomeStore.obj
 0001:00026300       ?GenerateUniqueMoniker@GenomeStore@@KA?AV?$basic_string@DU?$char_traits@D@std@@V?$allocator@D@2@@std@@ABV23@0H@Z 00427300 f   GenomeStore.obj
 0001:000264f0       ?erase@?$vector@V?$basic_string@DU?$char_traits@D@std@@V?$allocator@D@2@@std@@V?$allocator@V?$basic_string@DU?$char_traits@D@std@@V?$allocator@D@2@@std@@@2@@std@@QAEPAV?$basic_string@DU?$char_traits@D@std@@V?$allocator@D@2@@2@PAV32@0@Z 004274f0 f i GenomeStore.obj
 0001:00026670       ??5@YAAAVCreaturesArchive@@AAV0@AAV?$vector@V?$basic_string@DU?$char_traits@D@std@@V?$allocator@D@2@@std@@V?$allocator@V?$basic_string@DU?$char_traits@D@std@@V?$allocator@D@2@@std@@@2@@std@@@Z 00427670 f i GenomeStore.obj
 0001:00026820       ?CreateNewSkeletalCreature@@YAPAVPersistentObject@@XZ 00427820 f   SkeletalCreature.obj
 0001:000268b0       ?GetClassNameX@SkeletalCreature@@UBEPBDXZ 004278b0 f   SkeletalCreature.obj
 0001:000268c0       ?CanSee@SkeletalCreature@@UAE_NABVAgentHandle@@@Z 004278c0 f   SkeletalCreature.obj
 0001:00026a80       ?GetCreatureRoomID@SkeletalCreature@@UAE_NAAH@Z 00427a80 f   SkeletalCreature.obj
 0001:00026ab0       ?ClickAction@SkeletalCreature@@UAEHHH@Z 00427ab0 f   SkeletalCreature.obj
 0001:00026c20       ?WhereShouldCreaturesPressMe@SkeletalCreature@@UAE?AVVector2D@@XZ 00427c20 f   SkeletalCreature.obj
 0001:00026c40       ??0SkeletalCreature@@QAE@XZ 00427c40 f   SkeletalCreature.obj
 0001:00026cb0       ??_ESkeletalCreature@@UAEPAXI@Z 00427cb0 f i SkeletalCreature.obj
 0001:00026cb0       ??_GSkeletalCreature@@UAEPAXI@Z 00427cb0 f i SkeletalCreature.obj
 0001:00026ce0       ??1SkeletalCreature@@UAE@XZ 00427ce0 f   SkeletalCreature.obj
 0001:00026d00       ??0SkeletalCreature@@QAE@HKVAgentHandle@@HHH@Z 00427d00 f   SkeletalCreature.obj
 0001:00026f30       ?ReadFromGenome@SkeletalCreature@@UAE_NXZ 00427f30 f   SkeletalCreature.obj
 0001:000270e0       ?FormBodyParts@SkeletalCreature@@QAE_NXZ 004280e0 f   SkeletalCreature.obj
 0001:000271a0       ?HoldHandsWithThePointer@SkeletalCreature@@QAEXXZ 004281a0 f   SkeletalCreature.obj
 0001:00027400       ?StartHoldingHandsWithThePointer@SkeletalCreature@@QAEXABVAgentHandle@@ABVCAOSVar@@1@Z 00428400 f   SkeletalCreature.obj
 0001:000274b0       ?HandleStartHoldHands@SkeletalCreature@@UAEXPAVMessage@@@Z 004284b0 f   SkeletalCreature.obj
 0001:00027680       ?StopHoldingHandsWithThePointer@SkeletalCreature@@UAEXABVAgentHandle@@ABVCAOSVar@@1@Z 00428680 f   SkeletalCreature.obj
 0001:000276e0       ?HandleStopHoldHands@SkeletalCreature@@UAEXPAVMessage@@@Z 004286e0 f   SkeletalCreature.obj
 0001:000278e0       ?GetLocusAddress@SkeletalCreature@@UAEPAMHHHH@Z 004288e0 f   SkeletalCreature.obj
 0001:00027990       ?MoveToSafePlaceGivenCurrentLocation@SkeletalCreature@@UAE_NXZ 00428990 f   SkeletalCreature.obj
 0001:00027a20       ?MoveToSafePlace@SkeletalCreature@@UAE_NABVVector2D@@@Z 00428a20 f   SkeletalCreature.obj
 0001:00027b00       ?MoveTo@SkeletalCreature@@UAEXMM@Z 00428b00 f   SkeletalCreature.obj
 0001:00027bd0       ?GetMouthMapPosition@SkeletalCreature@@UAE?AVVector2D@@XZ 00428bd0 f   SkeletalCreature.obj
 0001:00027c00       ?MoveBy@SkeletalCreature@@UAEXMM@Z 00428c00 f   SkeletalCreature.obj
 0001:00027c40       ?MoveFootTo@SkeletalCreature@@UAEXMM@Z 00428c40 f   SkeletalCreature.obj
 0001:00027ce0       ?TestMoveFootTo@SkeletalCreature@@UAE_NMM_N@Z 00428ce0 f   SkeletalCreature.obj
 0001:00027d20       ?TestMoveTo@SkeletalCreature@@UAE_NMM_N@Z 00428d20 f   SkeletalCreature.obj
 0001:00027d60       ?TestCurrentLocation@SkeletalCreature@@UAE_N_N@Z 00428d60 f   SkeletalCreature.obj
 0001:00027d80       ?TestRoomSystemLocation@SkeletalCreature@@UAE_NXZ 00428d80 f   SkeletalCreature.obj
 0001:00027dd0       ?TestMoveBy@SkeletalCreature@@UAE_NMM_N@Z 00428dd0 f   SkeletalCreature.obj
 0001:00027f30       ?GetDistanceToObstacle@SkeletalCreature@@UAEMH@Z 00428f30 f   SkeletalCreature.obj
 0001:00028070       ?HandleMovementWhenAutonomous@SkeletalCreature@@MAEXXZ 00429070 f   SkeletalCreature.obj
 0001:00028360       ?HandleMovementWhenInVehicle@SkeletalCreature@@MAEXXZ 00429360 f   SkeletalCreature.obj
 0001:000285f0       ?SetupDefaults@SkeletalCreature@@AAEXXZ 004295f0 f   SkeletalCreature.obj
 0001:00028ab0       ?UpdatePositionsWithRespectToDownFoot@SkeletalCreature@@IAEXXZ 00429ab0 f   SkeletalCreature.obj
 0001:000291f0       ?UpdateFeet@SkeletalCreature@@IAEXXZ 0042a1f0 f   SkeletalCreature.obj
 0001:000295a0       ?GeneratePlotOrder@SkeletalCreature@@IAEXXZ 0042a5a0 f   SkeletalCreature.obj
 0001:00029900       ?UpdatePlotOrder@SkeletalCreature@@IAEXXZ 0042a900 f   SkeletalCreature.obj
 0001:00029a80       ?UpdateSkeleton@SkeletalCreature@@QAEXXZ 0042aa80 f   SkeletalCreature.obj
 0001:00029aa0       ?SetCurrentPoseString@SkeletalCreature@@QAEXPAD@Z 0042aaa0 f   SkeletalCreature.obj
 0001:00029bc0       ?MoveTowardsTargetPoseString@SkeletalCreature@@QAEXXZ 0042abc0 f   SkeletalCreature.obj
 0001:00029f30       ?SetTargetPoseString@SkeletalCreature@@QAE_NPAD@Z 0042af30 f   SkeletalCreature.obj
 0001:00029fb0       ?HasTargetPoseStringBeenReached@SkeletalCreature@@UAE_NXZ 0042afb0 f   SkeletalCreature.obj
 0001:00029ff0       ?Update@SkeletalCreature@@UAEXXZ 0042aff0 f   SkeletalCreature.obj
 0001:0002a310       ?SetAnimationString@SkeletalCreature@@QAEXPAD@Z 0042b310 f   SkeletalCreature.obj
 0001:0002a450       ?SetAnim@SkeletalCreature@@UAE_NPBEHH@Z 0042b450 f   SkeletalCreature.obj
 0001:0002a520       ?AnimOver@SkeletalCreature@@UAE_NH@Z 0042b520 f   SkeletalCreature.obj
 0001:0002a540       ?SetGait@SkeletalCreature@@UAEXH@Z 0042b540 f   SkeletalCreature.obj
 0001:0002a560       ?ShowPose@SkeletalCreature@@UAE_NHH@Z 0042b560 f   SkeletalCreature.obj
 0001:0002a5c0       ?ReachOut@SkeletalCreature@@UAEHH@Z 0042b5c0 f   SkeletalCreature.obj
 0001:0002a760       ?GetMapCoordOfWhereIPickUpAgentsFrom@SkeletalCreature@@UAE?AVVector2D@@H_N@Z 0042b760 f   SkeletalCreature.obj
 0001:0002a7c0       ?GetMyOffsetOfWhereIAmPickedUpFrom@SkeletalCreature@@UAE?AVVector2D@@H@Z 0042b7c0 f   SkeletalCreature.obj
 0001:0002a7f0       ?GetBodyData@@YAPAUBodyData@@HHHHH@Z 0042b7f0 f   SkeletalCreature.obj
 0001:0002aba0       ?GetLimbData@@YAPAULimbData@@HHHHH@Z 0042bba0 f   SkeletalCreature.obj
 0001:0002ae10       ?ChangePhysicalPlane@SkeletalCreature@@UAEXH@Z 0042be10 f   SkeletalCreature.obj
 0001:0002ae40       ?CreateSkeleton@SkeletalCreature@@QAE_NAAVGenome@@H@Z 0042be40 f   SkeletalCreature.obj
 0001:0002b100       ?HasBody@SkeletalCreature@@IAE_NXZ 0042c100 f   SkeletalCreature.obj
 0001:0002b110       ?ReloadSkeleton@SkeletalCreature@@QAE_NAAVGenome@@H@Z 0042c110 f   SkeletalCreature.obj
 0001:0002b4e0       ?Trash@SkeletalCreature@@UAEXXZ 0042c4e0 f   SkeletalCreature.obj
 0001:0002b570       ?DestroySkeleton@SkeletalCreature@@QAEXXZ 0042c570 f   SkeletalCreature.obj
 0001:0002b5f0       ?GetOverlayIndex@SkeletalCreature@@UAEHH@Z 0042c5f0 f   SkeletalCreature.obj
 0001:0002b770       ?GetClothingSet@SkeletalCreature@@UAEHHH@Z 0042c770 f   SkeletalCreature.obj
 0001:0002b950       ?WearOutfit@SkeletalCreature@@UAE_NHH@Z 0042c950 f   SkeletalCreature.obj
 0001:0002ba80       ?WearItem@SkeletalCreature@@UAE_NHHH@Z 0042ca80 f   SkeletalCreature.obj
 0001:0002bcc0       ?HitTest@SkeletalCreature@@UAE_NABVVector2D@@_N@Z 0042ccc0 f   SkeletalCreature.obj
 0001:0002bd50       ?GetBodyPartFileName@SkeletalCreature@@UAEXHAAV?$basic_string@DU?$char_traits@D@std@@V?$allocator@D@2@@std@@@Z 0042cd50 f   SkeletalCreature.obj
 0001:0002bd80       ?ChangeCameraShyStatus@SkeletalCreature@@UAEX_N@Z 0042cd80 f   SkeletalCreature.obj
 0001:0002bda0       ?DrawLine@SkeletalCreature@@UAEXJJJJEEEEEK@Z 0042cda0 f   SkeletalCreature.obj
 0001:0002bde0       ?ResetLines@SkeletalCreature@@UAEXXZ 0042cde0 f   SkeletalCreature.obj
 0001:0002bdf0       ?Approach@SkeletalCreature@@UAE_N_N@Z 0042cdf0 f   SkeletalCreature.obj
 0001:0002c0d0       ?Walk@SkeletalCreature@@UAEXXZ 0042d0d0 f   SkeletalCreature.obj
 0001:0002c130       ?ExpressParticularGenes@SkeletalCreature@@QAE_NAAVGenome@@H@Z 0042d130 f   SkeletalCreature.obj
 0001:0002c420       ?GetExtremePoint@SkeletalCreature@@QAE_NHAAVVector2D@@@Z 0042d420 f   SkeletalCreature.obj
 0001:0002c450       ?SetPregnancyStage@SkeletalCreature@@QAEXM@Z 0042d450 f   SkeletalCreature.obj
 0001:0002c470       ?ChangeHairStateInSomeWay@SkeletalCreature@@UAEXH@Z 0042d470 f   SkeletalCreature.obj
 0001:0002c4c0       ?CannotBeMuchCloser@SkeletalCreature@@UAE_NXZ 0042d4c0 f   SkeletalCreature.obj
 0001:0002c510       ?GetReachX@SkeletalCreature@@IAEMXZ 0042d510 f   SkeletalCreature.obj
 0001:0002c520       ?GetReachY@SkeletalCreature@@IAEMXZ 0042d520 f   SkeletalCreature.obj
 0001:0002c530       ?CanReachIt@SkeletalCreature@@UAE_NXZ 0042d530 f   SkeletalCreature.obj
 0001:0002c5c0       ?Write@SkeletalCreature@@UBE_NAAVCreaturesArchive@@@Z 0042d5c0 f   SkeletalCreature.obj
 0001:0002c8e0       ?Read@SkeletalCreature@@UAE_NAAVCreaturesArchive@@@Z 0042d8e0 f   SkeletalCreature.obj
 0001:0002cea0       ?RemakeSkeletonAfterImporting@SkeletalCreature@@QAEXXZ 0042dea0 f   SkeletalCreature.obj
 0001:0002ceb0       ?RemakeSkeletonAfterSerialisation@SkeletalCreature@@QAEXXZ 0042deb0 f   SkeletalCreature.obj
 0001:0002cf60       ?Visibility@SkeletalCreature@@UAE_NH@Z 0042df60 f   SkeletalCreature.obj
 0001:0002cfe0       ?ReadAppearanceGenes@SkeletalCreature@@QAEXAAVGenome@@AAVTintManager@@@Z 0042dfe0 f   SkeletalCreature.obj
 0001:0002d340       ?CreateBodyPart@SkeletalCreature@@IAE_NHHAAVTintManager@@@Z 0042e340 f   SkeletalCreature.obj
 0001:0002dd60       ?BuildGalleries@SkeletalCreature@@IAE_NHHAAKAAVTintManager@@@Z 0042ed60 f   SkeletalCreature.obj
 0001:0002df90       ?PreloadBodyPartsForNextAgeStage@SkeletalCreature@@IAE_NAAVGenome@@H@Z 0042ef90 f   SkeletalCreature.obj
 0001:0002e1f0       ?PrepareForAgeing@SkeletalCreature@@UAE_NH@Z 0042f1f0 f   SkeletalCreature.obj
 0001:0002e450       ?ContinueLoadingDataForNextAgeStage@SkeletalCreature@@IAE_NXZ 0042f450 f   SkeletalCreature.obj
 0001:0002e470       ?CommitPositions@SkeletalCreature@@IAEXXZ 0042f470 f   SkeletalCreature.obj
 0001:0002e4a0       ?GetSensoryDistanceFromAgent@SkeletalCreature@@UAEMVAgentHandle@@@Z 0042f4a0 f   SkeletalCreature.obj
 0001:0002e520       ?GetTintValues@SkeletalCreature@@QAEXAAF0000@Z 0042f520 f   SkeletalCreature.obj
 0001:0002e580       ?GetUniqueID@Agent@@QAEKXZ 0042f580 f i SkeletalCreature.obj
 0001:0002e590       ?SetDirection@SkeletalCreature@@UAEXH@Z 0042f590 f i SkeletalCreature.obj
 0001:0002e5a0       ?GetDirection@SkeletalCreature@@UBEHXZ 0042f5a0 f i SkeletalCreature.obj
 0001:0002e5b0       ?AreYouHoldingHandsWithThePointer@SkeletalCreature@@UAE_NXZ 0042f5b0 f i SkeletalCreature.obj
 0001:0002e5c0       ?SetEyeState@SkeletalCreature@@UAEXH@Z 0042f5c0 f i SkeletalCreature.obj
 0001:0002e5d0       ?GetNosePosition@SkeletalCreature@@UAE?AVVector2D@@XZ 0042f5d0 f i SkeletalCreature.obj
 0001:0002e610       ?SetFacialExpression@SkeletalCreature@@UAEXHH@Z 0042f610 f i SkeletalCreature.obj
 0001:0002e620       ?GetFacialExpression@SkeletalCreature@@UAEHXZ 0042f620 f i SkeletalCreature.obj
 0001:0002e630       ?GetNormalPlane@SkeletalCreature@@UAEHH@Z 0042f630 f i SkeletalCreature.obj
 0001:0002e640       ?GetEntityImage@SkeletalCreature@@UAEPAVEntityImage@@XZ 0042f640 f i SkeletalCreature.obj
 0001:0002e650       ?ResetAnimationString@SkeletalCreature@@UAEXXZ 0042f650 f i SkeletalCreature.obj
 0001:0002e660       ?GetDownFootPosition@SkeletalCreature@@UAE?AVVector2D@@XZ 0042f660 f i SkeletalCreature.obj
 0001:0002e680       ?GetUpFootPosition@SkeletalCreature@@UAE?AVVector2D@@XZ 0042f680 f i SkeletalCreature.obj
 0001:0002e6a0       ?GetPlane@SkeletalCreature@@UAEHH@Z 0042f6a0 f i SkeletalCreature.obj
 0001:0002e6b0       ?GetP1@Message@@QBE?AVCAOSVar@@XZ 0042f6b0 f i SkeletalCreature.obj
 0001:0002e6e0       ?GetP2@Message@@QBE?AVCAOSVar@@XZ 0042f6e0 f i SkeletalCreature.obj
 0001:0002e710       ?GetHandHeldSkeletalCreature@PointerAgent@@QAE?AVAgentHandle@@XZ 0042f710 f i SkeletalCreature.obj
 0001:0002e740       ?insert@?$list@U?$pair@HH@std@@V?$allocator@U?$pair@HH@std@@@2@@std@@QAE?AViterator@12@V312@ABU?$pair@HH@2@@Z 0042f740 f i SkeletalCreature.obj
 0001:0002e7a0       ?_Buynode@?$list@U?$pair@HH@std@@V?$allocator@U?$pair@HH@std@@@2@@std@@IAEPAU_Node@12@PAU312@0@Z 0042f7a0 f i SkeletalCreature.obj
 0001:00032e50       ??0Stimulus@@QAE@XZ        00433e50 f   Stimulus.obj
 0001:00032f10       ?InitFromGenome@Stimulus@@QAEXAAVGenome@@@Z 00433f10 f   Stimulus.obj
 0001:00032ff0       ?Process@Stimulus@@QAEX_N@Z 00433ff0 f   Stimulus.obj
 0001:00033300       ??1Stimulus@@QAE@XZ        00434300 f i Stimulus.obj
 0001:00033380       ?Write@Stimulus@@QBE_NAAVCreaturesArchive@@@Z 00434380 f   Stimulus.obj
 0001:00033460       ?Read@Stimulus@@QAE_NAAVCreaturesArchive@@@Z 00434460 f   Stimulus.obj
 0001:000335e0       ?push_back@?$vector@V?$basic_string@DU?$char_traits@D@std@@V?$allocator@D@2@@std@@V?$allocator@V?$basic_string@DU?$char_traits@D@std@@V?$allocator@D@2@@std@@@2@@std@@QAEXABV?$basic_string@DU?$char_traits@D@std@@V?$allocator@D@2@@2@@Z 004345e0 f i Stimulus.obj
 0001:00033790       ??0TableSpec@@QAE@ABV?$basic_string@DU?$char_traits@D@std@@V?$allocator@D@2@@std@@00@Z 00434790 f i Stimulus.obj
 0001:00033a40       ??0Vocab@@QAE@XZ           00434a40 f   Vocab.obj
 0001:00033a70       ?SetupCatalogueVector@Vocab@@SA_NXZ 00434a70 f   Vocab.obj
 0001:00033d50       ?InitBabyWord@Vocab@@QAEXABV?$basic_string@DU?$char_traits@D@std@@V?$allocator@D@2@@std@@@Z 00434d50 f   Vocab.obj
 0001:00033fd0       ?InitWord@Vocab@@QAEXABV?$basic_string@DU?$char_traits@D@std@@V?$allocator@D@2@@std@@H_N@Z 00434fd0 f   Vocab.obj
 0001:00034290       ?DoReallyTerribleInfantSpeak@Vocab@@QAEXXZ 00435290 f   Vocab.obj
 0001:00034740       ?DoReasonablyGoodInfantSpeak@Vocab@@QAEXXZ 00435740 f   Vocab.obj
 0001:00034980       ?HearWord@Vocab@@QAEXV?$basic_string@DU?$char_traits@D@std@@V?$allocator@D@2@@std@@@Z 00435980 f   Vocab.obj
 0001:00034cf0       ?CreateNewExpressiveFaculty@@YAPAVPersistentObject@@XZ 00435cf0 f   ExpressiveFaculty.obj
 0001:00034d80       ?GetClassNameX@ExpressiveFaculty@@UBEPBDXZ 00435d80 f   ExpressiveFaculty.obj
 0001:00034d90       ??0ExpressiveFaculty@@QAE@XZ 00435d90 f   ExpressiveFaculty.obj
 0001:00034de0       ??_GExpressiveFaculty@@UAEPAXI@Z 00435de0 f i ExpressiveFaculty.obj
 0001:00034de0       ??_EExpressiveFaculty@@UAEPAXI@Z 00435de0 f i ExpressiveFaculty.obj
 0001:00034e10       ??1ExpressiveFaculty@@UAE@XZ 00435e10 f   ExpressiveFaculty.obj
 0001:00034e30       ?ReadFromGenome@ExpressiveFaculty@@UAEXAAVGenome@@@Z 00435e30 f   ExpressiveFaculty.obj
 0001:00034f70       ?Update@ExpressiveFaculty@@UAEXXZ 00435f70 f   ExpressiveFaculty.obj
 0001:00035030       ?CalculateExpressionFromDrives@ExpressiveFaculty@@IAEHXZ 00436030 f   ExpressiveFaculty.obj
 0001:000350e0       ?Write@ExpressiveFaculty@@UBE_NAAVCreaturesArchive@@@Z 004360e0 f   ExpressiveFaculty.obj
 0001:00035150       ?Read@ExpressiveFaculty@@UAE_NAAVCreaturesArchive@@@Z 00436150 f   ExpressiveFaculty.obj
 0001:00035280       ?CreateNewFaculty@@YAPAVPersistentObject@@XZ 00436280 f   Faculty.obj
 0001:00035310       ?GetClassNameX@Faculty@@UBEPBDXZ 00436310 f   Faculty.obj
 0001:00035320       ??5@YAAAVCreaturesArchive@@AAV0@AAPAVFaculty@@@Z 00436320 f   Faculty.obj
 0001:00035380       ??0Faculty@@QAE@XZ         00436380 f   Faculty.obj
 0001:000353a0       ??_GFaculty@@UAEPAXI@Z     004363a0 f i Faculty.obj
 0001:000353a0       ??_EFaculty@@UAEPAXI@Z     004363a0 f i Faculty.obj
 0001:000353d0       ??1Faculty@@UAE@XZ         004363d0 f   Faculty.obj
 0001:000353e0       ?SetCallback@Faculty@@UAEXPAVAgentFacultyInterface@@PAVCreatureFacultyInterface@@@Z 004363e0 f   Faculty.obj
 0001:00035400       ?GetLocusAddress@Faculty@@UAEPAMHHHH@Z 00436400 f   Faculty.obj
 0001:00035410       ?Write@Faculty@@UBE_NAAVCreaturesArchive@@@Z 00436410 f   Faculty.obj
 0001:00035430       ?Read@Faculty@@UAE_NAAVCreaturesArchive@@@Z 00436430 f   Faculty.obj
 0001:000354e0       ?SetActive@Faculty@@QAEX_N@Z 004364e0 f   Faculty.obj
 0001:000354f0       ?IsActive@Faculty@@QAE_NXZ 004364f0 f   Faculty.obj
 0001:000355b0       ?CreateNewLifeFaculty@@YAPAVPersistentObject@@XZ 004365b0 f   LifeFaculty.obj
 0001:00035640       ?GetClassNameX@LifeFaculty@@UBEPBDXZ 00436640 f   LifeFaculty.obj
 0001:00035650       ??0LifeFaculty@@QAE@XZ     00436650 f   LifeFaculty.obj
 0001:000356a0       ??_GLifeFaculty@@UAEPAXI@Z 004366a0 f i LifeFaculty.obj
 0001:000356a0       ??_ELifeFaculty@@UAEPAXI@Z 004366a0 f i LifeFaculty.obj
 0001:000356d0       ??1LifeFaculty@@UAE@XZ     004366d0 f   LifeFaculty.obj
 0001:000356f0       ?Update@LifeFaculty@@UAEXXZ 004366f0 f   LifeFaculty.obj
 0001:000357b0       ?ForceAgeing@LifeFaculty@@QAEXXZ 004367b0 f   LifeFaculty.obj
 0001:00035800       ?Health@LifeFaculty@@QBEMXZ 00436800 f   LifeFaculty.obj
 0001:00035820       ?SetWhetherDead@LifeFaculty@@QAEX_N@Z 00436820 f   LifeFaculty.obj
 0001:00035a80       ?SetWhetherZombie@LifeFaculty@@QAEX_N@Z 00436a80 f   LifeFaculty.obj
 0001:00035ab0       ?SetWhetherUnconscious@LifeFaculty@@QAEX_N@Z 00436ab0 f   LifeFaculty.obj
 0001:00035ae0       ?SetWhetherAsleep@LifeFaculty@@QAEX_N@Z 00436ae0 f   LifeFaculty.obj
 0001:00035b20       ?SetWhetherDreaming@LifeFaculty@@QAEX_N@Z 00436b20 f   LifeFaculty.obj
 0001:00035b50       ?SetState@LifeFaculty@@QAEXW4LifeState@@@Z 00436b50 f   LifeFaculty.obj
 0001:00035c10       ?GetLocusAddress@LifeFaculty@@UAEPAMHHHH@Z 00436c10 f   LifeFaculty.obj
 0001:00035c80       ?Write@LifeFaculty@@UBE_NAAVCreaturesArchive@@@Z 00436c80 f   LifeFaculty.obj
 0001:00035d20       ?Read@LifeFaculty@@UAE_NAAVCreaturesArchive@@@Z 00436d20 f   LifeFaculty.obj
 0001:00035df0       ?SetProperlyBorn@LifeFaculty@@QAEXXZ 00436df0 f   LifeFaculty.obj
 0001:00035fc0       ?SendAgeEvent@LifeFaculty@@AAEXXZ 00436fc0 f   LifeFaculty.obj
 0001:00036200       ?CreateNewLinguisticFaculty@@YAPAVPersistentObject@@XZ 00437200 f   LinguisticFaculty.obj
 0001:00036290       ?GetClassNameX@LinguisticFaculty@@UBEPBDXZ 00437290 f   LinguisticFaculty.obj
 0001:000362a0       ?GetNullCommand@LinguisticFaculty@@KA?AUCommand@1@XZ 004372a0 f   LinguisticFaculty.obj
 0001:000362e0       ??0LinguisticFaculty@@QAE@XZ 004372e0 f   LinguisticFaculty.obj
 0001:00036690       ??_GLinguisticFaculty@@UAEPAXI@Z 00437690 f i LinguisticFaculty.obj
 0001:00036690       ??_ELinguisticFaculty@@UAEPAXI@Z 00437690 f i LinguisticFaculty.obj
 0001:000366c0       ??1LinguisticFaculty@@UAE@XZ 004376c0 f   LinguisticFaculty.obj
 0001:00036840       ?Init@LinguisticFaculty@@UAEXXZ 00437840 f   LinguisticFaculty.obj
 0001:00036b20       ?SetWord@LinguisticFaculty@@QAEXHHV?$basic_string@DU?$char_traits@D@std@@V?$allocator@D@2@@std@@_N@Z 00437b20 f   LinguisticFaculty.obj
 0001:00036bc0       ?GetWord@LinguisticFaculty@@QBE?AV?$basic_string@DU?$char_traits@D@std@@V?$allocator@D@2@@std@@HH@Z 00437bc0 f   LinguisticFaculty.obj
 0001:00036d20       ?GetWordStrength@LinguisticFaculty@@QBEMHH@Z 00437d20 f   LinguisticFaculty.obj
 0001:00036d40       ?ClearWordStrength@LinguisticFaculty@@QAEXHH@Z 00437d40 f   LinguisticFaculty.obj
 0001:00036d70       ?GetPlatonicWord@LinguisticFaculty@@QBE?AV?$basic_string@DU?$char_traits@D@std@@V?$allocator@D@2@@std@@HH@Z 00437d70 f   LinguisticFaculty.obj
 0001:00036ed0       ?KnownWord@LinguisticFaculty@@QBE_NHH@Z 00437ed0 f   LinguisticFaculty.obj
 0001:00036f10       ?LearnVocab@LinguisticFaculty@@QAEXXZ 00437f10 f   LinguisticFaculty.obj
 0001:00037a80       ?GetName@PointerAgent@@QAE?AV?$basic_string@DU?$char_traits@D@std@@V?$allocator@D@2@@std@@XZ 00438a80 f i LinguisticFaculty.obj
 0001:00037bd0       ?Update@LinguisticFaculty@@UAEXXZ 00438bd0 f   LinguisticFaculty.obj
 0001:00037ef0       ?SayWhatDoing@LinguisticFaculty@@QAEXH@Z 00438ef0 f   LinguisticFaculty.obj
 0001:00038400       ?ExpressNeed@LinguisticFaculty@@QAEXHH@Z 00439400 f   LinguisticFaculty.obj
 0001:00038b10       ?ExpressOpinion@LinguisticFaculty@@QAEXVAgentHandle@@H@Z 00439b10 f   LinguisticFaculty.obj
 0001:00039530       ?StackSentence@LinguisticFaculty@@QAEXV?$basic_string@DU?$char_traits@D@std@@V?$allocator@D@2@@std@@_NHHH@Z 0043a530 f   LinguisticFaculty.obj
 0001:000396f0       ?Say@LinguisticFaculty@@QAEXV?$basic_string@DU?$char_traits@D@std@@V?$allocator@D@2@@std@@@Z 0043a6f0 f   LinguisticFaculty.obj
 0001:00039ab0       ?Shout@LinguisticFaculty@@QAEXV?$basic_string@DU?$char_traits@D@std@@V?$allocator@D@2@@std@@HH@Z 0043aab0 f   LinguisticFaculty.obj
 0001:00039c40       ?HearSentence@LinguisticFaculty@@QAEXVAgentHandle@@V?$basic_string@DU?$char_traits@D@std@@V?$allocator@D@2@@std@@HH@Z 0043ac40 f   LinguisticFaculty.obj
 0001:0003bd60       ?GetKnownAgent@SensoryFaculty@@QAE?AVAgentHandle@@H@Z 0043cd60 f i LinguisticFaculty.obj
 0001:0003bd90       ?ParseSentence@LinguisticFaculty@@QAE_NVAgentHandle@@V?$basic_string@DU?$char_traits@D@std@@V?$allocator@D@2@@std@@AAV34@QAHHH@Z 0043cd90 f   LinguisticFaculty.obj
 0001:0003c5e0       ?GetWordType@LinguisticFaculty@@QAE_NV?$basic_string@DU?$char_traits@D@std@@V?$allocator@D@2@@std@@AA_NAAH22@Z 0043d5e0 f   LinguisticFaculty.obj
 0001:0003cd10       ?ParseAsLearnSentence@LinguisticFaculty@@QAE_NABV?$basic_string@DU?$char_traits@D@std@@V?$allocator@D@2@@std@@@Z 0043dd10 f   LinguisticFaculty.obj
 0001:0003d280       ?GetQualifier@LinguisticFaculty@@IAE?AV?$basic_string@DU?$char_traits@D@std@@V?$allocator@D@2@@std@@M@Z 0043e280 f   LinguisticFaculty.obj
 0001:0003d440       ?TranslateToBase@LinguisticFaculty@@QAE?AV?$basic_string@DU?$char_traits@D@std@@V?$allocator@D@2@@std@@V23@@Z 0043e440 f   LinguisticFaculty.obj
 0001:0003d8a0       ?TranslateToLocal@LinguisticFaculty@@QAE?AV?$basic_string@DU?$char_traits@D@std@@V?$allocator@D@2@@std@@V23@@Z 0043e8a0 f   LinguisticFaculty.obj
 0001:0003dd00       ?Write@LinguisticFaculty@@UBE_NAAVCreaturesArchive@@@Z 0043ed00 f   LinguisticFaculty.obj
 0001:0003de40       ?Read@LinguisticFaculty@@UAE_NAAVCreaturesArchive@@@Z 0043ee40 f   LinguisticFaculty.obj
 0001:0003dff0       ??1?$vector@V?$vector@VVocab@@V?$allocator@VVocab@@@std@@@std@@V?$allocator@V?$vector@VVocab@@V?$allocator@VVocab@@@std@@@std@@@2@@std@@QAE@XZ 0043eff0 f i LinguisticFaculty.obj
 0001:0003e070       ??1?$deque@USentenceToSpeak@LinguisticFaculty@@V?$allocator@USentenceToSpeak@LinguisticFaculty@@@std@@@std@@QAE@XZ 0043f070 f i LinguisticFaculty.obj
 0001:0003e150       ?front@?$deque@USentenceToSpeak@LinguisticFaculty@@V?$allocator@USentenceToSpeak@LinguisticFaculty@@@std@@@std@@QAEAAUSentenceToSpeak@LinguisticFaculty@@XZ 0043f150 f i LinguisticFaculty.obj
 0001:0003e180       ??A?$vector@VAgentHandle@@V?$allocator@VAgentHandle@@@std@@@std@@QAEAAVAgentHandle@@I@Z 0043f180 f i LinguisticFaculty.obj
 0001:0003e190       ??1?$vector@VVocab@@V?$allocator@VVocab@@@std@@@std@@QAE@XZ 0043f190 f i LinguisticFaculty.obj
 0001:0003e1d0       ?resize@?$vector@VVocab@@V?$allocator@VVocab@@@std@@@std@@QAEXIABVVocab@@@Z 0043f1d0 f i LinguisticFaculty.obj
 0001:0003e470       ??A?$vector@VVocab@@V?$allocator@VVocab@@@std@@@std@@QAEAAVVocab@@I@Z 0043f470 f i LinguisticFaculty.obj
 0001:0003e490       ?insert@?$vector@V?$vector@VVocab@@V?$allocator@VVocab@@@std@@@std@@V?$allocator@V?$vector@VVocab@@V?$allocator@VVocab@@@std@@@std@@@2@@std@@QAEXPAV?$vector@VVocab@@V?$allocator@VVocab@@@std@@@2@IABV32@@Z 0043f490 f i LinguisticFaculty.obj
 0001:0003e730       ?erase@?$vector@V?$vector@VVocab@@V?$allocator@VVocab@@@std@@@std@@V?$allocator@V?$vector@VVocab@@V?$allocator@VVocab@@@std@@@std@@@2@@std@@QAEPAV?$vector@VVocab@@V?$allocator@VVocab@@@std@@@2@PAV32@0@Z 0043f730 f i LinguisticFaculty.obj
 0001:0003e7d0       ??Eiterator@?$deque@USentenceToSpeak@LinguisticFaculty@@V?$allocator@USentenceToSpeak@LinguisticFaculty@@@std@@@std@@QAEAAV012@XZ 0043f7d0 f i LinguisticFaculty.obj
 0001:0003e810       ?insert@?$vector@VVocab@@V?$allocator@VVocab@@@std@@@std@@QAEXPAVVocab@@IABV3@@Z 0043f810 f i LinguisticFaculty.obj
 0001:0003eb80       ?erase@?$vector@VVocab@@V?$allocator@VVocab@@@std@@@std@@QAEPAVVocab@@PAV3@0@Z 0043fb80 f i LinguisticFaculty.obj
 0001:0003ec30       ?_Destroy@?$vector@VVocab@@V?$allocator@VVocab@@@std@@@std@@IAEXPAVVocab@@0@Z 0043fc30 f i LinguisticFaculty.obj
 0001:0003ec60       ?deallocate@?$allocator@D@std@@QAEXPAXI@Z 0043fc60 f i LinguisticFaculty.obj
 0001:0003ec80       ?_Ucopy@?$vector@VVocab@@V?$allocator@VVocab@@@std@@@std@@IAEPAVVocab@@PBV3@0PAV3@@Z 0043fc80 f i LinguisticFaculty.obj
 0001:0003ecc0       ?_Ufill@?$vector@VVocab@@V?$allocator@VVocab@@@std@@@std@@IAEXPAVVocab@@IABV3@@Z 0043fcc0 f i LinguisticFaculty.obj
 0001:0003ecf0       ?_Add@iterator@?$deque@USentenceToSpeak@LinguisticFaculty@@V?$allocator@USentenceToSpeak@LinguisticFaculty@@@std@@@std@@IAEXH@Z 0043fcf0 f i LinguisticFaculty.obj
 0001:0003ed60       ?fill@std@@YAXPAVVocab@@0ABV2@@Z 0043fd60 f i LinguisticFaculty.obj
 0001:0003ef80       ?copy_backward@std@@YAPAVVocab@@PAV2@00@Z 0043ff80 f i LinguisticFaculty.obj
 0001:0003f1b0       ?_Construct@std@@YAXPAV?$vector@VVocab@@V?$allocator@VVocab@@@std@@@1@ABV21@@Z 004401b0 f i LinguisticFaculty.obj
 0001:0003f2d0       ?_Construct@std@@YAXPAVVocab@@ABV2@@Z 004402d0 f i LinguisticFaculty.obj
 0001:0003f420       ??0SentenceToSpeak@LinguisticFaculty@@QAE@ABU01@@Z 00440420 f i LinguisticFaculty.obj
 0001:0003f580       ??4?$vector@VVocab@@V?$allocator@VVocab@@@std@@@std@@QAEAAV01@ABV01@@Z 00440580 f i LinguisticFaculty.obj
 0001:0003f820       ??4Vocab@@QAEAAV0@ABV0@@Z  00440820 f i LinguisticFaculty.obj
 0001:0003fb60       ?CreateNewMotorFaculty@@YAPAVPersistentObject@@XZ 00440b60 f   MotorFaculty.obj
 0001:0003fbf0       ?GetClassNameX@MotorFaculty@@UBEPBDXZ 00440bf0 f   MotorFaculty.obj
 0001:0003fc00       ??0MotorFaculty@@QAE@XZ    00440c00 f   MotorFaculty.obj
 0001:0003fc50       ??_EMotorFaculty@@UAEPAXI@Z 00440c50 f i MotorFaculty.obj
 0001:0003fc50       ??_GMotorFaculty@@UAEPAXI@Z 00440c50 f i MotorFaculty.obj
 0001:0003fc80       ??1MotorFaculty@@UAE@XZ    00440c80 f   MotorFaculty.obj
 0001:0003fca0       ?Update@MotorFaculty@@UAEXXZ 00440ca0 f   MotorFaculty.obj
 0001:00040130       ?GetLocusAddress@MotorFaculty@@UAEPAMHHHH@Z 00441130 f   MotorFaculty.obj
 0001:00040180       ?Write@MotorFaculty@@UBE_NAAVCreaturesArchive@@@Z 00441180 f   MotorFaculty.obj
 0001:00040210       ?Read@MotorFaculty@@UAE_NAAVCreaturesArchive@@@Z 00441210 f   MotorFaculty.obj
 0001:00040390       ?CreateNewMusicFaculty@@YAPAVPersistentObject@@XZ 00441390 f   MusicFaculty.obj
 0001:00040420       ?GetClassNameX@MusicFaculty@@UBEPBDXZ 00441420 f   MusicFaculty.obj
 0001:00040430       ??0MusicFaculty@@QAE@XZ    00441430 f   MusicFaculty.obj
 0001:00040450       ??_EMusicFaculty@@UAEPAXI@Z 00441450 f i MusicFaculty.obj
 0001:00040450       ??_GMusicFaculty@@UAEPAXI@Z 00441450 f i MusicFaculty.obj
 0001:00040480       ??1MusicFaculty@@UAE@XZ    00441480 f   MusicFaculty.obj
 0001:000404a0       ?SelectableByUser@MusicFaculty@@QBE_NXZ 004414a0 f   MusicFaculty.obj
 0001:000405b0       ?Hatching@MusicFaculty@@QBE_NXZ 004415b0 f   MusicFaculty.obj
 0001:000405e0       ?Mood@MusicFaculty@@QBEMXZ 004415e0 f   MusicFaculty.obj
 0001:000406a0       ?Threat@MusicFaculty@@QAEMXZ 004416a0 f   MusicFaculty.obj
 0001:000406b0       ?Write@MusicFaculty@@UBE_NAAVCreaturesArchive@@@Z 004416b0 f   MusicFaculty.obj
 0001:000406d0       ?Read@MusicFaculty@@UAE_NAAVCreaturesArchive@@@Z 004416d0 f   MusicFaculty.obj
 0001:000407c0       ?CreateNewReproductiveFaculty@@YAPAVPersistentObject@@XZ 004417c0 f   ReproductiveFaculty.obj
 0001:00040850       ?GetClassNameX@ReproductiveFaculty@@UBEPBDXZ 00441850 f   ReproductiveFaculty.obj
 0001:00040860       ??0ReproductiveFaculty@@QAE@XZ 00441860 f   ReproductiveFaculty.obj
 0001:000408a0       ??_EReproductiveFaculty@@UAEPAXI@Z 004418a0 f i ReproductiveFaculty.obj
 0001:000408a0       ??_GReproductiveFaculty@@UAEPAXI@Z 004418a0 f i ReproductiveFaculty.obj
 0001:000408d0       ??1ReproductiveFaculty@@UAE@XZ 004418d0 f   ReproductiveFaculty.obj
 0001:000408f0       ?Update@ReproductiveFaculty@@UAEXXZ 004418f0 f   ReproductiveFaculty.obj
 0001:00040960       ?IsPregnant@ReproductiveFaculty@@QAE_NXZ 00441960 f   ReproductiveFaculty.obj
 0001:000409c0       ?DonateSperm@ReproductiveFaculty@@QAEXXZ 004419c0 f   ReproductiveFaculty.obj
 0001:00040ac0       ?AcceptSperm@ReproductiveFaculty@@QAEXVAgentHandle@@EE@Z 00441ac0 f   ReproductiveFaculty.obj
 0001:00041000       ?GetLocusAddress@ReproductiveFaculty@@UAEPAMHHHH@Z 00442000 f   ReproductiveFaculty.obj
 0001:00041090       ?Write@ReproductiveFaculty@@UBE_NAAVCreaturesArchive@@@Z 00442090 f   ReproductiveFaculty.obj
 0001:00041100       ?Read@ReproductiveFaculty@@UAE_NAAVCreaturesArchive@@@Z 00442100 f   ReproductiveFaculty.obj
 0001:00041190       ?GetProgesteroneLevel@ReproductiveFaculty@@QAEMXZ 00442190 f   ReproductiveFaculty.obj
 0001:00041430       ?CreateNewSensoryFaculty@@YAPAVPersistentObject@@XZ 00442430 f   SensoryFaculty.obj
 0001:000414c0       ?GetClassNameX@SensoryFaculty@@UBEPBDXZ 004424c0 f   SensoryFaculty.obj
 0001:000414d0       ??0SensoryFaculty@@QAE@XZ  004424d0 f   SensoryFaculty.obj
 0001:00041870       ?Trash@SensoryFaculty@@UAEXXZ 00442870 f i SensoryFaculty.obj
 0001:00041940       ??_GSensoryFaculty@@UAEPAXI@Z 00442940 f i SensoryFaculty.obj
 0001:00041940       ??_ESensoryFaculty@@UAEPAXI@Z 00442940 f i SensoryFaculty.obj
 0001:00041970       ?PostInit@SensoryFaculty@@UAEXXZ 00442970 f   SensoryFaculty.obj
 0001:00041b60       ??1SensoryFaculty@@UAE@XZ  00442b60 f   SensoryFaculty.obj
 0001:00041cf0       ?Update@SensoryFaculty@@UAEXXZ 00442cf0 f   SensoryFaculty.obj
 0001:00043010       ?SetVisualInput@SensoryFaculty@@QAEXH@Z 00444010 f   SensoryFaculty.obj
 0001:00043150       ?GetCategoryIdOfAgent@SensoryFaculty@@SAHVAgentHandle@@@Z 00444150 f   SensoryFaculty.obj
 0001:000431f0       ?GetCategoryIdOfClassifier@SensoryFaculty@@SAHPBVClassifier@@@Z 004441f0 f   SensoryFaculty.obj
 0001:00043240       ?Stimulate@SensoryFaculty@@QAEXAAVAgentHandle@@HHM_N@Z 00444240 f   SensoryFaculty.obj
 0001:000434d0       ?Stimulate@SensoryFaculty@@QAEXUStimulus@@@Z 004444d0 f   SensoryFaculty.obj
 0001:00043810       ?ReadFromGenome@SensoryFaculty@@UAEXAAVGenome@@@Z 00444810 f   SensoryFaculty.obj
 0001:00043880       ?AdjustChemicalLevel@SensoryFaculty@@QAEXHM@Z 00444880 f   SensoryFaculty.obj
 0001:000438a0       ?AdjustChemicalLevelWithTraining@SensoryFaculty@@QAEXHMHVAgentHandle@@@Z 004448a0 f   SensoryFaculty.obj
 0001:00043ae0       ?Write@SensoryFaculty@@UBE_NAAVCreaturesArchive@@@Z 00444ae0 f   SensoryFaculty.obj
 0001:00043c90       ?Read@SensoryFaculty@@UAE_NAAVCreaturesArchive@@@Z 00444c90 f   SensoryFaculty.obj
 0001:00043f80       ?SetupStaticVariablesFromCatalogue@SensoryFaculty@@SA_NXZ 00444f80 f   SensoryFaculty.obj
 0001:00044460       ?GetCategoryName@SensoryFaculty@@SA?AV?$basic_string@DU?$char_traits@D@std@@V?$allocator@D@2@@std@@H@Z 00445460 f   SensoryFaculty.obj
 0001:000445e0       ?GetNumCategories@SensoryFaculty@@SAHXZ 004455e0 f   SensoryFaculty.obj
 0001:000445f0       ?DistanceToNearestCreature@SensoryFaculty@@IAEMHH@Z 004455f0 f   SensoryFaculty.obj
 0001:00044730       ?PayAttentionToCreature@SensoryFaculty@@QAEHH@Z 00445730 f   SensoryFaculty.obj
 0001:00044760       ?PayAttentionToCreature@SensoryFaculty@@QAEHAAVAgentHandle@@@Z 00445760 f   SensoryFaculty.obj
 0001:00044890       ?AddFriendOrFoe@SensoryFaculty@@IAEHAAVAgentHandle@@@Z 00445890 f   SensoryFaculty.obj
 0001:00045490       ?GetUniqueIdentifier@World@@QBE?AV?$basic_string@DU?$char_traits@D@std@@V?$allocator@D@2@@std@@XZ 00446490 f i SensoryFaculty.obj
 0001:000455e0       ?SetCreatureActingUponMe@SensoryFaculty@@QAEXAAVAgentHandle@@@Z 004465e0 f   SensoryFaculty.obj
 0001:00045650       ?GetOpinionOfCreature@SensoryFaculty@@QAEHAAVAgentHandle@@AAM1@Z 00446650 f   SensoryFaculty.obj
 0001:00045700       ?GetNearestCreatureOrPointer@SensoryFaculty@@QAE?AVAgentHandle@@XZ 00446700 f   SensoryFaculty.obj
 0001:00045880       ?PayAttentionToAgent@SensoryFaculty@@QAEHAAVAgentHandle@@@Z 00446880 f   SensoryFaculty.obj
 0001:00045970       ?SetSeenFriendOrFoe@SensoryFaculty@@IAEXAAVAgentHandle@@@Z 00446970 f   SensoryFaculty.obj
 0001:00045a30       ?ClearSeenFriendsOrFoes@SensoryFaculty@@IAEXXZ 00446a30 f   SensoryFaculty.obj
 0001:00045a90       ?ResolveFriendAndFoe@SensoryFaculty@@QAEXXZ 00446a90 f   SensoryFaculty.obj
 0001:00045e10       ?AssignFriendOrFoeByMoniker@SensoryFaculty@@IAE_NV?$basic_string@DU?$char_traits@D@std@@V?$allocator@D@2@@std@@VAgentHandle@@@Z 00446e10 f   SensoryFaculty.obj
 0001:00045f50       ?RemoveFromAllFriendAndFoe@SensoryFaculty@@SAXVAgentHandle@@@Z 00446f50 f   SensoryFaculty.obj
 0001:00045fe0       ?RemoveFriendAndFoe@SensoryFaculty@@IAEXAAVAgentHandle@@@Z 00446fe0 f   SensoryFaculty.obj
 0001:00046110       ?CleanUpInvalidFriendAgentHandles@SensoryFaculty@@IAEXXZ 00447110 f   SensoryFaculty.obj
 0001:00046150       ?SetupInitialCategoryRepresentativeAlgorithms@SensoryFaculty@@IAEXXZ 00447150 f   SensoryFaculty.obj
 0001:00046380       ?SetCategoryRepresentativeAlgorithm@SensoryFaculty@@QAEXHH@Z 00447380 f   SensoryFaculty.obj
 0001:000463a0       ?GetCategoryRepresentativeAlgorithm@SensoryFaculty@@QAEHH@Z 004473a0 f   SensoryFaculty.obj
 0001:000463c0       ??1?$vector@VAgentHandle@@V?$allocator@VAgentHandle@@@std@@@std@@QAE@XZ 004473c0 f i SensoryFaculty.obj
 0001:00046400       ?size@?$vector@PAVInputPort@@V?$allocator@PAVInputPort@@@std@@@std@@QBEIXZ 00447400 f i SensoryFaculty.obj
 0001:00046400       ?size@?$vector@PAVSoundQueueItem@@V?$allocator@PAVSoundQueueItem@@@std@@@std@@QBEIXZ 00447400 f i SensoryFaculty.obj
 0001:00046400       ?size@?$vector@PAUNeuron@@V?$allocator@PAUNeuron@@@std@@@std@@QBEIXZ 00447400 f i SensoryFaculty.obj
 0001:00046400       ?size@?$vector@PAVMusicLayer@@V?$allocator@PAVMusicLayer@@@std@@@std@@QBEIXZ 00447400 f i SensoryFaculty.obj
 0001:00046400       ?size@?$vector@VAgentHandle@@V?$allocator@VAgentHandle@@@std@@@std@@QBEIXZ 00447400 f i SensoryFaculty.obj
 0001:00046400       ?size@?$vector@PAVPersistentObject@@V?$allocator@PAVPersistentObject@@@std@@@std@@QBEIXZ 00447400 f i SensoryFaculty.obj
 0001:00046400       ?size@?$vector@PAVMacroScript@@V?$allocator@PAVMacroScript@@@std@@@std@@QBEIXZ 00447400 f i SensoryFaculty.obj
 0001:00046400       ?size@?$vector@PAVQueuedSound@MusicLayer@@V?$allocator@PAVQueuedSound@MusicLayer@@@std@@@std@@QBEIXZ 00447400 f i SensoryFaculty.obj
 0001:00046400       ?size@?$vector@P6AXAAVCAOSMachine@@@ZV?$allocator@P6AXAAVCAOSMachine@@@Z@std@@@std@@QBEIXZ 00447400 f i SensoryFaculty.obj
 0001:00046400       ?size@?$vector@PAVVoice@MusicAleotoricLayer@@V?$allocator@PAVVoice@MusicAleotoricLayer@@@std@@@std@@QBEIXZ 00447400 f i SensoryFaculty.obj
 0001:00046400       ?size@?$vector@KV?$allocator@K@std@@@std@@QBEIXZ 00447400 f i SensoryFaculty.obj
 0001:00046400       ?size@?$vector@PAVMusicVariable@@V?$allocator@PAVMusicVariable@@@std@@@std@@QBEIXZ 00447400 f i SensoryFaculty.obj
 0001:00046400       ?size@?$vector@PAVTract@@V?$allocator@PAVTract@@@std@@@std@@QBEIXZ 00447400 f i SensoryFaculty.obj
 0001:00046400       ?size@?$vector@P6AAAVCAOSVar@@AAVCAOSMachine@@@ZV?$allocator@P6AAAVCAOSVar@@AAVCAOSMachine@@@Z@std@@@std@@QBEIXZ 00447400 f i SensoryFaculty.obj
 0001:00046400       ?size@?$vector@PAVBrainComponent@@V?$allocator@PAVBrainComponent@@@std@@@std@@QBEIXZ 00447400 f i SensoryFaculty.obj
 0001:00046400       ?size@?$vector@MV?$allocator@M@std@@@std@@QBEIXZ 00447400 f i SensoryFaculty.obj
 0001:00046400       ?size@?$vector@PAMV?$allocator@PAM@std@@@std@@QBEIXZ 00447400 f i SensoryFaculty.obj
 0001:00046400       ?size@?$vector@PAVLobe@@V?$allocator@PAVLobe@@@std@@@std@@QBEIXZ 00447400 f i SensoryFaculty.obj
 0001:00046400       ?size@?$vector@PAVInstinct@@V?$allocator@PAVInstinct@@@std@@@std@@QBEIXZ 00447400 f i SensoryFaculty.obj
 0001:00046400       ?size@?$vector@PAVCompoundPart@@V?$allocator@PAVCompoundPart@@@std@@@std@@QBEIXZ 00447400 f i SensoryFaculty.obj
 0001:00046400       ?size@?$vector@JV?$allocator@J@std@@@std@@QBEIXZ 00447400 f i SensoryFaculty.obj
 0001:00046400       ?size@?$vector@PAVOutputPort@@V?$allocator@PAVOutputPort@@@std@@@std@@QBEIXZ 00447400 f i SensoryFaculty.obj
 0001:00046400       ?size@?$vector@HV?$allocator@H@std@@@std@@QBEIXZ 00447400 f i SensoryFaculty.obj
 0001:00046400       ?size@?$vector@PAUDendrite@@V?$allocator@PAUDendrite@@@std@@@std@@QBEIXZ 00447400 f i SensoryFaculty.obj
 0001:00046400       ?size@?$vector@P6AXAAVCAOSMachine@@AAV?$basic_string@DU?$char_traits@D@std@@V?$allocator@D@2@@std@@@ZV?$allocator@P6AXAAVCAOSMachine@@AAV?$basic_string@DU?$char_traits@D@std@@V?$allocator@D@2@@std@@@Z@3@@std@@QBEIXZ 00447400 f i SensoryFaculty.obj
 0001:00046400       ?size@?$vector@PAEV?$allocator@PAE@std@@@std@@QBEIXZ 00447400 f i SensoryFaculty.obj
 0001:00046420       ??1?$list@VAgentHandle@@V?$allocator@VAgentHandle@@@std@@@std@@QAE@XZ 00447420 f i SensoryFaculty.obj
 0001:00046490       ??Diterator@?$list@VAgentHandle@@V?$allocator@VAgentHandle@@@std@@@std@@QBEAAVAgentHandle@@XZ 00447490 f i SensoryFaculty.obj
 0001:000464a0       ?insert@?$vector@VAgentHandle@@V?$allocator@VAgentHandle@@@std@@@std@@QAEXPAVAgentHandle@@IABV3@@Z 004474a0 f i SensoryFaculty.obj
 0001:00046720       ?erase@?$vector@VAgentHandle@@V?$allocator@VAgentHandle@@@std@@@std@@QAEPAVAgentHandle@@PAV3@0@Z 00447720 f i SensoryFaculty.obj
 0001:00046790       ?insert@?$vector@VClassifier@@V?$allocator@VClassifier@@@std@@@std@@QAEPAVClassifier@@PAV3@ABV3@@Z 00447790 f i SensoryFaculty.obj
 0001:00046980       ?erase@?$vector@VClassifier@@V?$allocator@VClassifier@@@std@@@std@@QAEPAVClassifier@@PAV3@0@Z 00447980 f i SensoryFaculty.obj
 0001:00046a10       ?_Destroy@?$vector@VClassifier@@V?$allocator@VClassifier@@@std@@@std@@IAEXPAVClassifier@@0@Z 00447a10 f i SensoryFaculty.obj
 0001:00046a40       ?_Buynode@?$list@HV?$allocator@H@std@@@std@@IAEPAU_Node@12@PAU312@0@Z 00447a40 f i SensoryFaculty.obj
 0001:00046a40       ?_Buynode@?$list@Viterator@?$_Tree@KU?$pair@$$CBKViterator@?$list@VAgentHandle@@V?$allocator@VAgentHandle@@@std@@@std@@@std@@U_Kfn@?$map@KViterator@?$list@VAgentHandle@@V?$allocator@VAgentHandle@@@std@@@std@@U?$less@K@3@V?$allocator@Viterator@?$list@VAgentHandle@@V?$allocator@VAgentHandle@@@std@@@std@@@3@@2@U?$less@K@2@V?$allocator@Viterator@?$list@VAgentHandle@@V?$allocator@VAgentHandle@@@std@@@std@@@2@@std@@V?$allocator@Viterator@?$_Tree@KU?$pair@$$CBKViterator@?$list@VAgentHandle@@V?$allocator@VAgentHandle@@@std@@@std@@@std@@U_Kfn@?$map@KViterator@?$list@VAgentHandle@@V?$allocator@VAgentHandle@@@std@@@std@@U?$less@K@3@V?$allocator@Viterator@?$list@VAgentHandle@@V?$allocator@VAgentHandle@@@std@@@std@@@3@@2@U?$less@K@2@V?$allocator@Viterator@?$list@VAgentHandle@@V?$allocator@VAgentHandle@@@std@@@std@@@2@@std@@@3@@std@@IAEPAU_Node@12@PAU312@0@Z 00447a40 f i SensoryFaculty.obj
 0001:00046a40       ?_Buynode@?$list@PAVQueuedSound@MusicLayer@@V?$allocator@PAVQueuedSound@MusicLayer@@@std@@@std@@IAEPAU_Node@12@PAU312@0@Z 00447a40 f i SensoryFaculty.obj
 0001:00046a40       ?_Buynode@?$list@PAVDoor@@V?$allocator@PAVDoor@@@std@@@std@@IAEPAU_Node@12@PAU312@0@Z 00447a40 f i SensoryFaculty.obj
 0001:00046a40       ?_Buynode@?$list@VAgentHandle@@V?$allocator@VAgentHandle@@@std@@@std@@IAEPAU_Node@12@PAU312@0@Z 00447a40 f i SensoryFaculty.obj
 0001:00046a40       ?_Buynode@?$list@PAVDrawableObject@@V?$allocator@PAVDrawableObject@@@std@@@std@@IAEPAU_Node@12@PAU312@0@Z 00447a40 f i SensoryFaculty.obj
 0001:00046a40       ?_Buynode@?$list@PAVControlledSound@MusicLayer@@V?$allocator@PAVControlledSound@MusicLayer@@@std@@@std@@IAEPAU_Node@12@PAU312@0@Z 00447a40 f i SensoryFaculty.obj
 0001:00046a40       ?_Buynode@?$list@PAVLink@@V?$allocator@PAVLink@@@std@@@std@@IAEPAU_Node@12@PAU312@0@Z 00447a40 f i SensoryFaculty.obj
 0001:00046a70       ?size@?$vector@VClassifier@@V?$allocator@VClassifier@@@std@@@std@@QBEIXZ 00447a70 f i SensoryFaculty.obj
 0001:00046aa0       ?_Ucopy@?$vector@VClassifier@@V?$allocator@VClassifier@@@std@@@std@@IAEPAVClassifier@@PBV3@0PAV3@@Z 00447aa0 f i SensoryFaculty.obj
 0001:00046ae0       ?_Ufill@?$vector@VClassifier@@V?$allocator@VClassifier@@@std@@@std@@IAEXPAVClassifier@@IABV3@@Z 00447ae0 f i SensoryFaculty.obj
 0001:00046b10       ??5@YAAAVCreaturesArchive@@AAV0@AAV?$vector@VAgentHandle@@V?$allocator@VAgentHandle@@@std@@@std@@@Z 00447b10 f i SensoryFaculty.obj
 0001:00046cf0       ?_Destroy@?$vector@VAgentHandle@@V?$allocator@VAgentHandle@@@std@@@std@@IAEXPAVAgentHandle@@0@Z 00447cf0 f i SensoryFaculty.obj
 0001:00046d20       ?_Construct@std@@YAXPAVAgentHandle@@ABV2@@Z 00447d20 f i SensoryFaculty.obj
 0001:00046d70       ?fill@std@@YAXPAVClassifier@@0ABV2@@Z 00447d70 f i SensoryFaculty.obj
 0001:00046db0       ?copy_backward@std@@YAPAVClassifier@@PAV2@00@Z 00447db0 f i SensoryFaculty.obj
 0001:00046df0       ?_Construct@std@@YAXPAVClassifier@@ABV2@@Z 00447df0 f i SensoryFaculty.obj
 0001:00046e40       ??_GAgentHandle@@QAEPAXI@Z 00447e40 f i SensoryFaculty.obj
 0001:00046f50       ??0CreatureHistory@@QAE@XZ 00447f50 f   CreatureHistory.obj
 0001:00046fb0       ?AddEvent@CreatureHistory@@QAEXABW4EventType@LifeEvent@@ABV?$basic_string@DU?$char_traits@D@std@@V?$allocator@D@2@@std@@1_N@Z 00447fb0 f   CreatureHistory.obj
 0001:00047360       ?GetWorldName@World@@QBE?AV?$basic_string@DU?$char_traits@D@std@@V?$allocator@D@2@@std@@XZ 00448360 f i CreatureHistory.obj
 0001:000474b0       ??6@YAAAVCreaturesArchive@@AAV0@ABVCreatureHistory@@@Z 004484b0 f   CreatureHistory.obj
 0001:000475b0       ??5@YAAAVCreaturesArchive@@AAV0@AAVCreatureHistory@@@Z 004485b0 f   CreatureHistory.obj
 0001:00047680       ?GetLifeEvent@CreatureHistory@@QAEPAVLifeEvent@@H@Z 00448680 f   CreatureHistory.obj
 0001:00047680       ?GetLifeEvent@CreatureHistory@@QBEPBVLifeEvent@@H@Z 00448680 f   CreatureHistory.obj
 0001:000476d0       ?FindLifeEvent@CreatureHistory@@QAEHABW4EventType@LifeEvent@@H@Z 004486d0 f   CreatureHistory.obj
 0001:00047740       ?FindLifeEventReverse@CreatureHistory@@QAEHABW4EventType@LifeEvent@@H@Z 00448740 f   CreatureHistory.obj
 0001:000477d0       ?SolidCount@CreatureHistory@@QBE?AUSolidIndex@1@XZ 004487d0 f   CreatureHistory.obj
 0001:00047840       ?GetSolidLifeEvent@CreatureHistory@@QAEPAVLifeEvent@@USolidIndex@1@@Z 00448840 f   CreatureHistory.obj
 0001:000478b0       ?insert@?$vector@VLifeEvent@@V?$allocator@VLifeEvent@@@std@@@std@@QAEXPAVLifeEvent@@IABV3@@Z 004488b0 f i CreatureHistory.obj
 0001:00047cd0       ??5@YAAAVCreaturesArchive@@AAV0@AAV?$vector@VLifeEvent@@V?$allocator@VLifeEvent@@@std@@@std@@@Z 00448cd0 f i CreatureHistory.obj
 0001:00047fe0       ?erase@?$vector@VLifeEvent@@V?$allocator@VLifeEvent@@@std@@@std@@QAEPAVLifeEvent@@PAV3@0@Z 00448fe0 f i CreatureHistory.obj
 0001:00048230       ??0CAOSDescription@@QAE@ABV0@@Z 00449230 f i HistoryHandlers.obj
 0001:000483f0       ??4CAOSDescription@@QAEAAV0@ABV0@@Z 004493f0 f i HistoryHandlers.obj
 0001:00048670       ??1CAOSDescription@@QAE@XZ 00449670 f i HistoryHandlers.obj
 0001:000487a0       ?GetScript@CAOSMachine@@QAEPAVMacroScript@@XZ 004497a0 f i HistoryHandlers.obj
 0001:000487b0       ?FetchOp@CAOSMachine@@QAEGXZ 004497b0 f i HistoryHandlers.obj
 0001:000487d0       ?PeekOp@CAOSMachine@@QAEGXZ 004497d0 f i HistoryHandlers.obj
 0001:000487e0       ?FetchInteger@CAOSMachine@@QAEHXZ 004497e0 f i HistoryHandlers.obj
 0001:00048800       ?FetchFloat@CAOSMachine@@QAEMXZ 00449800 f i HistoryHandlers.obj
 0001:00048820       ?FetchString@CAOSMachine@@QAEXAAV?$basic_string@DU?$char_traits@D@std@@V?$allocator@D@2@@std@@@Z 00449820 f i HistoryHandlers.obj
 0001:00048900       ?SetIP@CAOSMachine@@QAEXH@Z 00449900 f i HistoryHandlers.obj
 0001:00048910       ?GetIP@CAOSMachine@@QAEHXZ 00449910 f i HistoryHandlers.obj
 0001:00048920       ?Push@CAOSMachine@@QAEXH@Z 00449920 f i HistoryHandlers.obj
 0001:00048ae0       ?PushString@CAOSMachine@@QAEXABV?$basic_string@DU?$char_traits@D@std@@V?$allocator@D@2@@std@@@Z 00449ae0 f i HistoryHandlers.obj
 0001:00048c90       ?PushHandle@CAOSMachine@@QAEXAAVAgentHandle@@@Z 00449c90 f i HistoryHandlers.obj
 0001:00048e40       ?Pop@CAOSMachine@@QAEHXZ   00449e40 f i HistoryHandlers.obj
 0001:00048e80       ?PopHandle@CAOSMachine@@QAE?AVAgentHandle@@XZ 00449e80 f i HistoryHandlers.obj
 0001:00048f40       ?PopString@CAOSMachine@@QAE?AV?$basic_string@DU?$char_traits@D@std@@V?$allocator@D@2@@std@@XZ 00449f40 f i HistoryHandlers.obj
 0001:00049050       ?GetTarg@CAOSMachine@@QAE?AVAgentHandle@@XZ 0044a050 f i HistoryHandlers.obj
 0001:00049080       ?GetOwner@CAOSMachine@@QAE?AVAgentHandle@@XZ 0044a080 f i HistoryHandlers.obj
 0001:000490b0       ?GetFrom@CAOSMachine@@QAE?AVCAOSVar@@XZ 0044a0b0 f i HistoryHandlers.obj
 0001:000490e0       ?GetIT@CAOSMachine@@QAE?AVAgentHandle@@XZ 0044a0e0 f i HistoryHandlers.obj
 0001:00049110       ?GetPart@CAOSMachine@@QAEHXZ 0044a110 f i HistoryHandlers.obj
 0001:00049120       ?GetCamera@CAOSMachine@@QAEPAVCamera@@XZ 0044a120 f i HistoryHandlers.obj
 0001:00049130       ?SetTarg@CAOSMachine@@QAEXAAVAgentHandle@@@Z 0044a130 f i HistoryHandlers.obj
 0001:00049150       ?SetPart@CAOSMachine@@QAEXH@Z 0044a150 f i HistoryHandlers.obj
 0001:00049160       ?SetCamera@CAOSMachine@@QAEXPAVCamera@@@Z 0044a160 f i HistoryHandlers.obj
 0001:00049170       ?GetCurrentCmd@CAOSMachine@@QAEGXZ 0044a170 f i HistoryHandlers.obj
 0001:00049180       ?IsBlocking@CAOSMachine@@QAE_NXZ 0044a180 f i HistoryHandlers.obj
 0001:00049190       ?GetSecondaryOp@CAOSMachine@@QAEGXZ 0044a190 f i HistoryHandlers.obj
 0001:000491a0       ?SetInstFlag@CAOSMachine@@QAEX_N@Z 0044a1a0 f i HistoryHandlers.obj
 0001:000491b0       ?GetInstFlag@CAOSMachine@@QAE_NXZ 0044a1b0 f i HistoryHandlers.obj
 0001:000491c0       ?GetOutStream@CAOSMachine@@QAEPAV?$basic_ostream@DU?$char_traits@D@std@@@std@@XZ 0044a1c0 f i HistoryHandlers.obj
 0001:000491e0       ?GetInStream@CAOSMachine@@QAEPAV?$basic_istream@DU?$char_traits@D@std@@@std@@XZ 0044a1e0 f i HistoryHandlers.obj
 0001:00049200       ?IsRunning@CAOSMachine@@QAE_NXZ 0044a200 f i HistoryHandlers.obj
 0001:00049210       ?IsLocked@CAOSMachine@@QAE_NXZ 0044a210 f i HistoryHandlers.obj
 0001:00049220       ?ClearQuanta@CAOSMachine@@QAEXXZ 0044a220 f i HistoryHandlers.obj
 0001:00049230       ??0CAOSMachine@@QAE@ABV0@@Z 0044a230 f i HistoryHandlers.obj
 0001:000494f0       ??4CAOSMachine@@QAEAAV0@ABV0@@Z 0044a4f0 f i HistoryHandlers.obj
 0001:00049840       ??_ECAOSMachine@@UAEPAXI@Z 0044a840 f i HistoryHandlers.obj
 0001:000498a0       ?ValidateTarg@CAOSMachine@@QAEXXZ 0044a8a0 f i HistoryHandlers.obj
 0001:000498c0       ?ValidateOwner@CAOSMachine@@QAEXXZ 0044a8c0 f i HistoryHandlers.obj
 0001:000498e0       ?Command_HIST@HistoryHandlers@@SAXAAVCAOSMachine@@@Z 0044a8e0 f   HistoryHandlers.obj
 0001:00049910       ?SubCommand_HIST_EVNT@HistoryHandlers@@CAXAAVCAOSMachine@@@Z 0044a910 f   HistoryHandlers.obj
 0001:00049a10       ?SubCommand_HIST_UTXT@HistoryHandlers@@CAXAAVCAOSMachine@@@Z 0044aa10 f   HistoryHandlers.obj
 0001:00049b60       ?SubCommand_HIST_NAME@HistoryHandlers@@CAXAAVCAOSMachine@@@Z 0044ab60 f   HistoryHandlers.obj
 0001:00049cd0       ?WipeHistoryHelper@HistoryHandlers@@SA_NAAVHistoryStore@@ABV?$basic_string@DU?$char_traits@D@std@@V?$allocator@D@2@@std@@@Z 0044acd0 f   HistoryHandlers.obj
 0001:00049f70       ?SubCommand_HIST_WIPE@HistoryHandlers@@CAXAAVCAOSMachine@@@Z 0044af70 f   HistoryHandlers.obj
 0001:0004a040       ?SubCommand_HIST_FOTO@HistoryHandlers@@CAXAAVCAOSMachine@@@Z 0044b040 f   HistoryHandlers.obj
 0001:0004a220       ?IntegerRV_HIST@HistoryHandlers@@SAHAAVCAOSMachine@@@Z 0044b220 f   HistoryHandlers.obj
 0001:0004a250       ?IntegerRV_HIST_COUN@HistoryHandlers@@CAHAAVCAOSMachine@@@Z 0044b250 f   HistoryHandlers.obj
 0001:0004a370       ?LifeEventHelper@HistoryHandlers@@CAAAVLifeEvent@@AAVCAOSMachine@@@Z 0044b370 f   HistoryHandlers.obj
 0001:0004a430       ?CreatureHistoryHelper@HistoryHandlers@@CAAAVCreatureHistory@@AAVCAOSMachine@@@Z 0044b430 f   HistoryHandlers.obj
 0001:0004a4d0       ?IntegerRV_HIST_TYPE@HistoryHandlers@@CAHAAVCAOSMachine@@@Z 0044b4d0 f   HistoryHandlers.obj
 0001:0004a4f0       ?IntegerRV_HIST_WTIK@HistoryHandlers@@CAHAAVCAOSMachine@@@Z 0044b4f0 f   HistoryHandlers.obj
 0001:0004a510       ?IntegerRV_HIST_TAGE@HistoryHandlers@@CAHAAVCAOSMachine@@@Z 0044b510 f   HistoryHandlers.obj
 0001:0004a530       ?IntegerRV_HIST_RTIM@HistoryHandlers@@CAHAAVCAOSMachine@@@Z 0044b530 f   HistoryHandlers.obj
 0001:0004a550       ?IntegerRV_HIST_CAGE@HistoryHandlers@@CAHAAVCAOSMachine@@@Z 0044b550 f   HistoryHandlers.obj
 0001:0004a570       ?IntegerRV_HIST_GEND@HistoryHandlers@@CAHAAVCAOSMachine@@@Z 0044b570 f   HistoryHandlers.obj
 0001:0004a590       ?IntegerRV_HIST_GNUS@HistoryHandlers@@CAHAAVCAOSMachine@@@Z 0044b590 f   HistoryHandlers.obj
 0001:0004a5b0       ?IntegerRV_HIST_VARI@HistoryHandlers@@CAHAAVCAOSMachine@@@Z 0044b5b0 f   HistoryHandlers.obj
 0001:0004a5d0       ?IntegerRV_HIST_WVET@HistoryHandlers@@CAHAAVCAOSMachine@@@Z 0044b5d0 f   HistoryHandlers.obj
 0001:0004a5f0       ?IntegerRV_HIST_FIND@HistoryHandlers@@CAHAAVCAOSMachine@@@Z 0044b5f0 f   HistoryHandlers.obj
 0001:0004a630       ?IntegerRV_HIST_FINR@HistoryHandlers@@CAHAAVCAOSMachine@@@Z 0044b630 f   HistoryHandlers.obj
 0001:0004a670       ?IntegerRV_HIST_SEAN@HistoryHandlers@@CAHAAVCAOSMachine@@@Z 0044b670 f   HistoryHandlers.obj
 0001:0004a6a0       ?IntegerRV_HIST_TIME@HistoryHandlers@@CAHAAVCAOSMachine@@@Z 0044b6a0 f   HistoryHandlers.obj
 0001:0004a6d0       ?IntegerRV_HIST_YEAR@HistoryHandlers@@CAHAAVCAOSMachine@@@Z 0044b6d0 f   HistoryHandlers.obj
 0001:0004a700       ?IntegerRV_HIST_DATE@HistoryHandlers@@CAHAAVCAOSMachine@@@Z 0044b700 f   HistoryHandlers.obj
 0001:0004a730       ?IntegerRV_HIST_MUTE@HistoryHandlers@@CAHAAVCAOSMachine@@@Z 0044b730 f   HistoryHandlers.obj
 0001:0004a750       ?IntegerRV_HIST_CROS@HistoryHandlers@@CAHAAVCAOSMachine@@@Z 0044b750 f   HistoryHandlers.obj
 0001:0004a770       ?StringRV_HIST@HistoryHandlers@@SAXAAVCAOSMachine@@AAV?$basic_string@DU?$char_traits@D@std@@V?$allocator@D@2@@std@@@Z 0044b770 f   HistoryHandlers.obj
 0001:0004a7b0       ?StringRV_HIST_MON1@HistoryHandlers@@CAXAAVCAOSMachine@@AAV?$basic_string@DU?$char_traits@D@std@@V?$allocator@D@2@@std@@@Z 0044b7b0 f   HistoryHandlers.obj
 0001:0004a910       ?StringRV_HIST_MON2@HistoryHandlers@@CAXAAVCAOSMachine@@AAV?$basic_string@DU?$char_traits@D@std@@V?$allocator@D@2@@std@@@Z 0044b910 f   HistoryHandlers.obj
 0001:0004aa70       ?StringRV_HIST_UTXT@HistoryHandlers@@CAXAAVCAOSMachine@@AAV?$basic_string@DU?$char_traits@D@std@@V?$allocator@D@2@@std@@@Z 0044ba70 f   HistoryHandlers.obj
 0001:0004abd0       ?StringRV_HIST_WNAM@HistoryHandlers@@CAXAAVCAOSMachine@@AAV?$basic_string@DU?$char_traits@D@std@@V?$allocator@D@2@@std@@@Z 0044bbd0 f   HistoryHandlers.obj
 0001:0004ad30       ?StringRV_HIST_WUID@HistoryHandlers@@CAXAAVCAOSMachine@@AAV?$basic_string@DU?$char_traits@D@std@@V?$allocator@D@2@@std@@@Z 0044bd30 f   HistoryHandlers.obj
 0001:0004ae90       ?StringRV_HIST_NAME@HistoryHandlers@@CAXAAVCAOSMachine@@AAV?$basic_string@DU?$char_traits@D@std@@V?$allocator@D@2@@std@@@Z 0044be90 f   HistoryHandlers.obj
 0001:0004aff0       ?StringRV_HIST_NEXT@HistoryHandlers@@CAXAAVCAOSMachine@@AAV?$basic_string@DU?$char_traits@D@std@@V?$allocator@D@2@@std@@@Z 0044bff0 f   HistoryHandlers.obj
 0001:0004b0d0       ?StringRV_HIST_PREV@HistoryHandlers@@CAXAAVCAOSMachine@@AAV?$basic_string@DU?$char_traits@D@std@@V?$allocator@D@2@@std@@@Z 0044c0d0 f   HistoryHandlers.obj
 0001:0004b1b0       ?StringRV_HIST_FOTO@HistoryHandlers@@CAXAAVCAOSMachine@@AAV?$basic_string@DU?$char_traits@D@std@@V?$allocator@D@2@@std@@@Z 0044c1b0 f   HistoryHandlers.obj
 0001:0004b310       ?IntegerRV_OOWW@HistoryHandlers@@SAHAAVCAOSMachine@@@Z 0044c310 f   HistoryHandlers.obj
 0001:0004b3b0       ?StringRV_HIST_NETU@HistoryHandlers@@CAXAAVCAOSMachine@@AAV?$basic_string@DU?$char_traits@D@std@@V?$allocator@D@2@@std@@@Z 0044c3b0 f   HistoryHandlers.obj
 0001:0004b510       ??1?$vector@V?$vector@VOpSpec@@V?$allocator@VOpSpec@@@std@@@std@@V?$allocator@V?$vector@VOpSpec@@V?$allocator@VOpSpec@@@std@@@std@@@2@@std@@QAE@XZ 0044c510 f i HistoryHandlers.obj
 0001:0004b590       ?capacity@?$vector@V?$basic_string@DU?$char_traits@D@std@@V?$allocator@D@2@@std@@V?$allocator@V?$basic_string@DU?$char_traits@D@std@@V?$allocator@D@2@@std@@@2@@std@@QBEIXZ 0044c590 f i HistoryHandlers.obj
 0001:0004b590       ?capacity@?$vector@V?$vector@VOpSpec@@V?$allocator@VOpSpec@@@std@@@std@@V?$allocator@V?$vector@VOpSpec@@V?$allocator@VOpSpec@@@std@@@std@@@2@@std@@QBEIXZ 0044c590 f i HistoryHandlers.obj
 0001:0004b5b0       ?capacity@?$vector@PAVPersistentObject@@V?$allocator@PAVPersistentObject@@@std@@@std@@QBEIXZ 0044c5b0 f i HistoryHandlers.obj
 0001:0004b5b0       ?capacity@?$vector@HV?$allocator@H@std@@@std@@QBEIXZ 0044c5b0 f i HistoryHandlers.obj
 0001:0004b5b0       ?capacity@?$vector@PAMV?$allocator@PAM@std@@@std@@QBEIXZ 0044c5b0 f i HistoryHandlers.obj
 0001:0004b5b0       ?capacity@?$vector@VAgentHandle@@V?$allocator@VAgentHandle@@@std@@@std@@QBEIXZ 0044c5b0 f i HistoryHandlers.obj
 0001:0004b5d0       ?_Ucopy@?$vector@VAgentHandle@@V?$allocator@VAgentHandle@@@std@@@std@@IAEPAVAgentHandle@@PBV3@0PAV3@@Z 0044c5d0 f i HistoryHandlers.obj
 0001:0004b610       ?_Destroy@?$vector@V?$vector@VOpSpec@@V?$allocator@VOpSpec@@@std@@@std@@V?$allocator@V?$vector@VOpSpec@@V?$allocator@VOpSpec@@@std@@@std@@@2@@std@@IAEXPAV?$vector@VOpSpec@@V?$allocator@VOpSpec@@@std@@@2@0@Z 0044c610 f i HistoryHandlers.obj
 0001:0004b670       ?_Ucopy@?$vector@V?$vector@VOpSpec@@V?$allocator@VOpSpec@@@std@@@std@@V?$allocator@V?$vector@VOpSpec@@V?$allocator@VOpSpec@@@std@@@std@@@2@@std@@IAEPAV?$vector@VOpSpec@@V?$allocator@VOpSpec@@@std@@@2@PBV32@0PAV32@@Z 0044c670 f i HistoryHandlers.obj
 0001:0004b6b0       ?_Ufill@?$vector@VAgentHandle@@V?$allocator@VAgentHandle@@@std@@@std@@IAEXPAVAgentHandle@@IABV3@@Z 0044c6b0 f i HistoryHandlers.obj
 0001:0004b6e0       ?copy@std@@YAPAVAgentHandle@@PAV2@00@Z 0044c6e0 f i HistoryHandlers.obj
 0001:0004b6e0       ?copy@std@@YAPAVAgentHandle@@PBV2@0PAV2@@Z 0044c6e0 f i HistoryHandlers.obj
 0001:0004b720       ?copy@std@@YAPAV?$vector@VOpSpec@@V?$allocator@VOpSpec@@@std@@@1@PBV21@0PAV21@@Z 0044c720 f i HistoryHandlers.obj
 0001:0004b940       ?fill@std@@YAXPAVAgentHandle@@0ABV2@@Z 0044c940 f i HistoryHandlers.obj
 0001:0004b970       ?copy_backward@std@@YAPAVAgentHandle@@PAV2@00@Z 0044c970 f i HistoryHandlers.obj
 0001:0004b9b0       ?_Construct@std@@YAXPAV?$vector@VOpSpec@@V?$allocator@VOpSpec@@@std@@@1@ABV21@@Z 0044c9b0 f i HistoryHandlers.obj
 0001:0004bb80       ??0?$vector@VOpSpec@@V?$allocator@VOpSpec@@@std@@@std@@QAE@ABV01@@Z 0044cb80 f i HistoryHandlers.obj
 0001:0004bc00       ??4?$vector@VOpSpec@@V?$allocator@VOpSpec@@@std@@@std@@QAEAAV01@ABV01@@Z 0044cc00 f i HistoryHandlers.obj
 0001:0004be00       ?_Destroy@?$vector@VOpSpec@@V?$allocator@VOpSpec@@@std@@@std@@IAEXPAVOpSpec@@0@Z 0044ce00 f i HistoryHandlers.obj
 0001:0004be30       ?_Ucopy@?$vector@VOpSpec@@V?$allocator@VOpSpec@@@std@@@std@@IAEPAVOpSpec@@PBV3@0PAV3@@Z 0044ce30 f i HistoryHandlers.obj
 0001:0004be70       ?_Construct@std@@YAXPAVOpSpec@@ABV2@@Z 0044ce70 f i HistoryHandlers.obj
 0001:0004bfc0       ??4OpSpec@@QAEAAV0@ABV0@@Z 0044cfc0 f i HistoryHandlers.obj
 0001:0004c2a0       ??_GOpSpec@@QAEPAXI@Z      0044d2a0 f i HistoryHandlers.obj
 0001:0004c2d0       ??1OpSpec@@QAE@XZ          0044d2d0 f i HistoryHandlers.obj
 0001:0004c4b0       ?GetCreatureHistory@HistoryStore@@QAEAAVCreatureHistory@@ABV?$basic_string@DU?$char_traits@D@std@@V?$allocator@D@2@@std@@@Z 0044d4b0 f   HistoryStore.obj
 0001:0004c620       ?IsThereCreatureHistory@HistoryStore@@QBE_NABV?$basic_string@DU?$char_traits@D@std@@V?$allocator@D@2@@std@@@Z 0044d620 f   HistoryStore.obj
 0001:0004c690       ??6@YAAAVCreaturesArchive@@AAV0@ABVHistoryStore@@@Z 0044d690 f   HistoryStore.obj
 0001:0004c710       ??5@YAAAVCreaturesArchive@@AAV0@AAVHistoryStore@@@Z 0044d710 f   HistoryStore.obj
 0001:0004c730       ?Next@HistoryStore@@QAE?AV?$basic_string@DU?$char_traits@D@std@@V?$allocator@D@2@@std@@ABV23@@Z 0044d730 f   HistoryStore.obj
 0001:0004c890       ?Previous@HistoryStore@@QAE?AV?$basic_string@DU?$char_traits@D@std@@V?$allocator@D@2@@std@@ABV23@@Z 0044d890 f   HistoryStore.obj
 0001:0004ca00       ?WipeCreatureHistory@HistoryStore@@QAEXABV?$basic_string@DU?$char_traits@D@std@@V?$allocator@D@2@@std@@@Z 0044da00 f   HistoryStore.obj
 0001:0004ca60       ?ReconcileImportedHistory@HistoryStore@@QAE_NABV?$basic_string@DU?$char_traits@D@std@@V?$allocator@D@2@@std@@AAVCreatureHistory@@_N@Z 0044da60 f   HistoryStore.obj
 0001:0004d0c0       ?GetOutOfWorldState@HistoryStore@@QAEHABV?$basic_string@DU?$char_traits@D@std@@V?$allocator@D@2@@std@@@Z 0044e0c0 f   HistoryStore.obj
 0001:0004d3b0       ??4?$vector@VLifeEvent@@V?$allocator@VLifeEvent@@@std@@@std@@QAEAAV01@ABV01@@Z 0044e3b0 f i HistoryStore.obj
 0001:0004d660       ?insert@?$vector@VLifeEvent@@V?$allocator@VLifeEvent@@@std@@@std@@QAEXPAVLifeEvent@@PBV3@1@Z 0044e660 f i HistoryStore.obj
 0001:0004dab0       ??A?$map@V?$basic_string@DU?$char_traits@D@std@@V?$allocator@D@2@@std@@VCreatureHistory@@U?$less@V?$basic_string@DU?$char_traits@D@std@@V?$allocator@D@2@@std@@@2@V?$allocator@VCreatureHistory@@@2@@std@@QAEAAVCreatureHistory@@ABV?$basic_string@DU?$char_traits@D@std@@V?$allocator@D@2@@1@@Z 0044eab0 f i HistoryStore.obj
 0001:0004dc30       ??1?$vector@VLifeEvent@@V?$allocator@VLifeEvent@@@std@@@std@@QAE@XZ 0044ec30 f i HistoryStore.obj
 0001:0004dc70       ?find@?$_Tree@V?$basic_string@DU?$char_traits@D@std@@V?$allocator@D@2@@std@@U?$pair@$$CBV?$basic_string@DU?$char_traits@D@std@@V?$allocator@D@2@@std@@J@2@U_Kfn@?$map@V?$basic_string@DU?$char_traits@D@std@@V?$allocator@D@2@@std@@JU?$less@V?$basic_string@DU?$char_traits@D@std@@V?$allocator@D@2@@std@@@2@V?$allocator@J@2@@2@U?$less@V?$basic_string@DU?$char_traits@D@std@@V?$allocator@D@2@@std@@@2@V?$allocator@J@2@@std@@QAE?AViterator@12@ABV?$basic_string@DU?$char_traits@D@std@@V?$allocator@D@2@@2@@Z 0044ec70 f i HistoryStore.obj
 0001:0004dc70       ?find@?$map@V?$basic_string@DU?$char_traits@D@std@@V?$allocator@D@2@@std@@UTagStruct@Catalogue@@U?$less@V?$basic_string@DU?$char_traits@D@std@@V?$allocator@D@2@@std@@@2@V?$allocator@UTagStruct@Catalogue@@@2@@std@@QBE?AVconst_iterator@?$_Tree@V?$basic_string@DU?$char_traits@D@std@@V?$allocator@D@2@@std@@U?$pair@$$CBV?$basic_string@DU?$char_traits@D@std@@V?$allocator@D@2@@std@@UTagStruct@Catalogue@@@2@U_Kfn@?$map@V?$basic_string@DU?$char_traits@D@std@@V?$allocator@D@2@@std@@UTagStruct@Catalogue@@U?$less@V?$basic_string@DU?$char_traits@D@std@@V?$allocator@D@2@@std@@@2@V?$allocator@UTagStruct@Catalogue@@@2@@2@U?$less@V?$basic_string@DU?$char_traits@D@std@@V?$allocator@D@2@@std@@@2@V?$allocator@UTagStruct@Catalogue@@@2@@2@ABV?$basic_string@DU?$char_traits@D@std@@V?$allocator@D@2@@2@@Z 0044ec70 f i HistoryStore.obj
 0001:0004dc70       ?find@?$_Tree@V?$basic_string@DU?$char_traits@D@std@@V?$allocator@D@2@@std@@U?$pair@$$CBV?$basic_string@DU?$char_traits@D@std@@V?$allocator@D@2@@std@@PAVGallery@@@2@U_Kfn@?$map@V?$basic_string@DU?$char_traits@D@std@@V?$allocator@D@2@@std@@PAVGallery@@U?$less@V?$basic_string@DU?$char_traits@D@std@@V?$allocator@D@2@@std@@@2@V?$allocator@PAVGallery@@@2@@2@U?$less@V?$basic_string@DU?$char_traits@D@std@@V?$allocator@D@2@@std@@@2@V?$allocator@PAVGallery@@@2@@std@@QAE?AViterator@12@ABV?$basic_string@DU?$char_traits@D@std@@V?$allocator@D@2@@2@@Z 0044ec70 f i HistoryStore.obj
 0001:0004dc70       ?find@?$_Tree@V?$basic_string@DU?$char_traits@D@std@@V?$allocator@D@2@@std@@U?$pair@$$CBV?$basic_string@DU?$char_traits@D@std@@V?$allocator@D@2@@std@@U?$pair@HV?$basic_string@DU?$char_traits@D@std@@V?$allocator@D@2@@std@@@2@@2@U_Kfn@?$map@V?$basic_string@DU?$char_traits@D@std@@V?$allocator@D@2@@std@@U?$pair@HV?$basic_string@DU?$char_traits@D@std@@V?$allocator@D@2@@std@@@2@U?$less@V?$basic_string@DU?$char_traits@D@std@@V?$allocator@D@2@@std@@@2@V?$allocator@U?$pair@HV?$basic_string@DU?$char_traits@D@std@@V?$allocator@D@2@@std@@@std@@@2@@2@U?$less@V?$basic_string@DU?$char_traits@D@std@@V?$allocator@D@2@@std@@@2@V?$allocator@U?$pair@HV?$basic_string@DU?$char_traits@D@std@@V?$allocator@D@2@@std@@@std@@@2@@std@@QAE?AViterator@12@ABV?$basic_string@DU?$char_traits@D@std@@V?$allocator@D@2@@2@@Z 0044ec70 f i HistoryStore.obj
 0001:0004dc70       ?find@?$_Tree@V?$basic_string@DU?$char_traits@D@std@@V?$allocator@D@2@@std@@U?$pair@$$CBV?$basic_string@DU?$char_traits@D@std@@V?$allocator@D@2@@std@@UTagStruct@Catalogue@@@2@U_Kfn@?$map@V?$basic_string@DU?$char_traits@D@std@@V?$allocator@D@2@@std@@UTagStruct@Catalogue@@U?$less@V?$basic_string@DU?$char_traits@D@std@@V?$allocator@D@2@@std@@@2@V?$allocator@UTagStruct@Catalogue@@@2@@2@U?$less@V?$basic_string@DU?$char_traits@D@std@@V?$allocator@D@2@@std@@@2@V?$allocator@UTagStruct@Catalogue@@@2@@std@@QBE?AVconst_iterator@12@ABV?$basic_string@DU?$char_traits@D@std@@V?$allocator@D@2@@2@@Z 0044ec70 f i HistoryStore.obj
 0001:0004dc70       ?find@?$_Tree@V?$basic_string@DU?$char_traits@D@std@@V?$allocator@D@2@@std@@U?$pair@$$CBV?$basic_string@DU?$char_traits@D@std@@V?$allocator@D@2@@std@@UTagStruct@Catalogue@@@2@U_Kfn@?$map@V?$basic_string@DU?$char_traits@D@std@@V?$allocator@D@2@@std@@UTagStruct@Catalogue@@U?$less@V?$basic_string@DU?$char_traits@D@std@@V?$allocator@D@2@@std@@@2@V?$allocator@UTagStruct@Catalogue@@@2@@2@U?$less@V?$basic_string@DU?$char_traits@D@std@@V?$allocator@D@2@@std@@@2@V?$allocator@UTagStruct@Catalogue@@@2@@std@@QAE?AViterator@12@ABV?$basic_string@DU?$char_traits@D@std@@V?$allocator@D@2@@2@@Z 0044ec70 f i HistoryStore.obj
 0001:0004dc70       ?find@?$_Tree@V?$basic_string@DU?$char_traits@D@std@@V?$allocator@D@2@@std@@U?$pair@$$CBV?$basic_string@DU?$char_traits@D@std@@V?$allocator@D@2@@std@@V12@@2@U_Kfn@?$map@V?$basic_string@DU?$char_traits@D@std@@V?$allocator@D@2@@std@@V12@U?$less@V?$basic_string@DU?$char_traits@D@std@@V?$allocator@D@2@@std@@@2@V?$allocator@V?$basic_string@DU?$char_traits@D@std@@V?$allocator@D@2@@std@@@2@@2@U?$less@V?$basic_string@DU?$char_traits@D@std@@V?$allocator@D@2@@std@@@2@V?$allocator@V?$basic_string@DU?$char_traits@D@std@@V?$allocator@D@2@@std@@@2@@std@@QBE?AVconst_iterator@12@ABV?$basic_string@DU?$char_traits@D@std@@V?$allocator@D@2@@2@@Z 0044ec70 f i HistoryStore.obj
 0001:0004dc70       ?find@?$_Tree@V?$basic_string@DU?$char_traits@D@std@@V?$allocator@D@2@@std@@U?$pair@$$CBV?$basic_string@DU?$char_traits@D@std@@V?$allocator@D@2@@std@@VPrayChunkPtr@@@2@U_Kfn@?$map@V?$basic_string@DU?$char_traits@D@std@@V?$allocator@D@2@@std@@VPrayChunkPtr@@U?$less@V?$basic_string@DU?$char_traits@D@std@@V?$allocator@D@2@@std@@@2@V?$allocator@VPrayChunkPtr@@@2@@2@U?$less@V?$basic_string@DU?$char_traits@D@std@@V?$allocator@D@2@@std@@@2@V?$allocator@VPrayChunkPtr@@@2@@std@@QAE?AViterator@12@ABV?$basic_string@DU?$char_traits@D@std@@V?$allocator@D@2@@2@@Z 0044ec70 f i HistoryStore.obj
 0001:0004dc70       ?find@?$_Tree@V?$basic_string@DU?$char_traits@D@std@@V?$allocator@D@2@@std@@U?$pair@$$CBV?$basic_string@DU?$char_traits@D@std@@V?$allocator@D@2@@std@@VCAOSVar@@@2@U_Kfn@?$map@V?$basic_string@DU?$char_traits@D@std@@V?$allocator@D@2@@std@@VCAOSVar@@U?$less@V?$basic_string@DU?$char_traits@D@std@@V?$allocator@D@2@@std@@@2@V?$allocator@VCAOSVar@@@2@@2@U?$less@V?$basic_string@DU?$char_traits@D@std@@V?$allocator@D@2@@std@@@2@V?$allocator@VCAOSVar@@@2@@std@@QAE?AViterator@12@ABV?$basic_string@DU?$char_traits@D@std@@V?$allocator@D@2@@2@@Z 0044ec70 f i HistoryStore.obj
 0001:0004dc70       ?find@?$_Tree@V?$basic_string@DU?$char_traits@D@std@@V?$allocator@D@2@@std@@U?$pair@$$CBV?$basic_string@DU?$char_traits@D@std@@V?$allocator@D@2@@std@@VCreatureHistory@@@2@U_Kfn@?$map@V?$basic_string@DU?$char_traits@D@std@@V?$allocator@D@2@@std@@VCreatureHistory@@U?$less@V?$basic_string@DU?$char_traits@D@std@@V?$allocator@D@2@@std@@@2@V?$allocator@VCreatureHistory@@@2@@2@U?$less@V?$basic_string@DU?$char_traits@D@std@@V?$allocator@D@2@@std@@@2@V?$allocator@VCreatureHistory@@@2@@std@@QAE?AViterator@12@ABV?$basic_string@DU?$char_traits@D@std@@V?$allocator@D@2@@2@@Z 0044ec70 f i HistoryStore.obj
 0001:0004dd00       ?_Dec@iterator@?$_Tree@V?$basic_string@DU?$char_traits@D@std@@V?$allocator@D@2@@std@@U?$pair@$$CBV?$basic_string@DU?$char_traits@D@std@@V?$allocator@D@2@@std@@VCreatureHistory@@@2@U_Kfn@?$map@V?$basic_string@DU?$char_traits@D@std@@V?$allocator@D@2@@std@@VCreatureHistory@@U?$less@V?$basic_string@DU?$char_traits@D@std@@V?$allocator@D@2@@std@@@2@V?$allocator@VCreatureHistory@@@2@@2@U?$less@V?$basic_string@DU?$char_traits@D@std@@V?$allocator@D@2@@std@@@2@V?$allocator@VCreatureHistory@@@2@@std@@QAEXXZ 0044ed00 f i HistoryStore.obj
 0001:0004dd60       ?insert@?$_Tree@V?$basic_string@DU?$char_traits@D@std@@V?$allocator@D@2@@std@@U?$pair@$$CBV?$basic_string@DU?$char_traits@D@std@@V?$allocator@D@2@@std@@VCreatureHistory@@@2@U_Kfn@?$map@V?$basic_string@DU?$char_traits@D@std@@V?$allocator@D@2@@std@@VCreatureHistory@@U?$less@V?$basic_string@DU?$char_traits@D@std@@V?$allocator@D@2@@std@@@2@V?$allocator@VCreatureHistory@@@2@@2@U?$less@V?$basic_string@DU?$char_traits@D@std@@V?$allocator@D@2@@std@@@2@V?$allocator@VCreatureHistory@@@2@@std@@QAE?AU?$pair@Viterator@?$_Tree@V?$basic_string@DU?$char_traits@D@std@@V?$allocator@D@2@@std@@U?$pair@$$CBV?$basic_string@DU?$char_traits@D@std@@V?$allocator@D@2@@std@@VCreatureHistory@@@2@U_Kfn@?$map@V?$basic_string@DU?$char_traits@D@std@@V?$allocator@D@2@@std@@VCreatureHistory@@U?$less@V?$basic_string@DU?$char_traits@D@std@@V?$allocator@D@2@@std@@@2@V?$allocator@VCreatureHistory@@@2@@2@U?$less@V?$basic_string@DU?$char_traits@D@std@@V?$allocator@D@2@@std@@@2@V?$allocator@VCreatureHistory@@@2@@std@@_N@2@ABU?$pair@$$CBV?$basic_string@DU?$char_traits@D@std@@V?$allocator@D@2@@std@@VCreatureHistory@@@2@@Z 0044ed60 f i HistoryStore.obj
 0001:0004dfd0       ?_Min@?$_Tree@V?$basic_string@DU?$char_traits@D@std@@V?$allocator@D@2@@std@@U?$pair@$$CBV?$basic_string@DU?$char_traits@D@std@@V?$allocator@D@2@@std@@VCreatureHistory@@@2@U_Kfn@?$map@V?$basic_string@DU?$char_traits@D@std@@V?$allocator@D@2@@std@@VCreatureHistory@@U?$less@V?$basic_string@DU?$char_traits@D@std@@V?$allocator@D@2@@std@@@2@V?$allocator@VCreatureHistory@@@2@@2@U?$less@V?$basic_string@DU?$char_traits@D@std@@V?$allocator@D@2@@std@@@2@V?$allocator@VCreatureHistory@@@2@@std@@KAPAU_Node@12@PAU312@@Z 0044efd0 f i HistoryStore.obj
 0001:0004dff0       ?_Buynode@?$_Tree@V?$basic_string@DU?$char_traits@D@std@@V?$allocator@D@2@@std@@U?$pair@$$CBV?$basic_string@DU?$char_traits@D@std@@V?$allocator@D@2@@std@@VCreatureHistory@@@2@U_Kfn@?$map@V?$basic_string@DU?$char_traits@D@std@@V?$allocator@D@2@@std@@VCreatureHistory@@U?$less@V?$basic_string@DU?$char_traits@D@std@@V?$allocator@D@2@@std@@@2@V?$allocator@VCreatureHistory@@@2@@2@U?$less@V?$basic_string@DU?$char_traits@D@std@@V?$allocator@D@2@@std@@@2@V?$allocator@VCreatureHistory@@@2@@std@@IAEPAU_Node@12@PAU312@D@Z 0044eff0 f i HistoryStore.obj
 0001:0004e020       ?_Insert@?$_Tree@V?$basic_string@DU?$char_traits@D@std@@V?$allocator@D@2@@std@@U?$pair@$$CBV?$basic_string@DU?$char_traits@D@std@@V?$allocator@D@2@@std@@VCreatureHistory@@@2@U_Kfn@?$map@V?$basic_string@DU?$char_traits@D@std@@V?$allocator@D@2@@std@@VCreatureHistory@@U?$less@V?$basic_string@DU?$char_traits@D@std@@V?$allocator@D@2@@std@@@2@V?$allocator@VCreatureHistory@@@2@@2@U?$less@V?$basic_string@DU?$char_traits@D@std@@V?$allocator@D@2@@std@@@2@V?$allocator@VCreatureHistory@@@2@@std@@IAE?AViterator@12@PAU_Node@12@0ABU?$pair@$$CBV?$basic_string@DU?$char_traits@D@std@@V?$allocator@D@2@@std@@VCreatureHistory@@@2@@Z 0044f020 f i HistoryStore.obj
 0001:0004e270       ?_Lbound@?$_Tree@V?$basic_string@DU?$char_traits@D@std@@V?$allocator@D@2@@std@@U?$pair@$$CBV?$basic_string@DU?$char_traits@D@std@@V?$allocator@D@2@@std@@VCreatureHistory@@@2@U_Kfn@?$map@V?$basic_string@DU?$char_traits@D@std@@V?$allocator@D@2@@std@@VCreatureHistory@@U?$less@V?$basic_string@DU?$char_traits@D@std@@V?$allocator@D@2@@std@@@2@V?$allocator@VCreatureHistory@@@2@@2@U?$less@V?$basic_string@DU?$char_traits@D@std@@V?$allocator@D@2@@std@@@2@V?$allocator@VCreatureHistory@@@2@@std@@IBEPAU_Node@12@ABV?$basic_string@DU?$char_traits@D@std@@V?$allocator@D@2@@2@@Z 0044f270 f i HistoryStore.obj
 0001:0004e270       ?_Lbound@?$_Tree@V?$basic_string@DU?$char_traits@D@std@@V?$allocator@D@2@@std@@U?$pair@$$CBV?$basic_string@DU?$char_traits@D@std@@V?$allocator@D@2@@std@@H@2@U_Kfn@?$map@V?$basic_string@DU?$char_traits@D@std@@V?$allocator@D@2@@std@@HU?$less@V?$basic_string@DU?$char_traits@D@std@@V?$allocator@D@2@@std@@@2@V?$allocator@H@2@@2@U?$less@V?$basic_string@DU?$char_traits@D@std@@V?$allocator@D@2@@std@@@2@V?$allocator@H@2@@std@@IBEPAU_Node@12@ABV?$basic_string@DU?$char_traits@D@std@@V?$allocator@D@2@@2@@Z 0044f270 f i HistoryStore.obj
 0001:0004e270       ?_Lbound@?$_Tree@V?$basic_string@DU?$char_traits@D@std@@V?$allocator@D@2@@std@@U?$pair@$$CBV?$basic_string@DU?$char_traits@D@std@@V?$allocator@D@2@@std@@UTagStruct@Catalogue@@@2@U_Kfn@?$map@V?$basic_string@DU?$char_traits@D@std@@V?$allocator@D@2@@std@@UTagStruct@Catalogue@@U?$less@V?$basic_string@DU?$char_traits@D@std@@V?$allocator@D@2@@std@@@2@V?$allocator@UTagStruct@Catalogue@@@2@@2@U?$less@V?$basic_string@DU?$char_traits@D@std@@V?$allocator@D@2@@std@@@2@V?$allocator@UTagStruct@Catalogue@@@2@@std@@IBEPAU_Node@12@ABV?$basic_string@DU?$char_traits@D@std@@V?$allocator@D@2@@2@@Z 0044f270 f i HistoryStore.obj
 0001:0004e270       ?_Lbound@?$_Tree@V?$basic_string@DU?$char_traits@D@std@@V?$allocator@D@2@@std@@U?$pair@$$CBV?$basic_string@DU?$char_traits@D@std@@V?$allocator@D@2@@std@@VCAOSVar@@@2@U_Kfn@?$map@V?$basic_string@DU?$char_traits@D@std@@V?$allocator@D@2@@std@@VCAOSVar@@U?$less@V?$basic_string@DU?$char_traits@D@std@@V?$allocator@D@2@@std@@@2@V?$allocator@VCAOSVar@@@2@@2@U?$less@V?$basic_string@DU?$char_traits@D@std@@V?$allocator@D@2@@std@@@2@V?$allocator@VCAOSVar@@@2@@std@@IBEPAU_Node@12@ABV?$basic_string@DU?$char_traits@D@std@@V?$allocator@D@2@@2@@Z 0044f270 f i HistoryStore.obj
 0001:0004e270       ?_Lbound@?$_Tree@V?$basic_string@DU?$char_traits@D@std@@V?$allocator@D@2@@std@@U?$pair@$$CBV?$basic_string@DU?$char_traits@D@std@@V?$allocator@D@2@@std@@V12@@2@U_Kfn@?$map@V?$basic_string@DU?$char_traits@D@std@@V?$allocator@D@2@@std@@V12@U?$less@V?$basic_string@DU?$char_traits@D@std@@V?$allocator@D@2@@std@@@2@V?$allocator@V?$basic_string@DU?$char_traits@D@std@@V?$allocator@D@2@@std@@@2@@2@U?$less@V?$basic_string@DU?$char_traits@D@std@@V?$allocator@D@2@@std@@@2@V?$allocator@V?$basic_string@DU?$char_traits@D@std@@V?$allocator@D@2@@std@@@2@@std@@IBEPAU_Node@12@ABV?$basic_string@DU?$char_traits@D@std@@V?$allocator@D@2@@2@@Z 0044f270 f i HistoryStore.obj
 0001:0004e270       ?_Lbound@?$_Tree@V?$basic_string@DU?$char_traits@D@std@@V?$allocator@D@2@@std@@V12@U_Kfn@?$set@V?$basic_string@DU?$char_traits@D@std@@V?$allocator@D@2@@std@@U?$less@V?$basic_string@DU?$char_traits@D@std@@V?$allocator@D@2@@std@@@2@V?$allocator@V?$basic_string@DU?$char_traits@D@std@@V?$allocator@D@2@@std@@@2@@2@U?$less@V?$basic_string@DU?$char_traits@D@std@@V?$allocator@D@2@@std@@@2@V?$allocator@V?$basic_string@DU?$char_traits@D@std@@V?$allocator@D@2@@std@@@2@@std@@IBEPAU_Node@12@ABV?$basic_string@DU?$char_traits@D@std@@V?$allocator@D@2@@2@@Z 0044f270 f i HistoryStore.obj
 0001:0004e2c0       ??5@YAAAVCreaturesArchive@@AAV0@AAV?$map@V?$basic_string@DU?$char_traits@D@std@@V?$allocator@D@2@@std@@VCreatureHistory@@U?$less@V?$basic_string@DU?$char_traits@D@std@@V?$allocator@D@2@@std@@@2@V?$allocator@VCreatureHistory@@@2@@std@@@Z 0044f2c0 f i HistoryStore.obj
 0001:0004e5c0       ??6@YAAAVCreaturesArchive@@AAV0@ABVLifeEvent@@@Z 0044f5c0 f   LifeEvent.obj
 0001:0004e680       ??5@YAAAVCreaturesArchive@@AAV0@AAVLifeEvent@@@Z 0044f680 f   LifeEvent.obj
 0001:0004e7d0       ??8LifeEvent@@QAE_NAAV0@@Z 0044f7d0 f   LifeEvent.obj
 0001:0004e870       ??0LifeEvent@@QAE@XZ       0044f870 f   LifeEvent.obj
 0001:0004e940       ?CreaturePresentForEvent@LifeEvent@@SA_NW4EventType@1@@Z 0044f940 f   LifeEvent.obj
 0001:0004e990       ?CreaturePresentForEvent@LifeEvent@@QBE_NXZ 0044f990 f   LifeEvent.obj
 0001:0004ea80       ?Command_DCOR@AgentHandlers@@SAXAAVCAOSMachine@@@Z 0044fa80 f   AgentHandlers.obj
 0001:0004eb10       ?IntegerRV_TCOR@AgentHandlers@@SAHAAVCAOSMachine@@@Z 0044fb10 f   AgentHandlers.obj
 0001:0004ec10       ?Command_CORE@AgentHandlers@@SAXAAVCAOSMachine@@@Z 0044fc10 f   AgentHandlers.obj
 0001:0004ed00       ?Command_VARC@AgentHandlers@@SAXAAVCAOSMachine@@@Z 0044fd00 f   AgentHandlers.obj
 0001:0004ee00       ?FloatRV_VARC@AgentHandlers@@SAMAAVCAOSMachine@@@Z 0044fe00 f   AgentHandlers.obj
 0001:0004ee90       ?Command_ROTN@AgentHandlers@@SAXAAVCAOSMachine@@@Z 0044fe90 f   AgentHandlers.obj
 0001:0004ef20       ?FloatRV_AVEL@AgentHandlers@@SAMAAVCAOSMachine@@@Z 0044ff20 f   AgentHandlers.obj
 0001:0004efa0       ?Command_AVEL@AgentHandlers@@SAXAAVCAOSMachine@@@Z 0044ffa0 f   AgentHandlers.obj
 0001:0004f0a0       ?FloatRV_FVEL@AgentHandlers@@SAMAAVCAOSMachine@@@Z 004500a0 f   AgentHandlers.obj
 0001:0004f120       ?Command_FVEL@AgentHandlers@@SAXAAVCAOSMachine@@@Z 00450120 f   AgentHandlers.obj
 0001:0004f1b0       ?FloatRV_SVEL@AgentHandlers@@SAMAAVCAOSMachine@@@Z 004501b0 f   AgentHandlers.obj
 0001:0004f230       ?Command_SVEL@AgentHandlers@@SAXAAVCAOSMachine@@@Z 00450230 f   AgentHandlers.obj
 0001:0004f2c0       ?FloatRV_SPIN@AgentHandlers@@SAMAAVCAOSMachine@@@Z 004502c0 f   AgentHandlers.obj
 0001:0004f350       ?Command_SPIN@AgentHandlers@@SAXAAVCAOSMachine@@@Z 00450350 f   AgentHandlers.obj
 0001:0004f450       ?FloatRV_ANGL@AgentHandlers@@SAMAAVCAOSMachine@@@Z 00450450 f   AgentHandlers.obj
 0001:0004f520       ?FloatRV_VECX@AgentHandlers@@SAMAAVCAOSMachine@@@Z 00450520 f   AgentHandlers.obj
 0001:0004f600       ?FloatRV_VECY@AgentHandlers@@SAMAAVCAOSMachine@@@Z 00450600 f   AgentHandlers.obj
 0001:0004f6e0       ?FloatRV_ADMP@AgentHandlers@@SAMAAVCAOSMachine@@@Z 004506e0 f   AgentHandlers.obj
 0001:0004f760       ?Command_ADMP@AgentHandlers@@SAXAAVCAOSMachine@@@Z 00450760 f   AgentHandlers.obj
 0001:0004f820       ?FloatRV_FDMP@AgentHandlers@@SAMAAVCAOSMachine@@@Z 00450820 f   AgentHandlers.obj
 0001:0004f8a0       ?Command_FDMP@AgentHandlers@@SAXAAVCAOSMachine@@@Z 004508a0 f   AgentHandlers.obj
 0001:0004f960       ?FloatRV_SDMP@AgentHandlers@@SAMAAVCAOSMachine@@@Z 00450960 f   AgentHandlers.obj
 0001:0004f9e0       ?Command_SDMP@AgentHandlers@@SAXAAVCAOSMachine@@@Z 004509e0 f   AgentHandlers.obj
 0001:0004faa0       ?Command_CALL@AgentHandlers@@SAXAAVCAOSMachine@@@Z 00450aa0 f   AgentHandlers.obj
 0001:0004fc10       ?Command_VOIS@AgentHandlers@@SAXAAVCAOSMachine@@@Z 00450c10 f   AgentHandlers.obj
 0001:0004fce0       ?Command_VOIC@AgentHandlers@@SAXAAVCAOSMachine@@@Z 00450ce0 f   AgentHandlers.obj
 0001:0004fd80       ?StringRV_VOIS@AgentHandlers@@SAXAAVCAOSMachine@@AAV?$basic_string@DU?$char_traits@D@std@@V?$allocator@D@2@@std@@@Z 00450d80 f   AgentHandlers.obj
 0001:0004ff40       ?Command_SEZZ@AgentHandlers@@SAXAAVCAOSMachine@@@Z 00450f40 f   AgentHandlers.obj
 0001:00050010       ?SubCommand_NEW_SIMP@AgentHandlers@@CAXAAVCAOSMachine@@@Z 00451010 f   AgentHandlers.obj
 0001:00050230       ?SubCommand_NEW_VHCL@AgentHandlers@@CAXAAVCAOSMachine@@@Z 00451230 f   AgentHandlers.obj
 0001:00050410       ?SubCommand_NEW_COMP@AgentHandlers@@CAXAAVCAOSMachine@@@Z 00451410 f   AgentHandlers.obj
 0001:000505f0       ?SubCommand_NEW_CREA@AgentHandlers@@CAXAAVCAOSMachine@@@Z 004515f0 f   AgentHandlers.obj
 0001:00050830       ?SubCommand_NEW_CRAG@AgentHandlers@@CAXAAVCAOSMachine@@@Z 00451830 f   AgentHandlers.obj
 0001:00050ab0       ?Command_NEW@AgentHandlers@@SAXAAVCAOSMachine@@@Z 00451ab0 f   AgentHandlers.obj
 0001:00050ae0       ?Command_KILL@AgentHandlers@@SAXAAVCAOSMachine@@@Z 00451ae0 f   AgentHandlers.obj
 0001:00050bc0       ?Command_BASE@AgentHandlers@@SAXAAVCAOSMachine@@@Z 00451bc0 f   AgentHandlers.obj
 0001:00050c70       ?IntegerRV_BASE@AgentHandlers@@SAHAAVCAOSMachine@@@Z 00451c70 f   AgentHandlers.obj
 0001:00050cf0       ?IntegerRV_ABBA@AgentHandlers@@SAHAAVCAOSMachine@@@Z 00451cf0 f   AgentHandlers.obj
 0001:00050d70       ?IntegerRV_PNXT@AgentHandlers@@SAHAAVCAOSMachine@@@Z 00451d70 f   AgentHandlers.obj
 0001:00050e40       ?Command_POSE@AgentHandlers@@SAXAAVCAOSMachine@@@Z 00451e40 f   AgentHandlers.obj
 0001:00050f20       ?Command_ANIM@AgentHandlers@@SAXAAVCAOSMachine@@@Z 00451f20 f   AgentHandlers.obj
 0001:00051020       ?Command_FRAT@AgentHandlers@@SAXAAVCAOSMachine@@@Z 00452020 f   AgentHandlers.obj
 0001:00051120       ?Command_ANMS@AgentHandlers@@SAXAAVCAOSMachine@@@Z 00452120 f   AgentHandlers.obj
 0001:00051340       ?Command_OVER@AgentHandlers@@SAXAAVCAOSMachine@@@Z 00452340 f   AgentHandlers.obj
 0001:00051440       ?Command_MVSF@AgentHandlers@@SAXAAVCAOSMachine@@@Z 00452440 f   AgentHandlers.obj
 0001:00051520       ?Command_MVTO@AgentHandlers@@SAXAAVCAOSMachine@@@Z 00452520 f   AgentHandlers.obj
 0001:00051540       ?Command_FLTO@AgentHandlers@@SAXAAVCAOSMachine@@@Z 00452540 f   AgentHandlers.obj
 0001:00051560       ?MoveAndFloatHelper@AgentHandlers@@CAXAAVCAOSMachine@@_N@Z 00452560 f   AgentHandlers.obj
 0001:00051700       ?Command_MVBY@AgentHandlers@@SAXAAVCAOSMachine@@@Z 00452700 f   AgentHandlers.obj
 0001:00051810       ?Command_PERM@AgentHandlers@@SAXAAVCAOSMachine@@@Z 00452810 f   AgentHandlers.obj
 0001:000518f0       ?Command_TICK@AgentHandlers@@SAXAAVCAOSMachine@@@Z 004528f0 f   AgentHandlers.obj
 0001:00051970       ?Command_MESG@AgentHandlers@@SAXAAVCAOSMachine@@@Z 00452970 f   AgentHandlers.obj
 0001:000519a0       ?SubCommand_MESG_WRIT@AgentHandlers@@CAXAAVCAOSMachine@@@Z 004529a0 f   AgentHandlers.obj
 0001:00051a60       ?SubCommand_MESG_WRT@AgentHandlers@@CAXAAVCAOSMachine@@@Z 00452a60 f   AgentHandlers.obj
 0001:00051cc0       ?Command_PART@AgentHandlers@@SAXAAVCAOSMachine@@@Z 00452cc0 f   AgentHandlers.obj
 0001:00051ce0       ?Command_GPAS@AgentHandlers@@SAXAAVCAOSMachine@@@Z 00452ce0 f   AgentHandlers.obj
 0001:00051de0       ?Command_DPAS@AgentHandlers@@SAXAAVCAOSMachine@@@Z 00452de0 f   AgentHandlers.obj
 0001:00051ed0       ?Command_CABN@AgentHandlers@@SAXAAVCAOSMachine@@@Z 00452ed0 f   AgentHandlers.obj
 0001:00051ff0       ?IntegerRV_CABL@AgentHandlers@@SAHAAVCAOSMachine@@@Z 00452ff0 f   AgentHandlers.obj
 0001:000520d0       ?IntegerRV_CABR@AgentHandlers@@SAHAAVCAOSMachine@@@Z 004530d0 f   AgentHandlers.obj
 0001:000521b0       ?IntegerRV_CABB@AgentHandlers@@SAHAAVCAOSMachine@@@Z 004531b0 f   AgentHandlers.obj
 0001:00052290       ?IntegerRV_CABT@AgentHandlers@@SAHAAVCAOSMachine@@@Z 00453290 f   AgentHandlers.obj
 0001:00052370       ?Command_CABP@AgentHandlers@@SAXAAVCAOSMachine@@@Z 00453370 f   AgentHandlers.obj
 0001:00052450       ?IntegerRV_CABP@AgentHandlers@@SAHAAVCAOSMachine@@@Z 00453450 f   AgentHandlers.obj
 0001:00052510       ?Command_SPAS@AgentHandlers@@SAXAAVCAOSMachine@@@Z 00453510 f   AgentHandlers.obj
 0001:000525b0       ?Command_RPAS@AgentHandlers@@SAXAAVCAOSMachine@@@Z 004535b0 f   AgentHandlers.obj
 0001:00052650       ?Command_EPAS@AgentHandlers@@SAXAAVCAOSMachine@@@Z 00453650 f   AgentHandlers.obj
 0001:00052840       ?Variable_OVnn@AgentHandlers@@SAAAVCAOSVar@@AAVCAOSMachine@@@Z 00453840 f   AgentHandlers.obj
 0001:000528d0       ?Variable_MVnn@AgentHandlers@@SAAAVCAOSVar@@AAVCAOSMachine@@@Z 004538d0 f   AgentHandlers.obj
 0001:00052960       ?Variable_AVAR@AgentHandlers@@SAAAVCAOSVar@@AAVCAOSMachine@@@Z 00453960 f   AgentHandlers.obj
 0001:00052a10       ?Variable_VELX@AgentHandlers@@SAAAVCAOSVar@@AAVCAOSMachine@@@Z 00453a10 f   AgentHandlers.obj
 0001:00052a90       ?Variable_VELY@AgentHandlers@@SAAAVCAOSVar@@AAVCAOSMachine@@@Z 00453a90 f   AgentHandlers.obj
 0001:00052b10       ?Command_VELO@AgentHandlers@@SAXAAVCAOSMachine@@@Z 00453b10 f   AgentHandlers.obj
 0001:00052bb0       ?IntegerRV_FALL@AgentHandlers@@SAHAAVCAOSMachine@@@Z 00453bb0 f   AgentHandlers.obj
 0001:00052c30       ?IntegerRV_ELAS@AgentHandlers@@SAHAAVCAOSMachine@@@Z 00453c30 f   AgentHandlers.obj
 0001:00052cb0       ?IntegerRV_TMVT@AgentHandlers@@SAHAAVCAOSMachine@@@Z 00453cb0 f   AgentHandlers.obj
 0001:00052d90       ?IntegerRV_TMVB@AgentHandlers@@SAHAAVCAOSMachine@@@Z 00453d90 f   AgentHandlers.obj
 0001:00052e30       ?IntegerRV_TMVF@AgentHandlers@@SAHAAVCAOSMachine@@@Z 00453e30 f   AgentHandlers.obj
 0001:00052e80       ?IntegerRV_AERO@AgentHandlers@@SAHAAVCAOSMachine@@@Z 00453e80 f   AgentHandlers.obj
 0001:00052f00       ?IntegerRV_PERM@AgentHandlers@@SAHAAVCAOSMachine@@@Z 00453f00 f   AgentHandlers.obj
 0001:00052f80       ?FloatRV_ACCG@AgentHandlers@@SAMAAVCAOSMachine@@@Z 00453f80 f   AgentHandlers.obj
 0001:00053000       ?FloatRV_FLTX@AgentHandlers@@SAMAAVCAOSMachine@@@Z 00454000 f   AgentHandlers.obj
 0001:00053090       ?FloatRV_FLTY@AgentHandlers@@SAMAAVCAOSMachine@@@Z 00454090 f   AgentHandlers.obj
 0001:00053120       ?IntegerRV_FRIC@AgentHandlers@@SAHAAVCAOSMachine@@@Z 00454120 f   AgentHandlers.obj
 0001:000531a0       ?IntegerRV_ATTR@AgentHandlers@@SAHAAVCAOSMachine@@@Z 004541a0 f   AgentHandlers.obj
 0001:00053220       ?IntegerRV_IMSK@AgentHandlers@@SAHAAVCAOSMachine@@@Z 00454220 f   AgentHandlers.obj
 0001:000532a0       ?IntegerRV_WDTH@AgentHandlers@@SAHAAVCAOSMachine@@@Z 004542a0 f   AgentHandlers.obj
 0001:00053330       ?FloatRV_OBST@AgentHandlers@@SAMAAVCAOSMachine@@@Z 00454330 f   AgentHandlers.obj
 0001:000533c0       ?IntegerRV_WALL@AgentHandlers@@SAHAAVCAOSMachine@@@Z 004543c0 f   AgentHandlers.obj
 0001:00053440       ?IntegerRV_MOVS@AgentHandlers@@SAHAAVCAOSMachine@@@Z 00454440 f   AgentHandlers.obj
 0001:000534c0       ?IntegerRV_HGHT@AgentHandlers@@SAHAAVCAOSMachine@@@Z 004544c0 f   AgentHandlers.obj
 0001:00053550       ?IntegerRV_FMLY@AgentHandlers@@SAHAAVCAOSMachine@@@Z 00454550 f   AgentHandlers.obj
 0001:000535e0       ?IntegerRV_GNUS@AgentHandlers@@SAHAAVCAOSMachine@@@Z 004545e0 f   AgentHandlers.obj
 0001:00053670       ?IntegerRV_SPCS@AgentHandlers@@SAHAAVCAOSMachine@@@Z 00454670 f   AgentHandlers.obj
 0001:000536f0       ?IntegerRV_UNID@AgentHandlers@@SAHAAVCAOSMachine@@@Z 004546f0 f   AgentHandlers.obj
 0001:00053770       ?AgentRV_AGNT@AgentHandlers@@SA?AVAgentHandle@@AAVCAOSMachine@@@Z 00454770 f   AgentHandlers.obj
 0001:000537a0       ?IntegerRV_TOUC@AgentHandlers@@SAHAAVCAOSMachine@@@Z 004547a0 f   AgentHandlers.obj
 0001:000538c0       ?IntegerRV_SEEE@AgentHandlers@@SAHAAVCAOSMachine@@@Z 004548c0 f   AgentHandlers.obj
 0001:000539e0       ?IntegerRV_TOTL@AgentHandlers@@SAHAAVCAOSMachine@@@Z 004549e0 f   AgentHandlers.obj
 0001:00053ad0       ?IntegerRV_CLAC@AgentHandlers@@SAHAAVCAOSMachine@@@Z 00454ad0 f   AgentHandlers.obj
 0001:00053b60       ?IntegerRV_CLIK@AgentHandlers@@SAHAAVCAOSMachine@@@Z 00454b60 f   AgentHandlers.obj
 0001:00053cb0       ?IntegerRV_TICK@AgentHandlers@@SAHAAVCAOSMachine@@@Z 00454cb0 f   AgentHandlers.obj
 0001:00053d30       ?Command_CLAC@AgentHandlers@@SAXAAVCAOSMachine@@@Z 00454d30 f   AgentHandlers.obj
 0001:00053dd0       ?Command_CLIK@AgentHandlers@@SAXAAVCAOSMachine@@@Z 00454dd0 f   AgentHandlers.obj
 0001:00053eb0       ?Command_ATTR@AgentHandlers@@SAXAAVCAOSMachine@@@Z 00454eb0 f   AgentHandlers.obj
 0001:00053fc0       ?Command_FRIC@AgentHandlers@@SAXAAVCAOSMachine@@@Z 00454fc0 f   AgentHandlers.obj
 0001:00054060       ?Command_IMSK@AgentHandlers@@SAXAAVCAOSMachine@@@Z 00455060 f   AgentHandlers.obj
 0001:000540e0       ?Command_ACCG@AgentHandlers@@SAXAAVCAOSMachine@@@Z 004550e0 f   AgentHandlers.obj
 0001:00054190       ?Command_ELAS@AgentHandlers@@SAXAAVCAOSMachine@@@Z 00455190 f   AgentHandlers.obj
 0001:00054220       ?Command_AERO@AgentHandlers@@SAXAAVCAOSMachine@@@Z 00455220 f   AgentHandlers.obj
 0001:000542c0       ?Command_GALL@AgentHandlers@@SAXAAVCAOSMachine@@@Z 004552c0 f   AgentHandlers.obj
 0001:00054600       ?StringRV_GALL@AgentHandlers@@SAXAAVCAOSMachine@@AAV?$basic_string@DU?$char_traits@D@std@@V?$allocator@D@2@@std@@@Z 00455600 f   AgentHandlers.obj
 0001:000547e0       ?IntegerRV_POSE@AgentHandlers@@SAHAAVCAOSMachine@@@Z 004557e0 f   AgentHandlers.obj
 0001:00054860       ?FloatRV_POSX@AgentHandlers@@SAMAAVCAOSMachine@@@Z 00455860 f   AgentHandlers.obj
 0001:000548f0       ?FloatRV_POSY@AgentHandlers@@SAMAAVCAOSMachine@@@Z 004558f0 f   AgentHandlers.obj
 0001:00054980       ?FloatRV_DISQ@AgentHandlers@@SAMAAVCAOSMachine@@@Z 00455980 f   AgentHandlers.obj
 0001:00054a60       ?FloatRV_POSL@AgentHandlers@@SAMAAVCAOSMachine@@@Z 00455a60 f   AgentHandlers.obj
 0001:00054af0       ?FloatRV_POSR@AgentHandlers@@SAMAAVCAOSMachine@@@Z 00455af0 f   AgentHandlers.obj
 0001:00054b70       ?FloatRV_POST@AgentHandlers@@SAMAAVCAOSMachine@@@Z 00455b70 f   AgentHandlers.obj
 0001:00054c00       ?FloatRV_POSB@AgentHandlers@@SAMAAVCAOSMachine@@@Z 00455c00 f   AgentHandlers.obj
 0001:00054c80       ?AgentRV_PNTR@AgentHandlers@@SA?AVAgentHandle@@AAVCAOSMachine@@@Z 00455c80 f   AgentHandlers.obj
 0001:00054cb0       ?AgentRV_NULL@AgentHandlers@@SA?AVAgentHandle@@AAVCAOSMachine@@@Z 00455cb0 f   AgentHandlers.obj
 0001:00054ce0       ?AgentRV_NORN@AgentHandlers@@SA?AVAgentHandle@@AAVCAOSMachine@@@Z 00455ce0 f   AgentHandlers.obj
 0001:00054d10       ?AgentRV_HELD@AgentHandlers@@SA?AVAgentHandle@@AAVCAOSMachine@@@Z 00455d10 f   AgentHandlers.obj
 0001:00054da0       ?AgentRV_CARR@AgentHandlers@@SA?AVAgentHandle@@AAVCAOSMachine@@@Z 00455da0 f   AgentHandlers.obj
 0001:00054e30       ?Command_STAR@AgentHandlers@@SAXAAVCAOSMachine@@@Z 00455e30 f   AgentHandlers.obj
 0001:00054f90       ?Command_TTAR@AgentHandlers@@SAXAAVCAOSMachine@@@Z 00455f90 f   AgentHandlers.obj
 0001:00055130       ?Command_RTAR@AgentHandlers@@SAXAAVCAOSMachine@@@Z 00456130 f   AgentHandlers.obj
 0001:00055250       ?Command_PLNE@AgentHandlers@@SAXAAVCAOSMachine@@@Z 00456250 f   AgentHandlers.obj
 0001:000552e0       ?Command_RNGE@AgentHandlers@@SAXAAVCAOSMachine@@@Z 004562e0 f   AgentHandlers.obj
 0001:000553a0       ?Command_PUPT@AgentHandlers@@SAXAAVCAOSMachine@@@Z 004563a0 f   AgentHandlers.obj
 0001:00055450       ?Command_PUHL@AgentHandlers@@SAXAAVCAOSMachine@@@Z 00456450 f   AgentHandlers.obj
 0001:00055500       ?FloatRV_RELX@AgentHandlers@@SAMAAVCAOSMachine@@@Z 00456500 f   AgentHandlers.obj
 0001:000555e0       ?FloatRV_RELY@AgentHandlers@@SAMAAVCAOSMachine@@@Z 004565e0 f   AgentHandlers.obj
 0001:000556c0       ?IntegerRV_PLNE@AgentHandlers@@SAHAAVCAOSMachine@@@Z 004566c0 f   AgentHandlers.obj
 0001:00055740       ?IntegerRV_PUPT@AgentHandlers@@SAHAAVCAOSMachine@@@Z 00456740 f   AgentHandlers.obj
 0001:00055800       ?IntegerRV_PUHL@AgentHandlers@@SAHAAVCAOSMachine@@@Z 00456800 f   AgentHandlers.obj
 0001:000558c0       ?FloatRV_RNGE@AgentHandlers@@SAMAAVCAOSMachine@@@Z 004568c0 f   AgentHandlers.obj
 0001:00055940       ?IntegerRV_BHVR@AgentHandlers@@SAHAAVCAOSMachine@@@Z 00456940 f   AgentHandlers.obj
 0001:000559c0       ?Command_BHVR@AgentHandlers@@SAXAAVCAOSMachine@@@Z 004569c0 f   AgentHandlers.obj
 0001:00055a60       ?Command_MOUS@AgentHandlers@@SAXAAVCAOSMachine@@@Z 00456a60 f   AgentHandlers.obj
 0001:00055aa0       ?Command_PURE@AgentHandlers@@SAXAAVCAOSMachine@@@Z 00456aa0 f   AgentHandlers.obj
 0001:00055ae0       ?IntegerRV_PURE@AgentHandlers@@SAHAAVCAOSMachine@@@Z 00456ae0 f   AgentHandlers.obj
 0001:00055b10       ?AgentRV_HOTS@AgentHandlers@@SA?AVAgentHandle@@AAVCAOSMachine@@@Z 00456b10 f   AgentHandlers.obj
 0001:00055bc0       ?IntegerRV_HOTP@AgentHandlers@@SAHAAVCAOSMachine@@@Z 00456bc0 f   AgentHandlers.obj
 0001:00055ce0       ?AgentRV_TWIN@AgentHandlers@@SA?AVAgentHandle@@AAVCAOSMachine@@@Z 00456ce0 f   AgentHandlers.obj
 0001:000560f0       ??0strstreambuf@std@@QAE@PBDH@Z 004570f0 f i AgentHandlers.obj
 0001:000561e0       ??_Estrstreambuf@std@@UAEPAXI@Z 004571e0 f i AgentHandlers.obj
 0001:000561e0       ??_Gstrstreambuf@std@@UAEPAXI@Z 004571e0 f i AgentHandlers.obj
 0001:00056210       ??_Gistrstream@std@@UAEPAXI@Z 00457210 f i AgentHandlers.obj
 0001:00056210       ??_Eistrstream@std@@UAEPAXI@Z 00457210 f i AgentHandlers.obj
 0001:00056250       ??_Distrstream@std@@QAEXXZ 00457250 f i AgentHandlers.obj
 0001:00056270       ?Command_PAUS@AgentHandlers@@SAXAAVCAOSMachine@@@Z 00457270 f   AgentHandlers.obj
 0001:000562f0       ?IntegerRV_PAUS@AgentHandlers@@SAHAAVCAOSMachine@@@Z 004572f0 f   AgentHandlers.obj
 0001:00056370       ?IntegerRV_VISI@AgentHandlers@@SAHAAVCAOSMachine@@@Z 00457370 f   AgentHandlers.obj
 0001:00056400       ?IntegerRV_TYPE@AgentHandlers@@SAHAAVCAOSMachine@@@Z 00457400 f   AgentHandlers.obj
 0001:00056550       ?Command_STPT@AgentHandlers@@SAXAAVCAOSMachine@@@Z 00457550 f   AgentHandlers.obj
 0001:000565d0       ?AgentRV_NCLS@AgentHandlers@@SA?AVAgentHandle@@AAVCAOSMachine@@@Z 004575d0 f   AgentHandlers.obj
 0001:000566a0       ?AgentRV_PCLS@AgentHandlers@@SA?AVAgentHandle@@AAVCAOSMachine@@@Z 004576a0 f   AgentHandlers.obj
 0001:00056770       ?Command_FREL@AgentHandlers@@SAXAAVCAOSMachine@@@Z 00457770 f   AgentHandlers.obj
 0001:000567f0       ?Command_SHOW@AgentHandlers@@SAXAAVCAOSMachine@@@Z 004577f0 f   AgentHandlers.obj
 0001:000568b0       ?IntegerRV_MOWS@AgentHandlers@@SAHAAVCAOSMachine@@@Z 004578b0 f   AgentHandlers.obj
 0001:000569d0       ?Command_NEWC@AgentHandlers@@SAXAAVCAOSMachine@@@Z 004579d0 f   AgentHandlers.obj
 0001:00056c10       ?Command_CABW@AgentHandlers@@SAXAAVCAOSMachine@@@Z 00457c10 f   AgentHandlers.obj
 0001:00056ce0       ?IntegerRV_MIRA@AgentHandlers@@SAHAAVCAOSMachine@@@Z 00457ce0 f   AgentHandlers.obj
 0001:00056d60       ?Command_MIRA@AgentHandlers@@SAXAAVCAOSMachine@@@Z 00457d60 f   AgentHandlers.obj
 0001:00056e20       ?Command_CABV@AgentHandlers@@SAXAAVCAOSMachine@@@Z 00457e20 f   AgentHandlers.obj
 0001:00056ef0       ?IntegerRV_CABV@AgentHandlers@@SAHAAVCAOSMachine@@@Z 00457ef0 f   AgentHandlers.obj
 0001:00056fb0       ?StringRV_HAND@AgentHandlers@@SAXAAVCAOSMachine@@AAV?$basic_string@DU?$char_traits@D@std@@V?$allocator@D@2@@std@@@Z 00457fb0 f   AgentHandlers.obj
 0001:00057120       ?Command_HAND@AgentHandlers@@SAXAAVCAOSMachine@@@Z 00458120 f   AgentHandlers.obj
 0001:00057230       ?Variable_NAME@AgentHandlers@@SAAAVCAOSVar@@AAVCAOSMachine@@@Z 00458230 f   AgentHandlers.obj
 0001:000573a0       ?Variable_MAME@AgentHandlers@@SAAAVCAOSVar@@AAVCAOSMachine@@@Z 004583a0 f   AgentHandlers.obj
 0001:00057510       ?Command_DELN@AgentHandlers@@SAXAAVCAOSMachine@@@Z 00458510 f   AgentHandlers.obj
 0001:00057670       ?Command_NAMN@AgentHandlers@@SAXAAVCAOSMachine@@@Z 00458670 f   AgentHandlers.obj
 0001:000576f0       ?Command_DROP@AgentHandlers@@SAXAAVCAOSMachine@@@Z 004586f0 f   AgentHandlers.obj
 0001:00057810       ?IntegerRV_TINT@AgentHandlers@@SAHAAVCAOSMachine@@@Z 00458810 f   AgentHandlers.obj
 0001:000578c0       ?IntegerRV_TRAN@AgentHandlers@@SAHAAVCAOSMachine@@@Z 004588c0 f   AgentHandlers.obj
 0001:00057970       ?Command_UCLN@AgentHandlers@@SAXAAVCAOSMachine@@@Z 00458970 f   AgentHandlers.obj
 0001:000579f0       ??0?$fpos@H@std@@QAE@J@Z   004589f0 f i AgentHandlers.obj
 0001:00057a30       ?insert@?$vector@EV?$allocator@E@std@@@std@@QAEXPAEIABE@Z 00458a30 f i AgentHandlers.obj
 0001:00057c10       ?erase@?$list@VAgentHandle@@V?$allocator@VAgentHandle@@@std@@@std@@QAE?AViterator@12@V312@@Z 00458c10 f i AgentHandlers.obj
 0001:00057d30       ?Command_PAT@CompoundHandlers@@SAXAAVCAOSMachine@@@Z 00458d30 f   CompoundHandlers.obj
 0001:00057d60       ?Command_PTXT@CompoundHandlers@@SAXAAVCAOSMachine@@@Z 00458d60 f   CompoundHandlers.obj
 0001:00057ed0       ?IntegerRV_NPGS@CompoundHandlers@@SAHAAVCAOSMachine@@@Z 00458ed0 f   CompoundHandlers.obj
 0001:00057fd0       ?IntegerRV_PAGE@CompoundHandlers@@SAHAAVCAOSMachine@@@Z 00458fd0 f   CompoundHandlers.obj
 0001:000580d0       ?Command_PAGE@CompoundHandlers@@SAXAAVCAOSMachine@@@Z 004590d0 f   CompoundHandlers.obj
 0001:000581e0       ?Command_FRMT@CompoundHandlers@@SAXAAVCAOSMachine@@@Z 004591e0 f   CompoundHandlers.obj
 0001:00058390       ?Command_GRPL@CompoundHandlers@@SAXAAVCAOSMachine@@@Z 00459390 f   CompoundHandlers.obj
 0001:000584d0       ?Command_GRPV@CompoundHandlers@@SAXAAVCAOSMachine@@@Z 004594d0 f   CompoundHandlers.obj
 0001:000585f0       ?Command_FCUS@CompoundHandlers@@SAXAAVCAOSMachine@@@Z 004595f0 f   CompoundHandlers.obj
 0001:00058740       ?Command_SCAM@CompoundHandlers@@SAXAAVCAOSMachine@@@Z 00459740 f   CompoundHandlers.obj
 0001:00058820       ?StringRV_PTXT@CompoundHandlers@@SAXAAVCAOSMachine@@AAV?$basic_string@DU?$char_traits@D@std@@V?$allocator@D@2@@std@@@Z 00459820 f   CompoundHandlers.obj
 0001:00058a50       ?SubCommand_PAT_DULL@CompoundHandlers@@CAXAAVCAOSMachine@@@Z 00459a50 f   CompoundHandlers.obj
 0001:00058cf0       ?SubCommand_PAT_BUTT@CompoundHandlers@@CAXAAVCAOSMachine@@@Z 00459cf0 f   CompoundHandlers.obj
 0001:00058fd0       ?SubCommand_PAT_TEXT@CompoundHandlers@@CAXAAVCAOSMachine@@@Z 00459fd0 f   CompoundHandlers.obj
 0001:000592a0       ?SubCommand_PAT_FIXD@CompoundHandlers@@CAXAAVCAOSMachine@@@Z 0045a2a0 f   CompoundHandlers.obj
 0001:00059560       ?SubCommand_PAT_GRPH@CompoundHandlers@@CAXAAVCAOSMachine@@@Z 0045a560 f   CompoundHandlers.obj
 0001:000597c0       ?SubCommand_PAT_CMRA@CompoundHandlers@@CAXAAVCAOSMachine@@@Z 0045a7c0 f   CompoundHandlers.obj
 0001:00059aa0       ?SubCommand_PAT_KILL@CompoundHandlers@@CAXAAVCAOSMachine@@@Z 0045aaa0 f   CompoundHandlers.obj
 0001:00059b60       ?IntegerRV_PART@CompoundHandlers@@SAHAAVCAOSMachine@@@Z 0045ab60 f   CompoundHandlers.obj
 0001:00059c30       ?SubCommand_PAT_MOVE@CompoundHandlers@@CAXAAVCAOSMachine@@@Z 0045ac30 f   CompoundHandlers.obj
 0001:00059d10       ?insert@?$vector@EV?$allocator@E@std@@@std@@QAEXPAEPBE1@Z 0045ad10 f i CompoundHandlers.obj
 0001:00059fe0       ?Command_STEP@CreatureHandlers@@SAXAAVCAOSMachine@@@Z 0045afe0 f   CreatureHandlers.obj
 0001:0005a020       ?Command_SOUL@CreatureHandlers@@SAXAAVCAOSMachine@@@Z 0045b020 f   CreatureHandlers.obj
 0001:0005a070       ?IntegerRV_SOUL@CreatureHandlers@@SAHAAVCAOSMachine@@@Z 0045b070 f   CreatureHandlers.obj
 0001:0005a0c0       ?Command_DSEE@CreatureHandlers@@SAXAAVCAOSMachine@@@Z 0045b0c0 f   CreatureHandlers.obj
 0001:0005a0e0       ?Command_MOTR@CreatureHandlers@@SAXAAVCAOSMachine@@@Z 0045b0e0 f   CreatureHandlers.obj
 0001:0005a120       ?IntegerRV_MOTR@CreatureHandlers@@SAHAAVCAOSMachine@@@Z 0045b120 f   CreatureHandlers.obj
 0001:0005a150       ?Command_MIND@CreatureHandlers@@SAXAAVCAOSMachine@@@Z 0045b150 f   CreatureHandlers.obj
 0001:0005a190       ?IntegerRV_MIND@CreatureHandlers@@SAHAAVCAOSMachine@@@Z 0045b190 f   CreatureHandlers.obj
 0001:0005a1c0       ?AgentRV_SEEN@CreatureHandlers@@SA?AVAgentHandle@@AAVCAOSMachine@@@Z 0045b1c0 f   CreatureHandlers.obj
 0001:0005a250       ?Command_DOIN@CreatureHandlers@@SAXAAVCAOSMachine@@@Z 0045b250 f   CreatureHandlers.obj
 0001:0005a2a0       ?Command_ADIN@CreatureHandlers@@SAXAAVCAOSMachine@@@Z 0045b2a0 f   CreatureHandlers.obj
 0001:0005a310       ?Command_CALG@CreatureHandlers@@SAXAAVCAOSMachine@@@Z 0045b310 f   CreatureHandlers.obj
 0001:0005a350       ?IntegerRV_CALG@CreatureHandlers@@SAHAAVCAOSMachine@@@Z 0045b350 f   CreatureHandlers.obj
 0001:0005a380       ?Command_PLMD@CreatureHandlers@@SAXAAVCAOSMachine@@@Z 0045b380 f   CreatureHandlers.obj
 0001:0005a670       ?Command_PLMU@CreatureHandlers@@SAXAAVCAOSMachine@@@Z 0045b670 f   CreatureHandlers.obj
 0001:0005a960       ?FloatRV_MTHX@CreatureHandlers@@SAMAAVCAOSMachine@@@Z 0045b960 f   CreatureHandlers.obj
 0001:0005a990       ?FloatRV_MTHY@CreatureHandlers@@SAMAAVCAOSMachine@@@Z 0045b990 f   CreatureHandlers.obj
 0001:0005a9c0       ?Command_WALK@CreatureHandlers@@SAXAAVCAOSMachine@@@Z 0045b9c0 f   CreatureHandlers.obj
 0001:0005a9e0       ?Command_MVFT@CreatureHandlers@@SAXAAVCAOSMachine@@@Z 0045b9e0 f   CreatureHandlers.obj
 0001:0005aa90       ?Command_GAIT@CreatureHandlers@@SAXAAVCAOSMachine@@@Z 0045ba90 f   CreatureHandlers.obj
 0001:0005aad0       ?Command_DIRN@CreatureHandlers@@SAXAAVCAOSMachine@@@Z 0045bad0 f   CreatureHandlers.obj
 0001:0005ab10       ?IntegerRV_DIRN@CreatureHandlers@@SAHAAVCAOSMachine@@@Z 0045bb10 f   CreatureHandlers.obj
 0001:0005ab30       ?Command_APPR@CreatureHandlers@@SAXAAVCAOSMachine@@@Z 0045bb30 f   CreatureHandlers.obj
 0001:0005ab70       ?AgentRV_HHLD@CreatureHandlers@@SA?AVAgentHandle@@AAVCAOSMachine@@@Z 0045bb70 f   CreatureHandlers.obj
 0001:0005aba0       ?Command_NOHH@CreatureHandlers@@SAXAAVCAOSMachine@@@Z 0045bba0 f   CreatureHandlers.obj
 0001:0005ac60       ?Command_HAIR@CreatureHandlers@@SAXAAVCAOSMachine@@@Z 0045bc60 f   CreatureHandlers.obj
 0001:0005ac90       ?FloatRV_DFTX@CreatureHandlers@@SAMAAVCAOSMachine@@@Z 0045bc90 f   CreatureHandlers.obj
 0001:0005acc0       ?FloatRV_DFTY@CreatureHandlers@@SAMAAVCAOSMachine@@@Z 0045bcc0 f   CreatureHandlers.obj
 0001:0005acf0       ?FloatRV_UFTX@CreatureHandlers@@SAMAAVCAOSMachine@@@Z 0045bcf0 f   CreatureHandlers.obj
 0001:0005ad20       ?FloatRV_UFTY@CreatureHandlers@@SAMAAVCAOSMachine@@@Z 0045bd20 f   CreatureHandlers.obj
 0001:0005ad50       ?IntegerRV_BODY@CreatureHandlers@@SAHAAVCAOSMachine@@@Z 0045bd50 f   CreatureHandlers.obj
 0001:0005ad80       ?Command_WEAR@CreatureHandlers@@SAXAAVCAOSMachine@@@Z 0045bd80 f   CreatureHandlers.obj
 0001:0005add0       ?Command_BODY@CreatureHandlers@@SAXAAVCAOSMachine@@@Z 0045bdd0 f   CreatureHandlers.obj
 0001:0005ae10       ?Command_NUDE@CreatureHandlers@@SAXAAVCAOSMachine@@@Z 0045be10 f   CreatureHandlers.obj
 0001:0005ae30       ?IntegerRV_FACE@CreatureHandlers@@SAHAAVCAOSMachine@@@Z 0045be30 f   CreatureHandlers.obj
 0001:0005ae60       ?StringRV_FACE@CreatureHandlers@@SAXAAVCAOSMachine@@AAV?$basic_string@DU?$char_traits@D@std@@V?$allocator@D@2@@std@@@Z 0045be60 f   CreatureHandlers.obj
 0001:0005ae80       ?Command_TOUC@CreatureHandlers@@SAXAAVCAOSMachine@@@Z 0045be80 f   CreatureHandlers.obj
 0001:0005aed0       ?Command_FACE@CreatureHandlers@@SAXAAVCAOSMachine@@@Z 0045bed0 f   CreatureHandlers.obj
 0001:0005af00       ?IntegerRV_EXPR@CreatureHandlers@@SAHAAVCAOSMachine@@@Z 0045bf00 f   CreatureHandlers.obj
 0001:0005af20       ?IntegerRV_BYIT@CreatureHandlers@@SAHAAVCAOSMachine@@@Z 0045bf20 f   CreatureHandlers.obj
 0001:0005af40       ?Command_DONE@CreatureHandlers@@SAXAAVCAOSMachine@@@Z 0045bf40 f   CreatureHandlers.obj
 0001:0005af70       ?IntegerRV_DEAD@CreatureHandlers@@SAHAAVCAOSMachine@@@Z 0045bf70 f   CreatureHandlers.obj
 0001:0005afa0       ?Command_DEAD@CreatureHandlers@@SAXAAVCAOSMachine@@@Z 0045bfa0 f   CreatureHandlers.obj
 0001:0005afd0       ?Command_SPNL@CreatureHandlers@@SAXAAVCAOSMachine@@@Z 0045bfd0 f   CreatureHandlers.obj
 0001:0005b0a0       ?Command_DRIV@CreatureHandlers@@SAXAAVCAOSMachine@@@Z 0045c0a0 f   CreatureHandlers.obj
 0001:0005b1d0       ?Event@Classifier@@QBEGXZ  0045c1d0 f i CreatureHandlers.obj
 0001:0005b1e0       ?Command_CHEM@CreatureHandlers@@SAXAAVCAOSMachine@@@Z 0045c1e0 f   CreatureHandlers.obj
 0001:0005b2a0       ?FloatRV_CHEM@CreatureHandlers@@SAMAAVCAOSMachine@@@Z 0045c2a0 f   CreatureHandlers.obj
 0001:0005b2f0       ?Command_INJR@CreatureHandlers@@SAXAAVCAOSMachine@@@Z 0045c2f0 f   CreatureHandlers.obj
 0001:0005b390       ?Command_LTCY@CreatureHandlers@@SAXAAVCAOSMachine@@@Z 0045c390 f   CreatureHandlers.obj
 0001:0005b440       ?Command_DREA@CreatureHandlers@@SAXAAVCAOSMachine@@@Z 0045c440 f   CreatureHandlers.obj
 0001:0005b480       ?IntegerRV_DREA@CreatureHandlers@@SAHAAVCAOSMachine@@@Z 0045c480 f   CreatureHandlers.obj
 0001:0005b4b0       ?Command_MATE@CreatureHandlers@@SAXAAVCAOSMachine@@@Z 0045c4b0 f   CreatureHandlers.obj
 0001:0005b4e0       ?Command_SAYN@CreatureHandlers@@SAXAAVCAOSMachine@@@Z 0045c4e0 f   CreatureHandlers.obj
 0001:0005b510       ?IntegerRV_BVAR@CreatureHandlers@@SAHAAVCAOSMachine@@@Z 0045c510 f   CreatureHandlers.obj
 0001:0005b530       ?IntegerRV_INS@CreatureHandlers@@SAHAAVCAOSMachine@@@Z 0045c530 f   CreatureHandlers.obj
 0001:0005b560       ?Command_ZOMB@CreatureHandlers@@SAXAAVCAOSMachine@@@Z 0045c560 f   CreatureHandlers.obj
 0001:0005b650       ?IntegerRV_ZOMB@CreatureHandlers@@SAHAAVCAOSMachine@@@Z 0045c650 f   CreatureHandlers.obj
 0001:0005b680       ?Command_ASLP@CreatureHandlers@@SAXAAVCAOSMachine@@@Z 0045c680 f   CreatureHandlers.obj
 0001:0005b6c0       ?IntegerRV_ASLP@CreatureHandlers@@SAHAAVCAOSMachine@@@Z 0045c6c0 f   CreatureHandlers.obj
 0001:0005b710       ?Command_UNCS@CreatureHandlers@@SAXAAVCAOSMachine@@@Z 0045c710 f   CreatureHandlers.obj
 0001:0005b750       ?IntegerRV_UNCS@CreatureHandlers@@SAHAAVCAOSMachine@@@Z 0045c750 f   CreatureHandlers.obj
 0001:0005b780       ?IntegerRV_ATTN@CreatureHandlers@@SAHAAVCAOSMachine@@@Z 0045c780 f   CreatureHandlers.obj
 0001:0005b7a0       ?IntegerRV_DECN@CreatureHandlers@@SAHAAVCAOSMachine@@@Z 0045c7a0 f   CreatureHandlers.obj
 0001:0005b7c0       ?Command_STIM@CreatureHandlers@@SAXAAVCAOSMachine@@@Z 0045c7c0 f   CreatureHandlers.obj
 0001:0005b950       ?Command_URGE@CreatureHandlers@@SAXAAVCAOSMachine@@@Z 0045c950 f   CreatureHandlers.obj
 0001:0005bac0       ?Command_SWAY@CreatureHandlers@@SAXAAVCAOSMachine@@@Z 0045cac0 f   CreatureHandlers.obj
 0001:0005bc50       ?Command_ORDR@CreatureHandlers@@SAXAAVCAOSMachine@@@Z 0045cc50 f   CreatureHandlers.obj
 0001:0005bd90       ?Command_NORN@CreatureHandlers@@SAXAAVCAOSMachine@@@Z 0045cd90 f   CreatureHandlers.obj
 0001:0005be30       ?Command_VOCB@CreatureHandlers@@SAXAAVCAOSMachine@@@Z 0045ce30 f   CreatureHandlers.obj
 0001:0005be60       ?FloatRV_DRIV@CreatureHandlers@@SAMAAVCAOSMachine@@@Z 0045ce60 f   CreatureHandlers.obj
 0001:0005beb0       ?IntegerRV_DRV@CreatureHandlers@@SAHAAVCAOSMachine@@@Z 0045ceb0 f   CreatureHandlers.obj
 0001:0005bed0       ?Command_LOCI@CreatureHandlers@@SAXAAVCAOSMachine@@@Z 0045ced0 f   CreatureHandlers.obj
 0001:0005bf50       ?FloatRV_LOCI@CreatureHandlers@@SAMAAVCAOSMachine@@@Z 0045cf50 f   CreatureHandlers.obj
 0001:0005bfc0       ?Command_BRN@CreatureHandlers@@SAXAAVCAOSMachine@@@Z 0045cfc0 f   CreatureHandlers.obj
 0001:0005bff0       ?SubCommand_BRN_DMPB@CreatureHandlers@@SAXAAVCAOSMachine@@@Z 0045cff0 f   CreatureHandlers.obj
 0001:0005c030       ?SubCommand_BRN_SETN@CreatureHandlers@@SAXAAVCAOSMachine@@@Z 0045d030 f   CreatureHandlers.obj
 0001:0005c0a0       ?SubCommand_BRN_SETD@CreatureHandlers@@SAXAAVCAOSMachine@@@Z 0045d0a0 f   CreatureHandlers.obj
 0001:0005c110       ?SubCommand_BRN_SETL@CreatureHandlers@@SAXAAVCAOSMachine@@@Z 0045d110 f   CreatureHandlers.obj
 0001:0005c170       ?SubCommand_BRN_SETT@CreatureHandlers@@SAXAAVCAOSMachine@@@Z 0045d170 f   CreatureHandlers.obj
 0001:0005c1d0       ?SubCommand_BRN_DMPL@CreatureHandlers@@SAXAAVCAOSMachine@@@Z 0045d1d0 f   CreatureHandlers.obj
 0001:0005c230       ?SubCommand_BRN_DMPT@CreatureHandlers@@SAXAAVCAOSMachine@@@Z 0045d230 f   CreatureHandlers.obj
 0001:0005c290       ?SubCommand_BRN_DMPN@CreatureHandlers@@SAXAAVCAOSMachine@@@Z 0045d290 f   CreatureHandlers.obj
 0001:0005c300       ?SubCommand_BRN_DMPD@CreatureHandlers@@SAXAAVCAOSMachine@@@Z 0045d300 f   CreatureHandlers.obj
 0001:0005c370       ?Command_AGES@CreatureHandlers@@SAXAAVCAOSMachine@@@Z 0045d370 f   CreatureHandlers.obj
 0001:0005c3b0       ?IntegerRV_CREA@CreatureHandlers@@SAHAAVCAOSMachine@@@Z 0045d3b0 f   CreatureHandlers.obj
 0001:0005c410       ?IntegerRV_CAGE@CreatureHandlers@@SAHAAVCAOSMachine@@@Z 0045d410 f   CreatureHandlers.obj
 0001:0005c430       ?StringRV_GTOS@CreatureHandlers@@SAXAAVCAOSMachine@@AAV?$basic_string@DU?$char_traits@D@std@@V?$allocator@D@2@@std@@@Z 0045d430 f   CreatureHandlers.obj
 0001:0005c5e0       ?IntegerRV_CATI@CreatureHandlers@@SAHAAVCAOSMachine@@@Z 0045d5e0 f   CreatureHandlers.obj
 0001:0005c650       ?StringRV_CATX@CreatureHandlers@@SAXAAVCAOSMachine@@AAV?$basic_string@DU?$char_traits@D@std@@V?$allocator@D@2@@std@@@Z 0045d650 f   CreatureHandlers.obj
 0001:0005c7f0       ?Command_CATO@CreatureHandlers@@SAXAAVCAOSMachine@@@Z 0045d7f0 f   CreatureHandlers.obj
 0001:0005c870       ?IntegerRV_CATA@CreatureHandlers@@SAHAAVCAOSMachine@@@Z 0045d870 f   CreatureHandlers.obj
 0001:0005c8b0       ?AgentRV_IITT@CreatureHandlers@@SA?AVAgentHandle@@AAVCAOSMachine@@@Z 0045d8b0 f   CreatureHandlers.obj
 0001:0005c8e0       ?Command_GENE@CreatureHandlers@@SAXAAVCAOSMachine@@@Z 0045d8e0 f   CreatureHandlers.obj
 0001:0005c910       ?SubCommand_GENE_CROS@CreatureHandlers@@SAXAAVCAOSMachine@@@Z 0045d910 f   CreatureHandlers.obj
 0001:0005cab0       ?SubCommand_GENE_MOVE@CreatureHandlers@@SAXAAVCAOSMachine@@@Z 0045dab0 f   CreatureHandlers.obj
 0001:0005cb90       ?SubCommand_GENE_KILL@CreatureHandlers@@SAXAAVCAOSMachine@@@Z 0045db90 f   CreatureHandlers.obj
 0001:0005cc10       ?SubCommand_GENE_LOAD@CreatureHandlers@@SAXAAVCAOSMachine@@@Z 0045dc10 f   CreatureHandlers.obj
 0001:0005cd20       ?SubCommand_GENE_CLON@CreatureHandlers@@SAXAAVCAOSMachine@@@Z 0045dd20 f   CreatureHandlers.obj
 0001:0005ce10       ?Command_BORN@CreatureHandlers@@SAXAAVCAOSMachine@@@Z 0045de10 f   CreatureHandlers.obj
 0001:0005ce60       ?IntegerRV_TAGE@CreatureHandlers@@SAHAAVCAOSMachine@@@Z 0045de60 f   CreatureHandlers.obj
 0001:0005ce80       ?AgentRV_MTOC@CreatureHandlers@@SA?AVAgentHandle@@AAVCAOSMachine@@@Z 0045de80 f   CreatureHandlers.obj
 0001:0005cf50       ?AgentRV_MTOA@CreatureHandlers@@SA?AVAgentHandle@@AAVCAOSMachine@@@Z 0045df50 f   CreatureHandlers.obj
 0001:0005d020       ?IntegerRV_ORGN@CreatureHandlers@@SAHAAVCAOSMachine@@@Z 0045e020 f   CreatureHandlers.obj
 0001:0005d050       ?IntegerRV_ORGI@CreatureHandlers@@SAHAAVCAOSMachine@@@Z 0045e050 f   CreatureHandlers.obj
 0001:0005d0c0       ?FloatRV_ORGF@CreatureHandlers@@SAMAAVCAOSMachine@@@Z 0045e0c0 f   CreatureHandlers.obj
 0001:0005d190       ?Command_FORF@CreatureHandlers@@SAXAAVCAOSMachine@@@Z 0045e190 f   CreatureHandlers.obj
 0001:0005d220       ?Command_LIKE@CreatureHandlers@@SAXAAVCAOSMachine@@@Z 0045e220 f   CreatureHandlers.obj
 0001:0005d460       ?SubCommand_DBG_PAWS@DebugHandlers@@CAXAAVCAOSMachine@@@Z 0045e460 f   DebugHandlers.obj
 0001:0005d470       ?SubCommand_DBG_PLAY@DebugHandlers@@CAXAAVCAOSMachine@@@Z 0045e470 f   DebugHandlers.obj
 0001:0005d4a0       ?IntegerRV_PAWS@DebugHandlers@@SAHAAVCAOSMachine@@@Z 0045e4a0 f   DebugHandlers.obj
 0001:0005d4b0       ?SubCommand_DBG_TOCK@DebugHandlers@@CAXAAVCAOSMachine@@@Z 0045e4b0 f   DebugHandlers.obj
 0001:0005d4c0       ?SubCommand_DBG_TACK@DebugHandlers@@CAXAAVCAOSMachine@@@Z 0045e4c0 f   DebugHandlers.obj
 0001:0005d520       ?AgentRV_TACK@DebugHandlers@@SA?AVAgentHandle@@AAVCAOSMachine@@@Z 0045e520 f   DebugHandlers.obj
 0001:0005d540       ?SubCommand_DBG_FLSH@DebugHandlers@@CAXAAVCAOSMachine@@@Z 0045e540 f   DebugHandlers.obj
 0001:0005d560       ?SubCommand_DBG_OUTS@DebugHandlers@@CAXAAVCAOSMachine@@@Z 0045e560 f   DebugHandlers.obj
 0001:0005d600       ?SubCommand_DBG_OUTV@DebugHandlers@@CAXAAVCAOSMachine@@@Z 0045e600 f   DebugHandlers.obj
 0001:0005d800       ?SubCommand_DBG_POLL@DebugHandlers@@CAXAAVCAOSMachine@@@Z 0045e800 f   DebugHandlers.obj
 0001:0005d920       ?IntegerRV_CODF@DebugHandlers@@SAHAAVCAOSMachine@@@Z 0045e920 f   DebugHandlers.obj
 0001:0005d9e0       ?IntegerRV_CODG@DebugHandlers@@SAHAAVCAOSMachine@@@Z 0045e9e0 f   DebugHandlers.obj
 0001:0005daa0       ?IntegerRV_CODS@DebugHandlers@@SAHAAVCAOSMachine@@@Z 0045eaa0 f   DebugHandlers.obj
 0001:0005db60       ?IntegerRV_CODE@DebugHandlers@@SAHAAVCAOSMachine@@@Z 0045eb60 f   DebugHandlers.obj
 0001:0005dc20       ?IntegerRV_CODP@DebugHandlers@@SAHAAVCAOSMachine@@@Z 0045ec20 f   DebugHandlers.obj
 0001:0005dd40       ?IntegerRV_HEAP@DebugHandlers@@SAHAAVCAOSMachine@@@Z 0045ed40 f   DebugHandlers.obj
 0001:0005dd80       ?StringRV_DBG@DebugHandlers@@SAXAAVCAOSMachine@@AAV?$basic_string@DU?$char_traits@D@std@@V?$allocator@D@2@@std@@@Z 0045ed80 f   DebugHandlers.obj
 0001:0005e1e0       ?StreamVariable@DebugHandlers@@SAXAAV?$basic_ostream@DU?$char_traits@D@std@@@std@@PAVCAOSVar@@@Z 0045f1e0 f   DebugHandlers.obj
 0001:0005e340       ?StreamAgent@DebugHandlers@@SAXAAV?$basic_ostream@DU?$char_traits@D@std@@@std@@VAgentHandle@@@Z 0045f340 f   DebugHandlers.obj
 0001:0005e3c0       ?Command_DBG@DebugHandlers@@SAXAAVCAOSMachine@@@Z 0045f3c0 f   DebugHandlers.obj
 0001:0005e3f0       ?StringRV_DBGA@DebugHandlers@@SAXAAVCAOSMachine@@AAV?$basic_string@DU?$char_traits@D@std@@V?$allocator@D@2@@std@@@Z 0045f3f0 f   DebugHandlers.obj
 0001:0005e710       ?SubCommand_DBG_PROF@DebugHandlers@@CAXAAVCAOSMachine@@@Z 0045f710 f   DebugHandlers.obj
 0001:0005f2c0       ??1?$map@VClassifier@@UProfileData@DebugHandlers@@U?$less@VClassifier@@@std@@V?$allocator@UProfileData@DebugHandlers@@@5@@std@@QAE@XZ 004602c0 f i DebugHandlers.obj
 0001:0005f390       ?SubCommand_DBG_CPRO@DebugHandlers@@CAXAAVCAOSMachine@@@Z 00460390 f   DebugHandlers.obj
 0001:0005f4a0       ?SubCommand_DBG_HTML@DebugHandlers@@CAXAAVCAOSMachine@@@Z 004604a0 f   DebugHandlers.obj
 0001:0005f4e0       ?SubCommand_DBG_ASRT@DebugHandlers@@CAXAAVCAOSMachine@@@Z 004604e0 f   DebugHandlers.obj
 0001:0005f500       ?SubCommand_DBG_WTIK@DebugHandlers@@CAXAAVCAOSMachine@@@Z 00460500 f   DebugHandlers.obj
 0001:0005f530       ?Command_MANN@DebugHandlers@@SAXAAVCAOSMachine@@@Z 00460530 f   DebugHandlers.obj
 0001:0005f640       ?Command_HELP@DebugHandlers@@SAXAAVCAOSMachine@@@Z 00460640 f   DebugHandlers.obj
 0001:0005f700       ?Command_APRO@DebugHandlers@@SAXAAVCAOSMachine@@@Z 00460700 f   DebugHandlers.obj
 0001:0005f810       ?Command_MEMX@DebugHandlers@@SAXAAVCAOSMachine@@@Z 00460810 f   DebugHandlers.obj
 0001:0005f8e0       ??1?$_Tree@VClassifier@@U?$pair@$$CBVClassifier@@UProfileData@DebugHandlers@@@std@@U_Kfn@?$map@VClassifier@@UProfileData@DebugHandlers@@U?$less@VClassifier@@@std@@V?$allocator@UProfileData@DebugHandlers@@@5@@3@U?$less@VClassifier@@@3@V?$allocator@UProfileData@DebugHandlers@@@3@@std@@QAE@XZ 004608e0 f i DebugHandlers.obj
 0001:0005f9a0       ?erase@?$list@VAgentHandle@@V?$allocator@VAgentHandle@@@std@@@std@@QAE?AViterator@12@V312@0@Z 004609a0 f i DebugHandlers.obj
 0001:0005fa00       ?insert@?$map@VClassifier@@UProfileData@DebugHandlers@@U?$less@VClassifier@@@std@@V?$allocator@UProfileData@DebugHandlers@@@5@@std@@QAE?AU?$pair@Viterator@?$_Tree@VClassifier@@U?$pair@$$CBVClassifier@@UProfileData@DebugHandlers@@@std@@U_Kfn@?$map@VClassifier@@UProfileData@DebugHandlers@@U?$less@VClassifier@@@std@@V?$allocator@UProfileData@DebugHandlers@@@5@@3@U?$less@VClassifier@@@3@V?$allocator@UProfileData@DebugHandlers@@@3@@std@@_N@2@ABU?$pair@$$CBVClassifier@@UProfileData@DebugHandlers@@@2@@Z 00460a00 f i DebugHandlers.obj
 0001:0005faf0       ??0?$_Tree@VClassifier@@U?$pair@$$CBVClassifier@@UProfileData@DebugHandlers@@@std@@U_Kfn@?$map@VClassifier@@UProfileData@DebugHandlers@@U?$less@VClassifier@@@std@@V?$allocator@UProfileData@DebugHandlers@@@5@@3@U?$less@VClassifier@@@3@V?$allocator@UProfileData@DebugHandlers@@@3@@std@@QAE@ABU?$less@VClassifier@@@1@_NABV?$allocator@UProfileData@DebugHandlers@@@1@@Z 00460af0 f i DebugHandlers.obj
 0001:0005fb60       ?begin@?$_Tree@VClassifier@@U?$pair@$$CBVClassifier@@UProfileData@DebugHandlers@@@std@@U_Kfn@?$map@VClassifier@@UProfileData@DebugHandlers@@U?$less@VClassifier@@@std@@V?$allocator@UProfileData@DebugHandlers@@@5@@3@U?$less@VClassifier@@@3@V?$allocator@UProfileData@DebugHandlers@@@3@@std@@QAE?AViterator@12@XZ 00460b60 f i DebugHandlers.obj
 0001:0005fb80       ??0?$pair@$$CBVClassifier@@UProfileData@DebugHandlers@@@std@@QAE@ABVClassifier@@ABUProfileData@DebugHandlers@@@Z 00460b80 f i DebugHandlers.obj
 0001:0005fbc0       ?_Inc@iterator@?$_Tree@UBuildFspParams@@U?$pair@$$CBUBuildFspParams@@V?$basic_string@DU?$char_traits@D@std@@V?$allocator@D@2@@std@@@std@@U_Kfn@?$map@UBuildFspParams@@V?$basic_string@DU?$char_traits@D@std@@V?$allocator@D@2@@std@@U?$less@UBuildFspParams@@@3@V?$allocator@V?$basic_string@DU?$char_traits@D@std@@V?$allocator@D@2@@std@@@3@@3@U?$less@UBuildFspParams@@@3@V?$allocator@V?$basic_string@DU?$char_traits@D@std@@V?$allocator@D@2@@std@@@3@@std@@QAEXXZ 00460bc0 f i DebugHandlers.obj
 0001:0005fbc0       ?_Inc@iterator@?$_Tree@VClassifier@@U?$pair@$$CBVClassifier@@UProfileData@DebugHandlers@@@std@@U_Kfn@?$map@VClassifier@@UProfileData@DebugHandlers@@U?$less@VClassifier@@@std@@V?$allocator@UProfileData@DebugHandlers@@@5@@3@U?$less@VClassifier@@@3@V?$allocator@UProfileData@DebugHandlers@@@3@@std@@QAEXXZ 00460bc0 f i DebugHandlers.obj
 0001:0005fc10       ?erase@?$_Tree@VClassifier@@U?$pair@$$CBVClassifier@@UProfileData@DebugHandlers@@@std@@U_Kfn@?$map@VClassifier@@UProfileData@DebugHandlers@@U?$less@VClassifier@@@std@@V?$allocator@UProfileData@DebugHandlers@@@5@@3@U?$less@VClassifier@@@3@V?$allocator@UProfileData@DebugHandlers@@@3@@std@@QAE?AViterator@12@V312@@Z 00460c10 f i DebugHandlers.obj
 0001:0005ffe0       ?_Erase@?$_Tree@VClassifier@@U?$pair@$$CBVClassifier@@UProfileData@DebugHandlers@@@std@@U_Kfn@?$map@VClassifier@@UProfileData@DebugHandlers@@U?$less@VClassifier@@@std@@V?$allocator@UProfileData@DebugHandlers@@@5@@3@U?$less@VClassifier@@@3@V?$allocator@UProfileData@DebugHandlers@@@3@@std@@IAEXPAU_Node@12@@Z 00460fe0 f i DebugHandlers.obj
 0001:00060030       ?_Insert@?$_Tree@VClassifier@@U?$pair@$$CBVClassifier@@UProfileData@DebugHandlers@@@std@@U_Kfn@?$map@VClassifier@@UProfileData@DebugHandlers@@U?$less@VClassifier@@@std@@V?$allocator@UProfileData@DebugHandlers@@@5@@3@U?$less@VClassifier@@@3@V?$allocator@UProfileData@DebugHandlers@@@3@@std@@IAE?AViterator@12@PAU_Node@12@0ABU?$pair@$$CBVClassifier@@UProfileData@DebugHandlers@@@2@@Z 00461030 f i DebugHandlers.obj
 0001:00060280       ?_Add@iterator@?$deque@PAVCAOSMachine@@V?$allocator@PAVCAOSMachine@@@std@@@std@@IAEXH@Z 00461280 f i DebugHandlers.obj
 0001:000602f0       ?_Construct@std@@YAXPAU?$pair@$$CBVClassifier@@UProfileData@DebugHandlers@@@1@ABU21@@Z 004612f0 f i DebugHandlers.obj
 0001:00060440       ?Command_WTNT@DisplayHandlers@@SAXAAVCAOSMachine@@@Z 00461440 f   DisplayHandlers.obj
 0001:000604b0       ?Command_TNTW@DisplayHandlers@@SAXAAVCAOSMachine@@@Z 004614b0 f   DisplayHandlers.obj
 0001:00060560       ?Command_TINT@DisplayHandlers@@SAXAAVCAOSMachine@@@Z 00461560 f   DisplayHandlers.obj
 0001:000606a0       ?Command_TINO@DisplayHandlers@@SAXAAVCAOSMachine@@@Z 004616a0 f   DisplayHandlers.obj
 0001:000607a0       ?Command_LINE@DisplayHandlers@@SAXAAVCAOSMachine@@@Z 004617a0 f   DisplayHandlers.obj
 0001:000608d0       ?Command_CMRA@DisplayHandlers@@SAXAAVCAOSMachine@@@Z 004618d0 f   DisplayHandlers.obj
 0001:00060910       ?Command_CMRT@DisplayHandlers@@SAXAAVCAOSMachine@@@Z 00461910 f   DisplayHandlers.obj
 0001:000609d0       ?Command_CMRP@DisplayHandlers@@SAXAAVCAOSMachine@@@Z 004619d0 f   DisplayHandlers.obj
 0001:00060a10       ?CameraHelper@DisplayHandlers@@SAXAAVCAOSMachine@@JJH_NPAVCamera@@@Z 00461a10 f   DisplayHandlers.obj
 0001:00060cb0       ?Command_TRAN@DisplayHandlers@@SAXAAVCAOSMachine@@@Z 00461cb0 f   DisplayHandlers.obj
 0001:00060d50       ?Command_DMAP@DisplayHandlers@@SAXAAVCAOSMachine@@@Z 00461d50 f   DisplayHandlers.obj
 0001:00060d80       ?Command_TRCK@DisplayHandlers@@SAXAAVCAOSMachine@@@Z 00461d80 f   DisplayHandlers.obj
 0001:00060e50       ?Command_ZOOM@DisplayHandlers@@SAXAAVCAOSMachine@@@Z 00461e50 f   DisplayHandlers.obj
 0001:00060e90       ?AgentRV_TRCK@DisplayHandlers@@SA?AVAgentHandle@@AAVCAOSMachine@@@Z 00461e90 f   DisplayHandlers.obj
 0001:00060ec0       ?IntegerRV_WNDT@DisplayHandlers@@SAHAAVCAOSMachine@@@Z 00461ec0 f   DisplayHandlers.obj
 0001:00060f00       ?IntegerRV_WNDB@DisplayHandlers@@SAHAAVCAOSMachine@@@Z 00461f00 f   DisplayHandlers.obj
 0001:00060f40       ?IntegerRV_WNDL@DisplayHandlers@@SAHAAVCAOSMachine@@@Z 00461f40 f   DisplayHandlers.obj
 0001:00060f80       ?IntegerRV_WNDR@DisplayHandlers@@SAHAAVCAOSMachine@@@Z 00461f80 f   DisplayHandlers.obj
 0001:00060fc0       ?IntegerRV_WNDW@DisplayHandlers@@SAHAAVCAOSMachine@@@Z 00461fc0 f   DisplayHandlers.obj
 0001:00061010       ?IntegerRV_WNDH@DisplayHandlers@@SAHAAVCAOSMachine@@@Z 00462010 f   DisplayHandlers.obj
 0001:00061060       ?IntegerRV_CMRX@DisplayHandlers@@SAHAAVCAOSMachine@@@Z 00462060 f   DisplayHandlers.obj
 0001:000610a0       ?IntegerRV_CMRY@DisplayHandlers@@SAHAAVCAOSMachine@@@Z 004620a0 f   DisplayHandlers.obj
 0001:000610e0       ?Command_SNAP@DisplayHandlers@@SAXAAVCAOSMachine@@@Z 004620e0 f   DisplayHandlers.obj
 0001:00061360       ?IntegerRV_LOFT@DisplayHandlers@@SAHAAVCAOSMachine@@@Z 00462360 f   DisplayHandlers.obj
 0001:00061570       ?IntegerRV_SNAX@DisplayHandlers@@SAHAAVCAOSMachine@@@Z 00462570 f   DisplayHandlers.obj
 0001:000617b0       ?Command_FRSH@DisplayHandlers@@SAXAAVCAOSMachine@@@Z 004627b0 f   DisplayHandlers.obj
 0001:000617c0       ?Command_WDOW@DisplayHandlers@@SAXAAVCAOSMachine@@@Z 004627c0 f   DisplayHandlers.obj
 0001:000617d0       ?IntegerRV_WDOW@DisplayHandlers@@SAHAAVCAOSMachine@@@Z 004627d0 f   DisplayHandlers.obj
 0001:000617f0       ?Command_ALPH@DisplayHandlers@@SAXAAVCAOSMachine@@@Z 004627f0 f   DisplayHandlers.obj
 0001:00061970       ?StringRV_MODU@GeneralHandlers@@SAXAAVCAOSMachine@@AAV?$basic_string@DU?$char_traits@D@std@@V?$allocator@D@2@@std@@@Z 00462970 f   GeneralHandlers.obj
 0001:00061b00       ?StringRV_UFOS@GeneralHandlers@@SAXAAVCAOSMachine@@AAV?$basic_string@DU?$char_traits@D@std@@V?$allocator@D@2@@std@@@Z 00462b00 f   GeneralHandlers.obj
 0001:00061c90       ?Command_ADDV@GeneralHandlers@@SAXAAVCAOSMachine@@@Z 00462c90 f   GeneralHandlers.obj
 0001:00061df0       ?IntegerRV_MUTE@GeneralHandlers@@SAHAAVCAOSMachine@@@Z 00462df0 f   GeneralHandlers.obj
 0001:00061e30       ?IntegerRV_WOLF@GeneralHandlers@@SAHAAVCAOSMachine@@@Z 00462e30 f   GeneralHandlers.obj
 0001:00061e60       ?Command_STRK@GeneralHandlers@@SAXAAVCAOSMachine@@@Z 00462e60 f   GeneralHandlers.obj
 0001:00061f10       ?Command_SUBV@GeneralHandlers@@SAXAAVCAOSMachine@@@Z 00462f10 f   GeneralHandlers.obj
 0001:00062070       ?Command_MULV@GeneralHandlers@@SAXAAVCAOSMachine@@@Z 00463070 f   GeneralHandlers.obj
 0001:000621d0       ?Command_DIVV@GeneralHandlers@@SAXAAVCAOSMachine@@@Z 004631d0 f   GeneralHandlers.obj
 0001:00062380       ?Command_MODV@GeneralHandlers@@SAXAAVCAOSMachine@@@Z 00463380 f   GeneralHandlers.obj
 0001:00062410       ?Command_NEGV@GeneralHandlers@@SAXAAVCAOSMachine@@@Z 00463410 f   GeneralHandlers.obj
 0001:000624b0       ?Command_ABSV@GeneralHandlers@@SAXAAVCAOSMachine@@@Z 004634b0 f   GeneralHandlers.obj
 0001:00062560       ?Command_ANDV@GeneralHandlers@@SAXAAVCAOSMachine@@@Z 00463560 f   GeneralHandlers.obj
 0001:000625e0       ?Command_ORRV@GeneralHandlers@@SAXAAVCAOSMachine@@@Z 004635e0 f   GeneralHandlers.obj
 0001:00062660       ?Command_NOTV@GeneralHandlers@@SAXAAVCAOSMachine@@@Z 00463660 f   GeneralHandlers.obj
 0001:000626e0       ?Command_SETV@GeneralHandlers@@SAXAAVCAOSMachine@@@Z 004636e0 f   GeneralHandlers.obj
 0001:00062750       ?Command_DOIF@GeneralHandlers@@SAXAAVCAOSMachine@@@Z 00463750 f   GeneralHandlers.obj
 0001:00062780       ?Command_ELIF@GeneralHandlers@@SAXAAVCAOSMachine@@@Z 00463780 f   GeneralHandlers.obj
 0001:000627a0       ?Command_ELSE@GeneralHandlers@@SAXAAVCAOSMachine@@@Z 004637a0 f   GeneralHandlers.obj
 0001:000627b0       ??1Presence@@QAE@XZ        004637b0 f   GeneralHandlers.obj
 0001:000627b0       ?ResetLines@Agent@@UAEXXZ  004637b0 f   GeneralHandlers.obj
 0001:000627b0       ?Command_ENDI@GeneralHandlers@@SAXAAVCAOSMachine@@@Z 004637b0 f   GeneralHandlers.obj
 0001:000627b0       ?Init@Faculty@@UAEXXZ      004637b0 f   GeneralHandlers.obj
 0001:000627b0       ?DrawMirrored@Line@@UAEXXZ 004637b0 f   GeneralHandlers.obj
 0001:000627b0       ?Update@MusicFaculty@@UAEXXZ 004637b0 f   GeneralHandlers.obj
 0001:000627b0       ?Update@DisplayEngine@@UAEXXZ 004637b0 f   GeneralHandlers.obj
 0001:000627b0       ??1Background@@QAE@XZ      004637b0 f   GeneralHandlers.obj
 0001:000627b0       ?Update@Faculty@@UAEXXZ    004637b0 f   GeneralHandlers.obj
 0001:000627c0       ?Command_ENUM@GeneralHandlers@@SAXAAVCAOSMachine@@@Z 004637c0 f   GeneralHandlers.obj
 0001:00062910       ?Command_ESEE@GeneralHandlers@@SAXAAVCAOSMachine@@@Z 00463910 f   GeneralHandlers.obj
 0001:00062af0       ?Command_ETCH@GeneralHandlers@@SAXAAVCAOSMachine@@@Z 00463af0 f   GeneralHandlers.obj
 0001:00062d00       ?Command_NEXT@GeneralHandlers@@SAXAAVCAOSMachine@@@Z 00463d00 f   GeneralHandlers.obj
 0001:00062e30       ?Command_REPS@GeneralHandlers@@SAXAAVCAOSMachine@@@Z 00463e30 f   GeneralHandlers.obj
 0001:00063000       ?Command_REPE@GeneralHandlers@@SAXAAVCAOSMachine@@@Z 00464000 f   GeneralHandlers.obj
 0001:000630c0       ?Command_LOOP@GeneralHandlers@@SAXAAVCAOSMachine@@@Z 004640c0 f   GeneralHandlers.obj
 0001:00063280       ?Command_UNTL@GeneralHandlers@@SAXAAVCAOSMachine@@@Z 00464280 f   GeneralHandlers.obj
 0001:000632f0       ?Command_EVER@GeneralHandlers@@SAXAAVCAOSMachine@@@Z 004642f0 f   GeneralHandlers.obj
 0001:00063350       ?Command_SUBR@GeneralHandlers@@SAXAAVCAOSMachine@@@Z 00464350 f   GeneralHandlers.obj
 0001:00063360       ?Command_GOTO@GeneralHandlers@@SAXAAVCAOSMachine@@@Z 00464360 f   GeneralHandlers.obj
 0001:00063380       ?Command_GSUB@GeneralHandlers@@SAXAAVCAOSMachine@@@Z 00464380 f   GeneralHandlers.obj
 0001:000633c0       ?Command_RETN@GeneralHandlers@@SAXAAVCAOSMachine@@@Z 004643c0 f   GeneralHandlers.obj
 0001:00063400       ?Command_INST@GeneralHandlers@@SAXAAVCAOSMachine@@@Z 00464400 f   GeneralHandlers.obj
 0001:00063410       ?Command_SLOW@GeneralHandlers@@SAXAAVCAOSMachine@@@Z 00464410 f   GeneralHandlers.obj
 0001:00063420       ?Command_STOP@GeneralHandlers@@SAXAAVCAOSMachine@@@Z 00464420 f   GeneralHandlers.obj
 0001:00063430       ?Command_WAIT@GeneralHandlers@@SAXAAVCAOSMachine@@@Z 00464430 f   GeneralHandlers.obj
 0001:00063630       ?Command_SCRX@GeneralHandlers@@SAXAAVCAOSMachine@@@Z 00464630 f   GeneralHandlers.obj
 0001:000636f0       ?Command_RGAM@GeneralHandlers@@SAXAAVCAOSMachine@@@Z 004646f0 f   GeneralHandlers.obj
 0001:00063700       ?IntegerRV_RAND@GeneralHandlers@@SAHAAVCAOSMachine@@@Z 00464700 f   GeneralHandlers.obj
 0001:00063770       ?IntegerRV_KEYD@GeneralHandlers@@SAHAAVCAOSMachine@@@Z 00464770 f   GeneralHandlers.obj
 0001:000637a0       ?IntegerRV_MOPX@GeneralHandlers@@SAHAAVCAOSMachine@@@Z 004647a0 f   GeneralHandlers.obj
 0001:000637e0       ?IntegerRV_MOPY@GeneralHandlers@@SAHAAVCAOSMachine@@@Z 004647e0 f   GeneralHandlers.obj
 0001:00063820       ?FloatRV_MOVX@GeneralHandlers@@SAMAAVCAOSMachine@@@Z 00464820 f   GeneralHandlers.obj
 0001:00063840       ?FloatRV_MOVY@GeneralHandlers@@SAMAAVCAOSMachine@@@Z 00464840 f   GeneralHandlers.obj
 0001:00063860       ?StringRV_VTOS@GeneralHandlers@@SAXAAVCAOSMachine@@AAV?$basic_string@DU?$char_traits@D@std@@V?$allocator@D@2@@std@@@Z 00464860 f   GeneralHandlers.obj
 0001:00063970       ?StringRV_BUTY@GeneralHandlers@@SAXAAVCAOSMachine@@AAV?$basic_string@DU?$char_traits@D@std@@V?$allocator@D@2@@std@@@Z 00464970 f   GeneralHandlers.obj
 0001:00063a30       ?StringRV_SORC@GeneralHandlers@@SAXAAVCAOSMachine@@AAV?$basic_string@DU?$char_traits@D@std@@V?$allocator@D@2@@std@@@Z 00464a30 f   GeneralHandlers.obj
 0001:00063bd0       ?IntegerRV_SORQ@GeneralHandlers@@SAHAAVCAOSMachine@@@Z 00464bd0 f   GeneralHandlers.obj
 0001:00063c60       ?StringRV_READ@GeneralHandlers@@SAXAAVCAOSMachine@@AAV?$basic_string@DU?$char_traits@D@std@@V?$allocator@D@2@@std@@@Z 00464c60 f   GeneralHandlers.obj
 0001:00063e10       ?IntegerRV_REAN@GeneralHandlers@@SAHAAVCAOSMachine@@@Z 00464e10 f   GeneralHandlers.obj
 0001:00063ee0       ?IntegerRV_REAQ@GeneralHandlers@@SAHAAVCAOSMachine@@@Z 00464ee0 f   GeneralHandlers.obj
 0001:00063f90       ?StringRV_WILD@GeneralHandlers@@SAXAAVCAOSMachine@@AAV?$basic_string@DU?$char_traits@D@std@@V?$allocator@D@2@@std@@@Z 00464f90 f   GeneralHandlers.obj
 0001:00064210       ?Command_OUTX@GeneralHandlers@@SAXAAVCAOSMachine@@@Z 00465210 f   GeneralHandlers.obj
 0001:00064670       ?Command_OUTS@GeneralHandlers@@SAXAAVCAOSMachine@@@Z 00465670 f   GeneralHandlers.obj
 0001:00064730       ?Command_OUTV@GeneralHandlers@@SAXAAVCAOSMachine@@@Z 00465730 f   GeneralHandlers.obj
 0001:000647b0       ?IntegerRV_INNI@GeneralHandlers@@SAHAAVCAOSMachine@@@Z 004657b0 f   GeneralHandlers.obj
 0001:000647f0       ?IntegerRV_INOK@GeneralHandlers@@SAHAAVCAOSMachine@@@Z 004657f0 f   GeneralHandlers.obj
 0001:00064820       ?FloatRV_INNF@GeneralHandlers@@SAMAAVCAOSMachine@@@Z 00465820 f   GeneralHandlers.obj
 0001:00064860       ?StringRV_INNL@GeneralHandlers@@SAXAAVCAOSMachine@@AAV?$basic_string@DU?$char_traits@D@std@@V?$allocator@D@2@@std@@@Z 00465860 f   GeneralHandlers.obj
 0001:00064890       ?Command_GIDS@GeneralHandlers@@SAXAAVCAOSMachine@@@Z 00465890 f   GeneralHandlers.obj
 0001:000648c0       ?SubCommand_GIDS_ROOT@GeneralHandlers@@CAXAAVCAOSMachine@@@Z 004658c0 f   GeneralHandlers.obj
 0001:00064a30       ??1?$set@HU?$less@H@std@@V?$allocator@H@2@@std@@QAE@XZ 00465a30 f i GeneralHandlers.obj
 0001:00064af0       ?SubCommand_GIDS_FMLY@GeneralHandlers@@CAXAAVCAOSMachine@@@Z 00465af0 f   GeneralHandlers.obj
 0001:00064c70       ?SubCommand_GIDS_GNUS@GeneralHandlers@@CAXAAVCAOSMachine@@@Z 00465c70 f   GeneralHandlers.obj
 0001:00064df0       ?SubCommand_GIDS_SPCS@GeneralHandlers@@CAXAAVCAOSMachine@@@Z 00465df0 f   GeneralHandlers.obj
 0001:00064f90       ?Command_SETS@GeneralHandlers@@SAXAAVCAOSMachine@@@Z 00465f90 f   GeneralHandlers.obj
 0001:00065080       ?Command_ADDS@GeneralHandlers@@SAXAAVCAOSMachine@@@Z 00466080 f   GeneralHandlers.obj
 0001:00065260       ?Command_SETA@GeneralHandlers@@SAXAAVCAOSMachine@@@Z 00466260 f   GeneralHandlers.obj
 0001:00065300       ?IntegerRV_LEFT@GeneralHandlers@@SAHAAVCAOSMachine@@@Z 00466300 f   GeneralHandlers.obj
 0001:00065310       ?IntegerRV_RGHT@GeneralHandlers@@SAHAAVCAOSMachine@@@Z 00466310 f   GeneralHandlers.obj
 0001:00065320       ?IntegerRV_DOWN@GeneralHandlers@@SAHAAVCAOSMachine@@@Z 00466320 f   GeneralHandlers.obj
 0001:00065330       ?IntegerRV_STRL@GeneralHandlers@@SAHAAVCAOSMachine@@@Z 00466330 f   GeneralHandlers.obj
 0001:000653c0       ?IntegerRV_CHAR@GeneralHandlers@@SAHAAVCAOSMachine@@@Z 004663c0 f   GeneralHandlers.obj
 0001:000654b0       ?Command_CHAR@GeneralHandlers@@SAXAAVCAOSMachine@@@Z 004664b0 f   GeneralHandlers.obj
 0001:00065670       ?StringRV_SUBS@GeneralHandlers@@SAXAAVCAOSMachine@@AAV?$basic_string@DU?$char_traits@D@std@@V?$allocator@D@2@@std@@@Z 00466670 f   GeneralHandlers.obj
 0001:00065770       ?IntegerRV_TIME@GeneralHandlers@@SAHAAVCAOSMachine@@@Z 00466770 f   GeneralHandlers.obj
 0001:00065790       ?IntegerRV_YEAR@GeneralHandlers@@SAHAAVCAOSMachine@@@Z 00466790 f   GeneralHandlers.obj
 0001:000657b0       ?IntegerRV_SEAN@GeneralHandlers@@SAHAAVCAOSMachine@@@Z 004667b0 f   GeneralHandlers.obj
 0001:000657d0       ?IntegerRV_DATE@GeneralHandlers@@SAHAAVCAOSMachine@@@Z 004667d0 f   GeneralHandlers.obj
 0001:000657f0       ?IntegerRV_WTIK@GeneralHandlers@@SAHAAVCAOSMachine@@@Z 004667f0 f   GeneralHandlers.obj
 0001:00065810       ?IntegerRV_ETIK@GeneralHandlers@@SAHAAVCAOSMachine@@@Z 00466810 f   GeneralHandlers.obj
 0001:00065820       ?Command_DELG@GeneralHandlers@@SAXAAVCAOSMachine@@@Z 00466820 f   GeneralHandlers.obj
 0001:000658c0       ?Command_DELE@GeneralHandlers@@SAXAAVCAOSMachine@@@Z 004668c0 f   GeneralHandlers.obj
 0001:00065950       ?StringRV_GAMN@GeneralHandlers@@SAXAAVCAOSMachine@@AAV?$basic_string@DU?$char_traits@D@std@@V?$allocator@D@2@@std@@@Z 00466950 f   GeneralHandlers.obj
 0001:00065a30       ?StringRV_EAMN@GeneralHandlers@@SAXAAVCAOSMachine@@AAV?$basic_string@DU?$char_traits@D@std@@V?$allocator@D@2@@std@@@Z 00466a30 f   GeneralHandlers.obj
 0001:00065b00       ?Variable_GAME@GeneralHandlers@@SAAAVCAOSVar@@AAVCAOSMachine@@@Z 00466b00 f   GeneralHandlers.obj
 0001:00065ba0       ?Variable_EAME@GeneralHandlers@@SAAAVCAOSVar@@AAVCAOSMachine@@@Z 00466ba0 f   GeneralHandlers.obj
 0001:00065c40       ?Command_SAVE@GeneralHandlers@@SAXAAVCAOSMachine@@@Z 00466c40 f   GeneralHandlers.obj
 0001:00065c50       ?Command_LOAD@GeneralHandlers@@SAXAAVCAOSMachine@@@Z 00466c50 f   GeneralHandlers.obj
 0001:00065da0       ?IntegerRV_WNTI@GeneralHandlers@@SAHAAVCAOSMachine@@@Z 00466da0 f   GeneralHandlers.obj
 0001:00066040       ?IntegerRV_NWLD@GeneralHandlers@@SAHAAVCAOSMachine@@@Z 00467040 f   GeneralHandlers.obj
 0001:00066050       ?StringRV_WRLD@GeneralHandlers@@SAXAAVCAOSMachine@@AAV?$basic_string@DU?$char_traits@D@std@@V?$allocator@D@2@@std@@@Z 00467050 f   GeneralHandlers.obj
 0001:000661a0       ?Command_WRLD@GeneralHandlers@@SAXAAVCAOSMachine@@@Z 004671a0 f   GeneralHandlers.obj
 0001:00066230       ?StringRV_PSWD@GeneralHandlers@@SAXAAVCAOSMachine@@AAV?$basic_string@DU?$char_traits@D@std@@V?$allocator@D@2@@std@@@Z 00467230 f   GeneralHandlers.obj
 0001:00066330       ?Command_DELW@GeneralHandlers@@SAXAAVCAOSMachine@@@Z 00467330 f   GeneralHandlers.obj
 0001:000663c0       ?Command_QUIT@GeneralHandlers@@SAXAAVCAOSMachine@@@Z 004673c0 f   GeneralHandlers.obj
 0001:000666e0       ??4Classifier@@QAEAAV0@ABV0@@Z 004676e0 f i GeneralHandlers.obj
 0001:00066710       ?Command_PSWD@GeneralHandlers@@SAXAAVCAOSMachine@@@Z 00467710 f   GeneralHandlers.obj
 0001:000667a0       ?StringRV_FVWM@GeneralHandlers@@SAXAAVCAOSMachine@@AAV?$basic_string@DU?$char_traits@D@std@@V?$allocator@D@2@@std@@@Z 004677a0 f   GeneralHandlers.obj
 0001:000667c0       ?StringRV_CAOS@GeneralHandlers@@SAXAAVCAOSMachine@@AAV?$basic_string@DU?$char_traits@D@std@@V?$allocator@D@2@@std@@@Z 004677c0 f   GeneralHandlers.obj
 0001:00067a70       ??1TypeErr@CAOSVar@@UAE@XZ 00468a70 f i GeneralHandlers.obj
 0001:00067a70       ??1CreatureGalleryException@CreatureGallery@@UAE@XZ 00468a70 f i GeneralHandlers.obj
 0001:00067a70       ??1GenomeException@Genome@@UAE@XZ 00468a70 f i GeneralHandlers.obj
 0001:00067a70       ??1BasicException@@UAE@XZ  00468a70 f i GeneralHandlers.obj
 0001:00067a70       ??1GalleryException@Gallery@@UAE@XZ 00468a70 f i GeneralHandlers.obj
 0001:00067a70       ??1Err@Catalogue@@UAE@XZ   00468a70 f i GeneralHandlers.obj
 0001:00067a70       ??1SoundException@SoundManager@@UAE@XZ 00468a70 f i GeneralHandlers.obj
 0001:00067a70       ??1MemoryMappedFileException@MemoryMappedFile@@UAE@XZ 00468a70 f i GeneralHandlers.obj
 0001:00067a70       ??1CAOSMachineRunError@@UAE@XZ 00468a70 f i GeneralHandlers.obj
 0001:00067a70       ??1Exception@CreaturesArchive@@UAE@XZ 00468a70 f i GeneralHandlers.obj
 0001:00067a70       ??1AgentHandleException@@UAE@XZ 00468a70 f i GeneralHandlers.obj
 0001:00067a70       ??1CameraException@Camera@@UAE@XZ 00468a70 f i GeneralHandlers.obj
 0001:00067a70       ??1FileException@File@@UAE@XZ 00468a70 f i GeneralHandlers.obj
 0001:00067a70       ??1EntityImageException@EntityImage@@UAE@XZ 00468a70 f i GeneralHandlers.obj
 0001:00067a70       ??1InvalidAgentHandle@CAOSMachine@@UAE@XZ 00468a70 f i GeneralHandlers.obj
 0001:00067a70       ??1CStyleException@@UAE@XZ 00468a70 f i GeneralHandlers.obj
 0001:00067ac0       ??0CAOSMachineRunError@@QAE@ABV0@@Z 00468ac0 f i GeneralHandlers.obj
 0001:00067c30       ??_GCAOSMachineRunError@@UAEPAXI@Z 00468c30 f i GeneralHandlers.obj
 0001:00067c30       ??_ECAOSMachineRunError@@UAEPAXI@Z 00468c30 f i GeneralHandlers.obj
 0001:00067c60       ?FloatRV_SIN@GeneralHandlers@@SAMAAVCAOSMachine@@@Z 00468c60 f   GeneralHandlers.obj
 0001:00067c80       ?FloatRV_COS@GeneralHandlers@@SAMAAVCAOSMachine@@@Z 00468c80 f   GeneralHandlers.obj
 0001:00067ca0       ?FloatRV_TAN@GeneralHandlers@@SAMAAVCAOSMachine@@@Z 00468ca0 f   GeneralHandlers.obj
 0001:00067cc0       ?FloatRV_ASIN@GeneralHandlers@@SAMAAVCAOSMachine@@@Z 00468cc0 f   GeneralHandlers.obj
 0001:00067ce0       ?FloatRV_ACOS@GeneralHandlers@@SAMAAVCAOSMachine@@@Z 00468ce0 f   GeneralHandlers.obj
 0001:00067d00       ?FloatRV_SQRT@GeneralHandlers@@SAMAAVCAOSMachine@@@Z 00468d00 f   GeneralHandlers.obj
 0001:00067d30       ?FloatRV_ITOF@GeneralHandlers@@SAMAAVCAOSMachine@@@Z 00468d30 f   GeneralHandlers.obj
 0001:00067d40       ?IntegerRV_FTOI@GeneralHandlers@@SAHAAVCAOSMachine@@@Z 00468d40 f   GeneralHandlers.obj
 0001:00067d50       ?FloatRV_ATAN@GeneralHandlers@@SAMAAVCAOSMachine@@@Z 00468d50 f   GeneralHandlers.obj
 0001:00067d70       ?IntegerRV_VMNR@GeneralHandlers@@SAHAAVCAOSMachine@@@Z 00468d70 f   GeneralHandlers.obj
 0001:00067d80       ?IntegerRV_VMJR@GeneralHandlers@@SAHAAVCAOSMachine@@@Z 00468d80 f   GeneralHandlers.obj
 0001:00067d80       ?IntegerRV_UP@GeneralHandlers@@SAHAAVCAOSMachine@@@Z 00468d80 f   GeneralHandlers.obj
 0001:00067d90       ?StringRV_WNAM@GeneralHandlers@@SAXAAVCAOSMachine@@AAV?$basic_string@DU?$char_traits@D@std@@V?$allocator@D@2@@std@@@Z 00468d90 f   GeneralHandlers.obj
 0001:00067f00       ?StringRV_WUID@GeneralHandlers@@SAXAAVCAOSMachine@@AAV?$basic_string@DU?$char_traits@D@std@@V?$allocator@D@2@@std@@@Z 00468f00 f   GeneralHandlers.obj
 0001:00068070       ?StringRV_GNAM@GeneralHandlers@@SAXAAVCAOSMachine@@AAV?$basic_string@DU?$char_traits@D@std@@V?$allocator@D@2@@std@@@Z 00469070 f   GeneralHandlers.obj
 0001:000681d0       ?Command_WPAU@GeneralHandlers@@SAXAAVCAOSMachine@@@Z 004691d0 f   GeneralHandlers.obj
 0001:00068200       ?IntegerRV_WPAU@GeneralHandlers@@SAHAAVCAOSMachine@@@Z 00469200 f   GeneralHandlers.obj
 0001:00068220       ?FloatRV_PACE@GeneralHandlers@@SAMAAVCAOSMachine@@@Z 00469220 f   GeneralHandlers.obj
 0001:00068230       ?Command_FILE@GeneralHandlers@@SAXAAVCAOSMachine@@@Z 00469230 f   GeneralHandlers.obj
 0001:00068260       ?SubCommand_FILE_GLOB@GeneralHandlers@@CAXAAVCAOSMachine@@@Z 00469260 f   GeneralHandlers.obj
 0001:00068650       ??_E?$basic_istringstream@DU?$char_traits@D@std@@V?$allocator@D@2@@std@@UAEPAXI@Z 00469650 f i GeneralHandlers.obj
 0001:00068650       ??_G?$basic_istringstream@DU?$char_traits@D@std@@V?$allocator@D@2@@std@@UAEPAXI@Z 00469650 f i GeneralHandlers.obj
 0001:00068690       ?SubCommand_FILE_JDEL@GeneralHandlers@@CAXAAVCAOSMachine@@@Z 00469690 f   GeneralHandlers.obj
 0001:00068890       ?SubCommand_FILE_OOPE@GeneralHandlers@@CAXAAVCAOSMachine@@@Z 00469890 f   GeneralHandlers.obj
 0001:00068c10       ??_G?$basic_ofstream@DU?$char_traits@D@std@@@std@@UAEPAXI@Z 00469c10 f i GeneralHandlers.obj
 0001:00068c10       ??_E?$basic_ofstream@DU?$char_traits@D@std@@@std@@UAEPAXI@Z 00469c10 f i GeneralHandlers.obj
 0001:00068c50       ?SubCommand_FILE_OCLO@GeneralHandlers@@CAXAAVCAOSMachine@@@Z 00469c50 f   GeneralHandlers.obj
 0001:00068c70       ?SubCommand_FILE_OFLU@GeneralHandlers@@CAXAAVCAOSMachine@@@Z 00469c70 f   GeneralHandlers.obj
 0001:00068ce0       ?SubCommand_FILE_IOPE@GeneralHandlers@@CAXAAVCAOSMachine@@@Z 00469ce0 f   GeneralHandlers.obj
 0001:00069030       ??_G?$basic_ifstream@DU?$char_traits@D@std@@@std@@UAEPAXI@Z 0046a030 f i GeneralHandlers.obj
 0001:00069030       ??_E?$basic_ifstream@DU?$char_traits@D@std@@@std@@UAEPAXI@Z 0046a030 f i GeneralHandlers.obj
 0001:00069070       ?SubCommand_FILE_ICLO@GeneralHandlers@@CAXAAVCAOSMachine@@@Z 0046a070 f   GeneralHandlers.obj
 0001:00069080       ?FloatRV_STOF@GeneralHandlers@@SAMAAVCAOSMachine@@@Z 0046a080 f   GeneralHandlers.obj
 0001:00069230       ?IntegerRV_STOI@GeneralHandlers@@SAHAAVCAOSMachine@@@Z 0046a230 f   GeneralHandlers.obj
 0001:000693e0       ?IntegerRV_RTIM@GeneralHandlers@@SAHAAVCAOSMachine@@@Z 0046a3e0 f   GeneralHandlers.obj
 0001:000693f0       ?Command_REAF@GeneralHandlers@@SAXAAVCAOSMachine@@@Z 0046a3f0 f   GeneralHandlers.obj
 0001:00069400       ?StringRV_RTIF@GeneralHandlers@@SAXAAVCAOSMachine@@AAV?$basic_string@DU?$char_traits@D@std@@V?$allocator@D@2@@std@@@Z 0046a400 f   GeneralHandlers.obj
 0001:00069590       ?IntegerRV_DAYT@GeneralHandlers@@SAHAAVCAOSMachine@@@Z 0046a590 f   GeneralHandlers.obj
 0001:000695b0       ?IntegerRV_MONT@GeneralHandlers@@SAHAAVCAOSMachine@@@Z 0046a5b0 f   GeneralHandlers.obj
 0001:000695d0       ?IntegerRV_RACE@GeneralHandlers@@SAHAAVCAOSMachine@@@Z 0046a5d0 f   GeneralHandlers.obj
 0001:000695e0       ?IntegerRV_SCOL@GeneralHandlers@@SAHAAVCAOSMachine@@@Z 0046a5e0 f   GeneralHandlers.obj
 0001:00069710       ?IntegerRV_MSEC@GeneralHandlers@@SAHAAVCAOSMachine@@@Z 0046a710 f   GeneralHandlers.obj
 0001:00069720       ?IntegerRV_SINS@GeneralHandlers@@SAHAAVCAOSMachine@@@Z 0046a720 f   GeneralHandlers.obj
 0001:000698c0       ?StringRV_LOWA@GeneralHandlers@@SAXAAVCAOSMachine@@AAV?$basic_string@DU?$char_traits@D@std@@V?$allocator@D@2@@std@@@Z 0046a8c0 f   GeneralHandlers.obj
 0001:000698e0       ?StringRV_UPPA@GeneralHandlers@@SAXAAVCAOSMachine@@AAV?$basic_string@DU?$char_traits@D@std@@V?$allocator@D@2@@std@@@Z 0046a8e0 f   GeneralHandlers.obj
 0001:00069900       ?ExceptionTestDivide@GeneralHandlers@@SAMHH@Z 0046a900 f   GeneralHandlers.obj
 0001:00069920       ?ExceptionMetaDivide@GeneralHandlers@@SAHXZ 0046a920 f   GeneralHandlers.obj
 0001:00069940       ?Command_BANG@GeneralHandlers@@SAXAAVCAOSMachine@@@Z 0046a940 f   GeneralHandlers.obj
 0001:00069950       ?IntegerRV_BUZZ@GeneralHandlers@@SAHAAVCAOSMachine@@@Z 0046a950 f   GeneralHandlers.obj
 0001:00069960       ?Command_BUZZ@GeneralHandlers@@SAXAAVCAOSMachine@@@Z 0046a960 f   GeneralHandlers.obj
 0001:00069980       ?Command_BOOT@GeneralHandlers@@SAXAAVCAOSMachine@@@Z 0046a980 f   GeneralHandlers.obj
 0001:000699d0       ?Command_WEBB@GeneralHandlers@@SAXAAVCAOSMachine@@@Z 0046a9d0 f   GeneralHandlers.obj
 0001:00069d00       ?StringRV_LIMB@GeneralHandlers@@SAXAAVCAOSMachine@@AAV?$basic_string@DU?$char_traits@D@std@@V?$allocator@D@2@@std@@@Z 0046ad00 f   GeneralHandlers.obj
 0001:00069ee0       ?Command_JECT@GeneralHandlers@@SAXAAVCAOSMachine@@@Z 0046aee0 f   GeneralHandlers.obj
 0001:0006a350       ?_Inc@iterator@?$_Tree@HHU_Kfn@?$set@HU?$less@H@std@@V?$allocator@H@2@@std@@U?$less@H@3@V?$allocator@H@3@@std@@QAEXXZ 0046b350 f i GeneralHandlers.obj
 0001:0006a350       ?_Inc@iterator@?$_Tree@PAVCachedSound@@PAV1@U_Kfn@?$set@PAVCachedSound@@U?$less@PAVCachedSound@@@std@@V?$allocator@PAVCachedSound@@@3@@std@@U?$less@PAVCachedSound@@@4@V?$allocator@PAVCachedSound@@@4@@std@@QAEXXZ 0046b350 f i GeneralHandlers.obj
 0001:0006a3a0       ?erase@?$_Tree@PAVCachedSound@@PAV1@U_Kfn@?$set@PAVCachedSound@@U?$less@PAVCachedSound@@@std@@V?$allocator@PAVCachedSound@@@3@@std@@U?$less@PAVCachedSound@@@4@V?$allocator@PAVCachedSound@@@4@@std@@QAE?AViterator@12@V312@@Z 0046b3a0 f i GeneralHandlers.obj
 0001:0006a3a0       ?erase@?$_Tree@HHU_Kfn@?$set@HU?$less@H@std@@V?$allocator@H@2@@std@@U?$less@H@3@V?$allocator@H@3@@std@@QAE?AViterator@12@V312@@Z 0046b3a0 f i GeneralHandlers.obj
 0001:0006a760       ?_Erase@?$_Tree@HHU_Kfn@?$set@HU?$less@H@std@@V?$allocator@H@2@@std@@U?$less@H@3@V?$allocator@H@3@@std@@IAEXPAU_Node@12@@Z 0046b760 f i GeneralHandlers.obj
 0001:0006a7a0       ?_Init@?$_Tree@HHU_Kfn@?$set@HU?$less@H@std@@V?$allocator@H@2@@std@@U?$less@H@3@V?$allocator@H@3@@std@@IAEXXZ 0046b7a0 f i GeneralHandlers.obj
 0001:0006a800       ?_Min@?$_Tree@HHU_Kfn@?$set@HU?$less@H@std@@V?$allocator@H@2@@std@@U?$less@H@3@V?$allocator@H@3@@std@@KAPAU_Node@12@PAU312@@Z 0046b800 f i GeneralHandlers.obj
 0001:0006a820       ?_Sort_0@std@@YAXPAV?$basic_string@DU?$char_traits@D@std@@V?$allocator@D@2@@1@00@Z 0046b820 f i GeneralHandlers.obj
 0001:0006aaf0       ?_Sort@std@@YAXPAV?$basic_string@DU?$char_traits@D@std@@V?$allocator@D@2@@1@00@Z 0046baf0 f i GeneralHandlers.obj
 0001:0006abf0       ?_Unguarded_insert@std@@YAXPAV?$basic_string@DU?$char_traits@D@std@@V?$allocator@D@2@@1@V21@@Z 0046bbf0 f i GeneralHandlers.obj
 0001:0006ae10       ?_Median@std@@YA?AV?$basic_string@DU?$char_traits@D@std@@V?$allocator@D@2@@1@V21@00@Z 0046be10 f i GeneralHandlers.obj
 0001:0006afd0       ?_Unguarded_partition@std@@YAPAV?$basic_string@DU?$char_traits@D@std@@V?$allocator@D@2@@1@PAV21@0V21@@Z 0046bfd0 f i GeneralHandlers.obj
 0001:0006b200       ?Command_CALC@MapHandlers@@SAXAAVCAOSMachine@@@Z 0046c200 f   MapHandlers.obj
 0001:0006b220       ?Command_DOCA@MapHandlers@@SAXAAVCAOSMachine@@@Z 0046c220 f   MapHandlers.obj
 0001:0006b3b0       ??_F?$vector@VAgentHandle@@V?$allocator@VAgentHandle@@@std@@@std@@QAEXXZ 0046c3b0 f i MapHandlers.obj
 0001:0006b3d0       ?Command_MAPK@MapHandlers@@SAXAAVCAOSMachine@@@Z 0046c3d0 f   MapHandlers.obj
 0001:0006b3f0       ?Command_DELR@MapHandlers@@SAXAAVCAOSMachine@@@Z 0046c3f0 f   MapHandlers.obj
 0001:0006b430       ?Command_DELM@MapHandlers@@SAXAAVCAOSMachine@@@Z 0046c430 f   MapHandlers.obj
 0001:0006b470       ?Command_ADDB@MapHandlers@@SAXAAVCAOSMachine@@@Z 0046c470 f   MapHandlers.obj
 0001:0006b560       ?GetMap@World@@QAEAAVMap@@XZ 0046c560 f i MapHandlers.obj
 0001:0006b560       ?GetScriptNames@CAOSDescription@@QAEAAV?$vector@V?$basic_string@DU?$char_traits@D@std@@V?$allocator@D@2@@std@@V?$allocator@V?$basic_string@DU?$char_traits@D@std@@V?$allocator@D@2@@std@@@2@@std@@XZ 0046c560 f i MapHandlers.obj
 0001:0006b570       ?Command_META@MapHandlers@@SAXAAVCAOSMachine@@@Z 0046c570 f   MapHandlers.obj
 0001:0006b730       ?Command_BKGD@MapHandlers@@SAXAAVCAOSMachine@@@Z 0046c730 f   MapHandlers.obj
 0001:0006b8a0       ?ValidateBackground@MapHandlers@@SA_NABV?$basic_string@DU?$char_traits@D@std@@V?$allocator@D@2@@std@@H@Z 0046c8a0 f   MapHandlers.obj
 0001:0006ba20       ??1?$set@V?$basic_string@DU?$char_traits@D@std@@V?$allocator@D@2@@std@@U?$less@V?$basic_string@DU?$char_traits@D@std@@V?$allocator@D@2@@std@@@2@V?$allocator@V?$basic_string@DU?$char_traits@D@std@@V?$allocator@D@2@@std@@@2@@std@@QAE@XZ 0046ca20 f i MapHandlers.obj
 0001:0006baf0       ?Command_MAPD@MapHandlers@@SAXAAVCAOSMachine@@@Z 0046caf0 f   MapHandlers.obj
 0001:0006bb30       ?Command_DOOR@MapHandlers@@SAXAAVCAOSMachine@@@Z 0046cb30 f   MapHandlers.obj
 0001:0006bb90       ?Command_LINK@MapHandlers@@SAXAAVCAOSMachine@@@Z 0046cb90 f   MapHandlers.obj
 0001:0006bbf0       ?Command_RTYP@MapHandlers@@SAXAAVCAOSMachine@@@Z 0046cbf0 f   MapHandlers.obj
 0001:0006bc40       ?Command_PROP@MapHandlers@@SAXAAVCAOSMachine@@@Z 0046cc40 f   MapHandlers.obj
 0001:0006bca0       ?Command_RATE@MapHandlers@@SAXAAVCAOSMachine@@@Z 0046cca0 f   MapHandlers.obj
 0001:0006bd60       ?Write@CARates@@UBE_NAAVCreaturesArchive@@@Z 0046cd60 f i MapHandlers.obj
 0001:0006bdb0       ?Read@CARates@@UAE_NAAVCreaturesArchive@@@Z 0046cdb0 f i MapHandlers.obj
 0001:0006bdf0       ??_G?$pair@$$CBVClassifier@@UProfileData@DebugHandlers@@@std@@QAEPAXI@Z 0046cdf0 f i MapHandlers.obj
 0001:0006bdf0       ??_GCARates@@UAEPAXI@Z     0046cdf0 f i MapHandlers.obj
 0001:0006bdf0       ??_ECARates@@UAEPAXI@Z     0046cdf0 f i MapHandlers.obj
 0001:0006be20       ?StringRV_RATE@MapHandlers@@SAXAAVCAOSMachine@@AAV?$basic_string@DU?$char_traits@D@std@@V?$allocator@D@2@@std@@@Z 0046ce20 f   MapHandlers.obj
 0001:0006c050       ?Command_EMIT@MapHandlers@@SAXAAVCAOSMachine@@@Z 0046d050 f   MapHandlers.obj
 0001:0006c0f0       ?Command_CACL@MapHandlers@@SAXAAVCAOSMachine@@@Z 0046d0f0 f   MapHandlers.obj
 0001:0006c180       ?Command_ALTR@MapHandlers@@SAXAAVCAOSMachine@@@Z 0046d180 f   MapHandlers.obj
 0001:0006c280       ?IntegerRV_DOOR@MapHandlers@@SAHAAVCAOSMachine@@@Z 0046d280 f   MapHandlers.obj
 0001:0006c2d0       ?IntegerRV_LINK@MapHandlers@@SAHAAVCAOSMachine@@@Z 0046d2d0 f   MapHandlers.obj
 0001:0006c320       ?IntegerRV_MAPW@MapHandlers@@SAHAAVCAOSMachine@@@Z 0046d320 f   MapHandlers.obj
 0001:0006c350       ?IntegerRV_MAPH@MapHandlers@@SAHAAVCAOSMachine@@@Z 0046d350 f   MapHandlers.obj
 0001:0006c380       ?IntegerRV_ADDM@MapHandlers@@SAHAAVCAOSMachine@@@Z 0046d380 f   MapHandlers.obj
 0001:0006c490       ?IntegerRV_ADDR@MapHandlers@@SAHAAVCAOSMachine@@@Z 0046d490 f   MapHandlers.obj
 0001:0006c530       ?IntegerRV_META@MapHandlers@@SAHAAVCAOSMachine@@@Z 0046d530 f   MapHandlers.obj
 0001:0006c5a0       ?IntegerRV_RTYP@MapHandlers@@SAHAAVCAOSMachine@@@Z 0046d5a0 f   MapHandlers.obj
 0001:0006c5e0       ?FloatRV_PROP@MapHandlers@@SAMAAVCAOSMachine@@@Z 0046d5e0 f   MapHandlers.obj
 0001:0006c640       ?StringRV_BKGD@MapHandlers@@SAXAAVCAOSMachine@@AAV?$basic_string@DU?$char_traits@D@std@@V?$allocator@D@2@@std@@@Z 0046d640 f   MapHandlers.obj
 0001:0006c710       ?StringRV_BKDS@MapHandlers@@SAXAAVCAOSMachine@@AAV?$basic_string@DU?$char_traits@D@std@@V?$allocator@D@2@@std@@@Z 0046d710 f   MapHandlers.obj
 0001:0006c950       ?IntegerRV_ROOM@MapHandlers@@SAHAAVCAOSMachine@@@Z 0046d950 f   MapHandlers.obj
 0001:0006c9e0       ?IntegerRV_HIRP@MapHandlers@@SAHAAVCAOSMachine@@@Z 0046d9e0 f   MapHandlers.obj
 0001:0006ca40       ?IntegerRV_LORP@MapHandlers@@SAHAAVCAOSMachine@@@Z 0046da40 f   MapHandlers.obj
 0001:0006caa0       ?FloatRV_TORX@MapHandlers@@SAMAAVCAOSMachine@@@Z 0046daa0 f   MapHandlers.obj
 0001:0006cb60       ?FloatRV_TORY@MapHandlers@@SAMAAVCAOSMachine@@@Z 0046db60 f   MapHandlers.obj
 0001:0006cc30       ?IntegerRV_GRAP@MapHandlers@@SAHAAVCAOSMachine@@@Z 0046dc30 f   MapHandlers.obj
 0001:0006cc80       ?Command_BRMI@MapHandlers@@SAXAAVCAOSMachine@@@Z 0046dc80 f   MapHandlers.obj
 0001:0006ccc0       ?IntegerRV_GMAP@MapHandlers@@SAHAAVCAOSMachine@@@Z 0046dcc0 f   MapHandlers.obj
 0001:0006cd10       ?IntegerRV_GRID@MapHandlers@@SAHAAVCAOSMachine@@@Z 0046dd10 f   MapHandlers.obj
 0001:0006ce30       ?StringRV_EMID@MapHandlers@@SAXAAVCAOSMachine@@AAV?$basic_string@DU?$char_traits@D@std@@V?$allocator@D@2@@std@@@Z 0046de30 f   MapHandlers.obj
 0001:0006d050       ?StringRV_ERID@MapHandlers@@SAXAAVCAOSMachine@@AAV?$basic_string@DU?$char_traits@D@std@@V?$allocator@D@2@@std@@@Z 0046e050 f   MapHandlers.obj
 0001:0006d2a0       ?StringRV_RLOC@MapHandlers@@SAXAAVCAOSMachine@@AAV?$basic_string@DU?$char_traits@D@std@@V?$allocator@D@2@@std@@@Z 0046e2a0 f   MapHandlers.obj
 0001:0006d520       ?StringRV_MLOC@MapHandlers@@SAXAAVCAOSMachine@@AAV?$basic_string@DU?$char_traits@D@std@@V?$allocator@D@2@@std@@@Z 0046e520 f   MapHandlers.obj
 0001:0006d770       ??0?$_Tree@V?$basic_string@DU?$char_traits@D@std@@V?$allocator@D@2@@std@@V12@U_Kfn@?$set@V?$basic_string@DU?$char_traits@D@std@@V?$allocator@D@2@@std@@U?$less@V?$basic_string@DU?$char_traits@D@std@@V?$allocator@D@2@@std@@@2@V?$allocator@V?$basic_string@DU?$char_traits@D@std@@V?$allocator@D@2@@std@@@2@@2@U?$less@V?$basic_string@DU?$char_traits@D@std@@V?$allocator@D@2@@std@@@2@V?$allocator@V?$basic_string@DU?$char_traits@D@std@@V?$allocator@D@2@@std@@@2@@std@@QAE@ABU?$less@V?$basic_string@DU?$char_traits@D@std@@V?$allocator@D@2@@std@@@1@_NABV?$allocator@V?$basic_string@DU?$char_traits@D@std@@V?$allocator@D@2@@std@@@1@@Z 0046e770 f i MapHandlers.obj
 0001:0006d7e0       ?erase@?$_Tree@V?$basic_string@DU?$char_traits@D@std@@V?$allocator@D@2@@std@@V12@U_Kfn@?$set@V?$basic_string@DU?$char_traits@D@std@@V?$allocator@D@2@@std@@U?$less@V?$basic_string@DU?$char_traits@D@std@@V?$allocator@D@2@@std@@@2@V?$allocator@V?$basic_string@DU?$char_traits@D@std@@V?$allocator@D@2@@std@@@2@@2@U?$less@V?$basic_string@DU?$char_traits@D@std@@V?$allocator@D@2@@std@@@2@V?$allocator@V?$basic_string@DU?$char_traits@D@std@@V?$allocator@D@2@@std@@@2@@std@@QAE?AViterator@12@V312@0@Z 0046e7e0 f i MapHandlers.obj
 0001:0006d890       ?_Inc@iterator@?$_Tree@KU?$pair@$$CBKV?$list@PAVDrawableObject@@V?$allocator@PAVDrawableObject@@@std@@@std@@@std@@U_Kfn@?$map@KV?$list@PAVDrawableObject@@V?$allocator@PAVDrawableObject@@@std@@@std@@U?$less@K@2@V?$allocator@V?$list@PAVDrawableObject@@V?$allocator@PAVDrawableObject@@@std@@@std@@@2@@2@U?$less@K@2@V?$allocator@V?$list@PAVDrawableObject@@V?$allocator@PAVDrawableObject@@@std@@@std@@@2@@std@@QAEXXZ 0046e890 f i MapHandlers.obj
 0001:0006d890       ?_Inc@iterator@?$_Tree@V?$basic_string@DU?$char_traits@D@std@@V?$allocator@D@2@@std@@V12@U_Kfn@?$set@V?$basic_string@DU?$char_traits@D@std@@V?$allocator@D@2@@std@@U?$less@V?$basic_string@DU?$char_traits@D@std@@V?$allocator@D@2@@std@@@2@V?$allocator@V?$basic_string@DU?$char_traits@D@std@@V?$allocator@D@2@@std@@@2@@2@U?$less@V?$basic_string@DU?$char_traits@D@std@@V?$allocator@D@2@@std@@@2@V?$allocator@V?$basic_string@DU?$char_traits@D@std@@V?$allocator@D@2@@std@@@2@@std@@QAEXXZ 0046e890 f i MapHandlers.obj
 0001:0006d8e0       ?erase@?$_Tree@V?$basic_string@DU?$char_traits@D@std@@V?$allocator@D@2@@std@@V12@U_Kfn@?$set@V?$basic_string@DU?$char_traits@D@std@@V?$allocator@D@2@@std@@U?$less@V?$basic_string@DU?$char_traits@D@std@@V?$allocator@D@2@@std@@@2@V?$allocator@V?$basic_string@DU?$char_traits@D@std@@V?$allocator@D@2@@std@@@2@@2@U?$less@V?$basic_string@DU?$char_traits@D@std@@V?$allocator@D@2@@std@@@2@V?$allocator@V?$basic_string@DU?$char_traits@D@std@@V?$allocator@D@2@@std@@@2@@std@@QAE?AViterator@12@V312@@Z 0046e8e0 f i MapHandlers.obj
 0001:0006dcd0       ?_Erase@?$_Tree@V?$basic_string@DU?$char_traits@D@std@@V?$allocator@D@2@@std@@V12@U_Kfn@?$set@V?$basic_string@DU?$char_traits@D@std@@V?$allocator@D@2@@std@@U?$less@V?$basic_string@DU?$char_traits@D@std@@V?$allocator@D@2@@std@@@2@V?$allocator@V?$basic_string@DU?$char_traits@D@std@@V?$allocator@D@2@@std@@@2@@2@U?$less@V?$basic_string@DU?$char_traits@D@std@@V?$allocator@D@2@@std@@@2@V?$allocator@V?$basic_string@DU?$char_traits@D@std@@V?$allocator@D@2@@std@@@2@@std@@IAEXPAU_Node@12@@Z 0046ecd0 f i MapHandlers.obj
 0001:0006dd40       ?_Init@?$_Tree@V?$basic_string@DU?$char_traits@D@std@@V?$allocator@D@2@@std@@V12@U_Kfn@?$set@V?$basic_string@DU?$char_traits@D@std@@V?$allocator@D@2@@std@@U?$less@V?$basic_string@DU?$char_traits@D@std@@V?$allocator@D@2@@std@@@2@V?$allocator@V?$basic_string@DU?$char_traits@D@std@@V?$allocator@D@2@@std@@@2@@2@U?$less@V?$basic_string@DU?$char_traits@D@std@@V?$allocator@D@2@@std@@@2@V?$allocator@V?$basic_string@DU?$char_traits@D@std@@V?$allocator@D@2@@std@@@2@@std@@IAEXXZ 0046ed40 f i MapHandlers.obj
 0001:0006dda0       ??Eiterator@?$_Tree@V?$basic_string@DU?$char_traits@D@std@@V?$allocator@D@2@@std@@V12@U_Kfn@?$set@V?$basic_string@DU?$char_traits@D@std@@V?$allocator@D@2@@std@@U?$less@V?$basic_string@DU?$char_traits@D@std@@V?$allocator@D@2@@std@@@2@V?$allocator@V?$basic_string@DU?$char_traits@D@std@@V?$allocator@D@2@@std@@@2@@2@U?$less@V?$basic_string@DU?$char_traits@D@std@@V?$allocator@D@2@@std@@@2@V?$allocator@V?$basic_string@DU?$char_traits@D@std@@V?$allocator@D@2@@std@@@2@@std@@QAE?AV012@H@Z 0046eda0 f i MapHandlers.obj
 0001:0006dee0       ?AddAgent@@YAXVAgentHandle@@AAV?$vector@VAgentHandle@@V?$allocator@VAgentHandle@@@std@@@std@@@Z 0046eee0 f   PortHandlers.obj
 0001:0006e0c0       ?ScanInputs@@YAXVAgentHandle@@AAV?$vector@VAgentHandle@@V?$allocator@VAgentHandle@@@std@@@std@@@Z 0046f0c0 f   PortHandlers.obj
 0001:0006e170       ?GetOwner@Port@@QAEAAVAgentHandle@@XZ 0046f170 f i PortHandlers.obj
 0001:0006e170       ?GetVoice@Agent@@UAEAAVVoice@@XZ 0046f170 f i PortHandlers.obj
 0001:0006e180       ?ScanOutputs@@YAXVAgentHandle@@AAV?$vector@VAgentHandle@@V?$allocator@VAgentHandle@@@std@@@std@@@Z 0046f180 f   PortHandlers.obj
 0001:0006e250       ?ScanAgent@@YAXAAHAAV?$vector@VAgentHandle@@V?$allocator@VAgentHandle@@@std@@@std@@@Z 0046f250 f   PortHandlers.obj
 0001:0006e2e0       ?Command_ECON@PortHandlers@@SAXAAVCAOSMachine@@@Z 0046f2e0 f   PortHandlers.obj
 0001:0006e450       ?IntegerRV_PRT@PortHandlers@@SAHAAVCAOSMachine@@@Z 0046f450 f   PortHandlers.obj
 0001:0006e480       ?StringRV_PRT@PortHandlers@@SAXAAVCAOSMachine@@AAV?$basic_string@DU?$char_traits@D@std@@V?$allocator@D@2@@std@@@Z 0046f480 f   PortHandlers.obj
 0001:0006e4c0       ?AgentRV_PRT@PortHandlers@@SA?AVAgentHandle@@AAVCAOSMachine@@@Z 0046f4c0 f   PortHandlers.obj
 0001:0006e550       ?SubAgentRV_PRT_FRMA@PortHandlers@@CA?AVAgentHandle@@AAVCAOSMachine@@@Z 0046f550 f   PortHandlers.obj
 0001:0006e610       ?SubIntegerRV_PRT_FROM@PortHandlers@@CAHAAVCAOSMachine@@@Z 0046f610 f   PortHandlers.obj
 0001:0006e790       ?SubStringRV_PRT_NAME@PortHandlers@@CAXAAVCAOSMachine@@AAV?$basic_string@DU?$char_traits@D@std@@V?$allocator@D@2@@std@@@Z 0046f790 f   PortHandlers.obj
 0001:0006e940       ?SubCommand_PRT_INEW@PortHandlers@@CAXAAVCAOSMachine@@@Z 0046f940 f   PortHandlers.obj
 0001:0006eac0       ?SubCommand_PRT_ONEW@PortHandlers@@CAXAAVCAOSMachine@@@Z 0046fac0 f   PortHandlers.obj
 0001:0006ec30       ?SubCommand_PRT_IZAP@PortHandlers@@CAXAAVCAOSMachine@@@Z 0046fc30 f   PortHandlers.obj
 0001:0006ecc0       ?SubCommand_PRT_OZAP@PortHandlers@@CAXAAVCAOSMachine@@@Z 0046fcc0 f   PortHandlers.obj
 0001:0006ed50       ?SubCommand_PRT_JOIN@PortHandlers@@CAXAAVCAOSMachine@@@Z 0046fd50 f   PortHandlers.obj
 0001:0006eec0       ?SubCommand_PRT_SEND@PortHandlers@@CAXAAVCAOSMachine@@@Z 0046fec0 f   PortHandlers.obj
 0001:0006efd0       ?SubCommand_PRT_BANG@PortHandlers@@CAXAAVCAOSMachine@@@Z 0046ffd0 f   PortHandlers.obj
 0001:0006f110       ?SubCommand_PRT_KRAK@PortHandlers@@CAXAAVCAOSMachine@@@Z 00470110 f   PortHandlers.obj
 0001:0006f1d0       ?Command_PRT@PortHandlers@@SAXAAVCAOSMachine@@@Z 004701d0 f   PortHandlers.obj
 0001:0006f200       ?SubIntegerRV_PRT_ITOT@PortHandlers@@CAHAAVCAOSMachine@@@Z 00470200 f   PortHandlers.obj
 0001:0006f280       ?SubIntegerRV_PRT_OTOT@PortHandlers@@CAHAAVCAOSMachine@@@Z 00470280 f   PortHandlers.obj
 0001:0006f590       ?Command_RMSC@SoundHandlers@@SAXAAVCAOSMachine@@@Z 00470590 f   SoundHandlers.obj
 0001:0006f680       ?Command_MMSC@SoundHandlers@@SAXAAVCAOSMachine@@@Z 00470680 f   SoundHandlers.obj
 0001:0006f770       ?StringRV_RMSC@SoundHandlers@@SAXAAVCAOSMachine@@AAV?$basic_string@DU?$char_traits@D@std@@V?$allocator@D@2@@std@@@Z 00470770 f   SoundHandlers.obj
 0001:0006f840       ?StringRV_MMSC@SoundHandlers@@SAXAAVCAOSMachine@@AAV?$basic_string@DU?$char_traits@D@std@@V?$allocator@D@2@@std@@@Z 00470840 f   SoundHandlers.obj
 0001:0006f8c0       ?Command_MIDI@SoundHandlers@@SAXAAVCAOSMachine@@@Z 004708c0 f   SoundHandlers.obj
 0001:0006f9b0       ?Command_RCLR@SoundHandlers@@SAXAAVCAOSMachine@@@Z 004709b0 f   SoundHandlers.obj
 0001:0006fae0       ?Command_MCLR@SoundHandlers@@SAXAAVCAOSMachine@@@Z 00470ae0 f   SoundHandlers.obj
 0001:0006fc10       ?CheckSoundFileExists@SoundHandlers@@CAXAAVCAOSMachine@@ABV?$basic_string@DU?$char_traits@D@std@@V?$allocator@D@2@@std@@@Z 00470c10 f   SoundHandlers.obj
 0001:0006fd10       ?Command_SNDE@SoundHandlers@@SAXAAVCAOSMachine@@@Z 00470d10 f   SoundHandlers.obj
 0001:0006ff20       ?Command_SNDQ@SoundHandlers@@SAXAAVCAOSMachine@@@Z 00470f20 f   SoundHandlers.obj
 0001:00070140       ?Command_SNDC@SoundHandlers@@SAXAAVCAOSMachine@@@Z 00471140 f   SoundHandlers.obj
 0001:00070350       ?Command_SNDL@SoundHandlers@@SAXAAVCAOSMachine@@@Z 00471350 f   SoundHandlers.obj
 0001:00070560       ?Command_STPC@SoundHandlers@@SAXAAVCAOSMachine@@@Z 00471560 f   SoundHandlers.obj
 0001:000705e0       ?Command_FADE@SoundHandlers@@SAXAAVCAOSMachine@@@Z 004715e0 f   SoundHandlers.obj
 0001:00070660       ?Command_VOLM@SoundHandlers@@SAXAAVCAOSMachine@@@Z 00471660 f   SoundHandlers.obj
 0001:000706f0       ?IntegerRV_VOLM@SoundHandlers@@SAHAAVCAOSMachine@@@Z 004716f0 f   SoundHandlers.obj
 0001:00070760       ?Command_CD@SoundHandlers@@SAXAAVCAOSMachine@@@Z 00471760 f   SoundHandlers.obj
 0001:00070790       ?IntegerRV_CD@SoundHandlers@@SAHAAVCAOSMachine@@@Z 00471790 f   SoundHandlers.obj
 0001:000707c0       ?SubCommand_CD_PLAY@SoundHandlers@@CAXAAVCAOSMachine@@@Z 004717c0 f   SoundHandlers.obj
 0001:00070830       ?SubCommand_CD_EJCT@SoundHandlers@@CAXAAVCAOSMachine@@@Z 00471830 f   SoundHandlers.obj
 0001:00070840       ?SubCommand_CD_STOP@SoundHandlers@@CAXAAVCAOSMachine@@@Z 00471840 f   SoundHandlers.obj
 0001:00070850       ?SubCommand_CD_PAWS@SoundHandlers@@CAXAAVCAOSMachine@@@Z 00471850 f   SoundHandlers.obj
 0001:00070860       ?SubCommand_CD_INIT@SoundHandlers@@CAXAAVCAOSMachine@@@Z 00471860 f   SoundHandlers.obj
 0001:00070890       ?SubCommand_CD_SHUT@SoundHandlers@@CAXAAVCAOSMachine@@@Z 00471890 f   SoundHandlers.obj
 0001:000708c0       ?SubIntegerRV_CD_FRQL@SoundHandlers@@CAHAAVCAOSMachine@@@Z 004718c0 f   SoundHandlers.obj
 0001:000708f0       ?SubIntegerRV_CD_FRQM@SoundHandlers@@CAHAAVCAOSMachine@@@Z 004718f0 f   SoundHandlers.obj
 0001:00070920       ?SubIntegerRV_CD_FRQH@SoundHandlers@@CAHAAVCAOSMachine@@@Z 00471920 f   SoundHandlers.obj
 0001:00070c40       ?EnumModesCallback@DisplayEngine@@SGJPAU_DDSURFACEDESC2@@PAX@Z 00471c40 f   DisplayEngine.obj
 0001:00070ed0       ?theRenderer@DisplayEngine@@SAAAV1@XZ 00471ed0 f   DisplayEngine.obj
 0001:00070ee0       ??0DisplayEngine@@AAE@XZ   00471ee0 f   DisplayEngine.obj
 0001:00070f20       ??_EDisplayEngine@@UAEPAXI@Z 00471f20 f i DisplayEngine.obj
 0001:00070f20       ??_GDisplayEngine@@UAEPAXI@Z 00471f20 f i DisplayEngine.obj
 0001:00070f50       ??1DisplayEngine@@UAE@XZ   00471f50 f   DisplayEngine.obj
 0001:00070f60       ?ClearBuffers@DisplayEngine@@AAEXXZ 00471f60 f   DisplayEngine.obj
 0001:00071130       ?Start@DisplayEngine@@QAE_NAAKAAV?$vector@V?$basic_string@DU?$char_traits@D@std@@V?$allocator@D@2@@std@@V?$allocator@V?$basic_string@DU?$char_traits@D@std@@V?$allocator@D@2@@std@@@2@@std@@ABV?$basic_string@DU?$char_traits@D@std@@V?$allocator@D@2@@3@_N@Z 00472130 f   DisplayEngine.obj
 0001:000715d0       ?CreateUserInterfaceGalleries@DisplayEngine@@AAEXABV?$basic_string@DU?$char_traits@D@std@@V?$allocator@D@2@@std@@@Z 004725d0 f   DisplayEngine.obj
 0001:00071740       ?DoConversion@DisplayEngine@@QAEXAAV?$basic_string@DU?$char_traits@D@std@@V?$allocator@D@2@@std@@@Z 00472740 f   DisplayEngine.obj
 0001:00071d30       ?Check16BitFormat@DisplayEngine@@QAE_NAAKAAV?$vector@V?$basic_string@DU?$char_traits@D@std@@V?$allocator@D@2@@std@@V?$allocator@V?$basic_string@DU?$char_traits@D@std@@V?$allocator@D@2@@std@@@2@@std@@@Z 00472d30 f   DisplayEngine.obj
 0001:00071da0       ?SafeImageConvert@DisplayEngine@@QAE_NAAV?$basic_string@DU?$char_traits@D@std@@V?$allocator@D@2@@std@@0W4PIXEL_FORMAT@@0@Z 00472da0 f   DisplayEngine.obj
 0001:00071f30       ?GetSurfaceArea@DisplayEngine@@QAEXAAUtagRECT@@@Z 00472f30 f   DisplayEngine.obj
 0001:00071f60       ?GetWindowRect@DisplayEngine@@QAEXAAUtagRECT@@@Z 00472f60 f   DisplayEngine.obj
 0001:00071f90       ?CreateFullscreenDisplaySurfaces@DisplayEngine@@AAE_NXZ 00472f90 f   DisplayEngine.obj
 0001:00072090       ?ResizeWindow@DisplayEngine@@QAEXXZ 00473090 f   DisplayEngine.obj
 0001:00072140       ?ResizeWindow@DisplayEngine@@QAEXAAUtagRECT@@I@Z 00473140 f   DisplayEngine.obj
 0001:000721c0       ?MoveWindow@DisplayEngine@@QAEXXZ 004731c0 f   DisplayEngine.obj
 0001:00072230       ?CreateWindowedDisplaySurfaces@DisplayEngine@@AAE_NXZ 00473230 f   DisplayEngine.obj
 0001:00072330       ?Stop@DisplayEngine@@QAEXXZ 00473330 f   DisplayEngine.obj
 0001:000723a0       ?Update@DisplayEngine@@QAEXPAVBackground@@PAVDrawableObjectHandler@@_N2PAUIDirectDrawSurface4@@@Z 004733a0 f   DisplayEngine.obj
 0001:00072570       ?DrawToFrontBuffer@DisplayEngine@@QAEXXZ 00473570 f   DisplayEngine.obj
 0001:000726e0       ?FlipScreenHorizontally@DisplayEngine@@QAE_NXZ 004736e0 f   DisplayEngine.obj
 0001:00072a20       ?Burst@DisplayEngine@@QAEXXZ 00473a20 f   DisplayEngine.obj
 0001:00072d20       ?DrawSprite@DisplayEngine@@QAEXAAVPosition@@AAVBitmap@@@Z 00473d20 f   DisplayEngine.obj
 0001:00072e50       ?DrawMirroredSprite@DisplayEngine@@QAEXAAVPosition@@AAVBitmap@@@Z 00473e50 f   DisplayEngine.obj
 0001:00072f00       ?GetDrawingParameters@DisplayEngine@@AAE_NAAVPosition@@PAVBitmap@@AAKAAPAG23AAJ4@Z 00473f00 f   DisplayEngine.obj
 0001:00073040       ?DrawLineToBitmap@DisplayEngine@@QAEXPAVBitmap@@JJJJEEE@Z 00474040 f   DisplayEngine.obj
 0001:00073210       ?ChangeDisplayMode@DisplayEngine@@QAE_NKK_N@Z 00474210 f   DisplayEngine.obj
 0001:00073330       ?ToggleFullScreenMode@DisplayEngine@@QAE_NXZ 00474330 f   DisplayEngine.obj
 0001:00073390       ?DoChangeScreenMode@DisplayEngine@@AAE_N_N@Z 00474390 f   DisplayEngine.obj
 0001:00073470       ?PrepareForMessageBox@DisplayEngine@@QAEXXZ 00474470 f   DisplayEngine.obj
 0001:00073490       ?EndMessageBox@DisplayEngine@@QAEXXZ 00474490 f   DisplayEngine.obj
 0001:000734c0       ?ClientToScreen@DisplayEngine@@QAEXAAJ0@Z 004744c0 f   DisplayEngine.obj
 0001:00073500       ?BlitToFrontBuffer@DisplayEngine@@QAE_NAAUtagRECT@@PAUIDirectDrawSurface4@@0_N@Z 00474500 f   DisplayEngine.obj
 0001:00073570       ?BlitToBackBuffer@DisplayEngine@@QAE_NAAUtagRECT@@PAUIDirectDrawSurface4@@0_N@Z 00474570 f   DisplayEngine.obj
 0001:000735e0       ?DrawLine@DisplayEngine@@QAEXJJJJEEEEEK@Z 004745e0 f   DisplayEngine.obj
 0001:000738f0       ?HRESULTtoCHAR@DisplayEngine@@AAEXJPAD@Z 004748f0 f   DisplayEngine.obj
 0001:000746e0       ?DrawCompressedSprite@DisplayEngine@@QAEXAAVPosition@@PAVCompressedBitmap@@@Z 004756e0 f   DisplayEngine.obj
 0001:00074b90       ?DrawMirroredCompressedSprite@DisplayEngine@@QAEXAAVPosition@@PAVCompressedBitmap@@@Z 00475b90 f   DisplayEngine.obj
 0001:00075000       ?ClipLine@DisplayEngine@@SA_NPAUtagRECT@@AAH111E@Z 00476000 f   DisplayEngine.obj
 0001:00075190       ?CalcOutCode@DisplayEngine@@SAHPAUtagRECT@@HH@Z 00476190 f   DisplayEngine.obj
 0001:000751d0       ?ReleaseHelperDirectDrawStuff@DisplayEngine@@AAEXXZ 004761d0 f   DisplayEngine.obj
 0001:00075220       ?CreateSurface@DisplayEngine@@QAEPAUIDirectDrawSurface4@@JJ_N@Z 00476220 f   DisplayEngine.obj
 0001:000752b0       ?ReleaseSurface@DisplayEngine@@QAEXAAPAUIDirectDrawSurface4@@@Z 004762b0 f   DisplayEngine.obj
 0001:000752d0       ?CreateProgressBar@DisplayEngine@@QAE_NPAVBitmap@@@Z 004762d0 f   DisplayEngine.obj
 0001:000753c0       ?RenderBitmapToFrontBuffer@DisplayEngine@@QAE_NPAVBitmap@@@Z 004763c0 f   DisplayEngine.obj
 0001:00075510       ?StartProgressBar@DisplayEngine@@QAEXH@Z 00476510 f   DisplayEngine.obj
 0001:00075540       ?UpdateProgressBar@DisplayEngine@@QAEXH@Z 00476540 f   DisplayEngine.obj
 0001:00075600       ?EndProgressBar@DisplayEngine@@QAEXXZ 00476600 f   DisplayEngine.obj
 0001:00075610       ?GetPixelFormat@DisplayEngine@@QAE_NAAK@Z 00476610 f   DisplayEngine.obj
 0001:000756a0       ?OpenBackBuffer@DisplayEngine@@AAEPAGXZ 004766a0 f   DisplayEngine.obj
 0001:00075740       ?DealingWithExceptions@DisplayEngine@@QAE_NXZ 00476740 f   DisplayEngine.obj
 0001:00075750       ?DrawGuttering@DisplayEngine@@QAEXPAUIDirectDrawSurface4@@HH@Z 00476750 f   DisplayEngine.obj
 0001:00075800       ?_Ucopy@?$vector@UResolution@DisplayEngine@@V?$allocator@UResolution@DisplayEngine@@@std@@@std@@IAEPAUResolution@DisplayEngine@@PBU34@0PAU34@@Z 00476800 f i DisplayEngine.obj
 0001:00075840       ?_Ufill@?$vector@UResolution@DisplayEngine@@V?$allocator@UResolution@DisplayEngine@@@std@@@std@@IAEXPAUResolution@DisplayEngine@@IABU34@@Z 00476840 f i DisplayEngine.obj
 0001:00075880       ?_Construct@std@@YAXPAUResolution@DisplayEngine@@ABU23@@Z 00476880 f i DisplayEngine.obj
 0001:00075950       ??0ErrorDialog@@QAE@XZ     00476950 f   ErrorDialog.obj
 0001:00075990       ?DisplayDialog@ErrorDialog@@QAEHPAUHWND__@@@Z 00476990 f   ErrorDialog.obj
 0001:000759d0       ?SetText@ErrorDialog@@QAEXABV?$basic_string@DU?$char_traits@D@std@@V?$allocator@D@2@@std@@0@Z 004769d0 f   ErrorDialog.obj
 0001:00075b70       ?ErrorDlgProc@@YGJPAUHWND__@@IIJ@Z 00476b70 f   ErrorDialog.obj
 0001:00075ba0       ?ProcessMessage@ErrorDialog@@QAEJPAUHWND__@@IIJ@Z 00476ba0 f   ErrorDialog.obj
 0001:00075fc0       ?HandleMessages@@YAXII_N@Z 00476fc0 f   Window.obj
 0001:00076200       ?NewFailedHandler@@YAHI@Z  00477200 f   Window.obj
 0001:00076280       _WinMain@16                00477280 f   Window.obj
 0001:00076620       ?ResetWindowTitle@@YAXXZ   00477620 f   Window.obj
 0001:00076cc0       ?Ticker@@YGKPAX@Z          00477cc0 f   Window.obj
 0001:00076d40       ?SendTickMessage@@YAXXZ    00477d40 f   Window.obj
 0001:00077d40       ?SetGameTicking@@YA_N_N@Z  00478d40 f   Window.obj
 0001:00077e60       ?GetGameTicking@@YA_NXZ    00478e60 f   Window.obj
 0001:00077e80       ?SignalTerminateApplication@@YAXXZ 00478e80 f   Window.obj
 0001:00077ee0       ?SetSingleStepAgent@@YAXVAgentHandle@@@Z 00478ee0 f   Window.obj
 0001:00077f30       ?GetSingleStepAgent@@YA?AVAgentHandle@@XZ 00478f30 f   Window.obj
 0001:00077f60       ?WaitForSingleStepCommand@@YAXXZ 00478f60 f   Window.obj
 0001:00078000       ?GlobalIsKeyDown@@YA_NH@Z  00479000 f   Window.obj
 0001:00078040       ?GlobalSetCapture@@YAXXZ   00479040 f   Window.obj
 0001:00078050       ?GlobalReleaseCapture@@YAXXZ 00479050 f   Window.obj
 0001:00078060       ?GlobalWarpMouse@@YAXHH@Z  00479060 f   Window.obj
 0001:00078150       ??0Background@@QAE@XZ      00479150 f   Background.obj
 0001:00078170       ?Create@Background@@QAE_NABV?$basic_string@DU?$char_traits@D@std@@V?$allocator@D@2@@std@@VPosition@@1@Z 00479170 f   Background.obj
 0001:000781f0       ?Create@Background@@QAE_NVPosition@@ABV?$basic_string@DU?$char_traits@D@std@@V?$allocator@D@2@@std@@0KK@Z 004791f0 f   Background.obj
 0001:00078260       ?InitialiseGallery@Background@@QAE_NABV?$basic_string@DU?$char_traits@D@std@@V?$allocator@D@2@@std@@@Z 00479260 f   Background.obj
 0001:000782d0       ?Create@Background@@QAE_NABV?$basic_string@DU?$char_traits@D@std@@V?$allocator@D@2@@std@@AAUtagRECT@@VPosition@@@Z 004792d0 f   Background.obj
 0001:000783c0       ?GetConsideredDisplayArea@Background@@QAEXAAJ0@Z 004793c0 f   Background.obj
 0001:00078410       ?GetBackgroundName@Background@@QBE?AV?$basic_string@DU?$char_traits@D@std@@V?$allocator@D@2@@std@@XZ 00479410 f   Background.obj
 0001:00078440       ?GetName@Gallery@@QAE?AV?$basic_string@DU?$char_traits@D@std@@V?$allocator@D@2@@std@@XZ 00479440 f i Background.obj
 0001:00078590       ?Draw@Background@@QAEX_NAAV?$vector@UtagRECT@@V?$allocator@UtagRECT@@@std@@@std@@AAV?$list@U?$pair@HH@std@@V?$allocator@U?$pair@HH@std@@@2@@3@@Z 00479590 f   Background.obj
 0001:000787f0       ?erase@?$_Tree@KU?$pair@$$CBK_N@std@@U_Kfn@?$map@K_NU?$less@K@std@@V?$allocator@_N@2@@2@U?$less@K@2@V?$allocator@_N@2@@std@@QAE?AViterator@12@V312@0@Z 004797f0 f i Background.obj
 0001:000788a0       ?_Erase@?$_Tree@KU?$pair@$$CBK_N@std@@U_Kfn@?$map@K_NU?$less@K@std@@V?$allocator@_N@2@@2@U?$less@K@2@V?$allocator@_N@2@@std@@IAEXPAU_Node@12@@Z 004798a0 f i Background.obj
 0001:00078990       ??0Bitmap@@QAE@XZ          00479990 f   Bitmap.obj
 0001:000789e0       ??1Bitmap@@UAE@XZ          004799e0 f   Bitmap.obj
 0001:00078a40       ?LoadFromS16@Bitmap@@QAEXAAVFile@@@Z 00479a40 f   Bitmap.obj
 0001:00078ba0       ?Save@Bitmap@@UAEXAAVFile@@@Z 00479ba0 f   Bitmap.obj
 0001:00078be0       ?SaveHeader@Bitmap@@QAEKAAVMemoryMappedFile@@@Z 00479be0 f   Bitmap.obj
 0001:00078c40       ?SaveData@Bitmap@@UAEKAAVFile@@@Z 00479c40 f   Bitmap.obj
 0001:00078c80       ?SaveData@Bitmap@@UAEKAAVMemoryMappedFile@@@Z 00479c80 f   Bitmap.obj
 0001:00078cf0       ?Draw@Bitmap@@UAEXXZ       00479cf0 f   Bitmap.obj
 0001:00078e90       ?DrawWholeBitmapRegardless@Bitmap@@UAEXXZ 00479e90 f   Bitmap.obj
 0001:00078ff0       ?Recolour@Bitmap@@UAEXAAPBG@Z 00479ff0 f   Bitmap.obj
 0001:00079030       ?IsPixelTransparent@Bitmap@@UAE_NVPosition@@@Z 0047a030 f   Bitmap.obj
 0001:00079070       ?SetData@Bitmap@@UAEXAAVMemoryMappedFile@@@Z 0047a070 f   Bitmap.obj
 0001:000790b0       ?Convert@Bitmap@@UAEXKK@Z  0047a0b0 f   Bitmap.obj
 0001:00079200       ?ResetCanvas@Bitmap@@QAEXXZ 0047a200 f   Bitmap.obj
 0001:00079230       ?SetData@Bitmap@@UAEXAAPAE@Z 0047a230 f   Bitmap.obj
 0001:00079260       ?InitHeader@Bitmap@@UAEXAAVMemoryMappedFile@@@Z 0047a260 f   Bitmap.obj
 0001:000792c0       ?Read@Bitmap@@UAE_NAAVCreaturesArchive@@@Z 0047a2c0 f   Bitmap.obj
 0001:00079380       ?CreatePixelData@Bitmap@@QAEXPAG@Z 0047a380 f   Bitmap.obj
 0001:000793d0       ?DecompressC16@Bitmap@@QAEXAAVFile@@@Z 0047a3d0 f   Bitmap.obj
 0001:00079590       ?Copy@Bitmap@@UAEXAAV1@@Z  0047a590 f   Bitmap.obj
 0001:00079740       ?CreateNewClonedGallery@@YAPAVPersistentObject@@XZ 0047a740 f   ClonedGallery.obj
 0001:000797a0       ??_GClonedGallery@@UAEPAXI@Z 0047a7a0 f i ClonedGallery.obj
 0001:000797a0       ??_EClonedGallery@@UAEPAXI@Z 0047a7a0 f i ClonedGallery.obj
 0001:00079800       ?GetClassNameX@ClonedGallery@@UBEPBDXZ 0047a800 f   ClonedGallery.obj
 0001:00079810       ??5@YAAAVCreaturesArchive@@AAV0@AAPAVClonedGallery@@@Z 0047a810 f   ClonedGallery.obj
 0001:00079870       ??1ClonedGallery@@UAE@XZ   0047a870 f   ClonedGallery.obj
 0001:00079880       ?Visible@Line@@UAE_NAAUtagRECT@@@Z 0047a880 f   ClonedGallery.obj
 0001:00079880       ?Write@ClonedGallery@@UBE_NAAVCreaturesArchive@@@Z 0047a880 f   ClonedGallery.obj
 0001:00079880       ?ValidatePart@SkeletalCreature@@UAE_NH@Z 0047a880 f   ClonedGallery.obj
 0001:00079890       ?Read@ClonedGallery@@UAE_NAAVCreaturesArchive@@@Z 0047a890 f   ClonedGallery.obj
 0001:000799a0       ??0CompressedBitmap@@QAE@XZ 0047a9a0 f   CompressedBitmap.obj
 0001:000799f0       ??1CompressedBitmap@@UAE@XZ 0047a9f0 f   CompressedBitmap.obj
 0001:00079b20       ?HandleDrop@PointerAgent@@EAEXPAVMessage@@@Z 0047ab20 f   CompressedBitmap.obj
 0001:00079b20       ?HandleUI@UIPart@@UAEXPAVMessage@@@Z 0047ab20 f   CompressedBitmap.obj
 0001:00079b20       ?HandlePickup@PointerAgent@@EAEXPAVMessage@@@Z 0047ab20 f   CompressedBitmap.obj
 0001:00079b20       ?ReadFromGenome@Faculty@@UAEXAAVGenome@@@Z 0047ab20 f   CompressedBitmap.obj
 0001:00079b20       ?HandleStopHoldHands@Agent@@MAEXPAVMessage@@@Z 0047ab20 f   CompressedBitmap.obj
 0001:00079b20       ?HandleStartHoldHands@Agent@@MAEXPAVMessage@@@Z 0047ab20 f   CompressedBitmap.obj
 0001:00079b20       ?Save@CompressedBitmap@@UAEXAAVFile@@@Z 0047ab20 f   CompressedBitmap.obj
 0001:00079b20       ?Skip@CreaturesArchive@@QAEXH@Z 0047ab20 f   CompressedBitmap.obj
 0001:00079b30       ?SetData@CompressedBitmap@@UAEXAAPAE@Z 0047ab30 f   CompressedBitmap.obj
 0001:00079b50       ?SetData@CompressedBitmap@@UAEXAAVMemoryMappedFile@@@Z 0047ab50 f   CompressedBitmap.obj
 0001:00079b80       ?GetPose@Agent@@UAEHH@Z    0047ab80 f   CompressedBitmap.obj
 0001:00079b80       ?SaveData@CompressedBitmap@@UAEKAAPAE@Z 0047ab80 f   CompressedBitmap.obj
 0001:00079b90       ?SaveData@CompressedBitmap@@UAEKAAVMemoryMappedFile@@@Z 0047ab90 f   CompressedBitmap.obj
 0001:00079c70       ?LoadFromC16@CompressedBitmap@@QAEXAAVMemoryMappedFile@@@Z 0047ac70 f   CompressedBitmap.obj
 0001:00079db0       ?Recolour@CompressedBitmap@@UAEXAAPBG@Z 0047adb0 f   CompressedBitmap.obj
 0001:00079e20       ?UpdateOffsetValues@CompressedBitmap@@QAEXK@Z 0047ae20 f   CompressedBitmap.obj
 0001:00079e60       ?Convert@CompressedBitmap@@UAEXKK@Z 0047ae60 f   CompressedBitmap.obj
 0001:0007a050       ?IsPixelTransparent@CompressedBitmap@@UAE_NVPosition@@@Z 0047b050 f   CompressedBitmap.obj
 0001:0007a0d0       ?InitHeader@CompressedBitmap@@UAEXAAVMemoryMappedFile@@@Z 0047b0d0 f   CompressedBitmap.obj
 0001:0007a290       ?GetScanLine@CompressedBitmap@@UAEPAEK@Z 0047b290 f   CompressedBitmap.obj
 0001:0007a2c0       ?SaveData@CompressedBitmap@@UAEKAAVFile@@@Z 0047b2c0 f   CompressedBitmap.obj
 0001:0007a490       ??0CreatureGallery@@QAE@ABV?$basic_string@DU?$char_traits@D@std@@V?$allocator@D@2@@std@@J0@Z 0047b490 f   CreatureGallery.obj
 0001:0007a690       ??_ECreatureGallery@@UAEPAXI@Z 0047b690 f i CreatureGallery.obj
 0001:0007a690       ??_GCreatureGallery@@UAEPAXI@Z 0047b690 f i CreatureGallery.obj
 0001:0007a6c0       ?BuildDatabase@CreatureGallery@@AAEXXZ 0047b6c0 f   CreatureGallery.obj
 0001:0007a940       ??0CreatureGalleryException@CreatureGallery@@QAE@V?$basic_string@DU?$char_traits@D@std@@V?$allocator@D@2@@std@@K@Z 0047b940 f i CreatureGallery.obj
 0001:0007aa40       ??0CreatureGalleryException@CreatureGallery@@QAE@ABV01@@Z 0047ba40 f i CreatureGallery.obj
 0001:0007abc0       ??1CreatureGallery@@UAE@XZ 0047bbc0 f   CreatureGallery.obj
 0001:0007aca0       ?CreateTemplateFile@CreatureGallery@@AAEXXZ 0047bca0 f   CreatureGallery.obj
 0001:0007ad10       ?AddCompressedCreature@CreatureGallery@@QAEPAVGallery@@V?$basic_string@DU?$char_traits@D@std@@V?$allocator@D@2@@std@@KKEEQAJQAV2@J@Z 0047bd10 f   CreatureGallery.obj
 0001:0007aeb0       ?Part1CreatureBuilder@CreatureGallery@@AAE_NQAJQAVGallery@@JKK@Z 0047beb0 f   CreatureGallery.obj
 0001:0007af70       ?Part2CreatureBuilder@CreatureGallery@@AAEXKQAJQAVGallery@@@Z 0047bf70 f   CreatureGallery.obj
 0001:0007b090       ?Part3CreatureBuilder@CreatureGallery@@AAEXQAVGallery@@K@Z 0047c090 f   CreatureGallery.obj
 0001:0007b110       ?Part4CreatureBuilder@CreatureGallery@@AAEXQAVGallery@@K@Z 0047c110 f   CreatureGallery.obj
 0001:0007b210       ?FindSlot@CreatureGallery@@AAEKK@Z 0047c210 f   CreatureGallery.obj
 0001:0007b290       ?RemoveAll@CreatureGallery@@QAEXXZ 0047c290 f   CreatureGallery.obj
 0001:0007b2e0       ?BuildGalleries@CreatureGallery@@QAE_NAAV?$basic_string@DU?$char_traits@D@std@@V?$allocator@D@2@@std@@AAJAAKPBG@Z 0047c2e0 f   CreatureGallery.obj
 0001:0007b3f0       ?CreateGallery@CreatureGallery@@QAE_NV?$basic_string@DU?$char_traits@D@std@@V?$allocator@D@2@@std@@KKEEQAJPAV1@J_N@Z 0047c3f0 f   CreatureGallery.obj
 0001:0007b5c0       ?DrawAlphaCompressedSprite@DisplayEngine@@QAEXAAVPosition@@PAVCompressedBitmap@@H@Z 0047c5c0 f   DisplayEnginePlotFunctions.obj
 0001:0007c0c0       ?DrawAlphaSprite@DisplayEngine@@QAEXAAVPosition@@AAVBitmap@@H@Z 0047d0c0 f   DisplayEnginePlotFunctions.obj
 0001:0007c360       ??0DrawableObject@@QAE@XZ  0047d360 f   DrawableObject.obj
 0001:0007c390       ??_GDrawableObject@@UAEPAXI@Z 0047d390 f i DrawableObject.obj
 0001:0007c390       ??_EDrawableObject@@UAEPAXI@Z 0047d390 f i DrawableObject.obj
 0001:0007c4d0       ??1?$map@KV?$list@PAVDrawableObject@@V?$allocator@PAVDrawableObject@@@std@@@std@@U?$less@K@2@V?$allocator@V?$list@PAVDrawableObject@@V?$allocator@PAVDrawableObject@@@std@@@std@@@2@@std@@QAE@XZ 0047d4d0 f i DrawableObjectHandler.obj
 0001:0007c600       ??1?$map@PAVDrawableObject@@Viterator@?$list@PAVDrawableObject@@V?$allocator@PAVDrawableObject@@@std@@@std@@U?$less@PAVDrawableObject@@@4@V?$allocator@Viterator@?$list@PAVDrawableObject@@V?$allocator@PAVDrawableObject@@@std@@@std@@@4@@std@@QAE@XZ 0047d600 f i DrawableObjectHandler.obj
 0001:0007c6c0       ?Add@DrawableObjectHandler@@QAE_NQAVDrawableObject@@@Z 0047d6c0 f   DrawableObjectHandler.obj
 0001:0007c980       ?InsertObject@DrawableObjectHandler@@QAE_NQAVDrawableObject@@PAUtagRECT@@@Z 0047d980 f   DrawableObjectHandler.obj
 0001:0007cae0       ??1DrawableObjectHandler@@QAE@XZ 0047dae0 f   DrawableObjectHandler.obj
 0001:0007cc00       ?Draw@DrawableObjectHandler@@QAEX_N@Z 0047dc00 f   DrawableObjectHandler.obj
 0001:0007cdf0       ?SetInterestLevel@DrawableObjectHandler@@QAEX_N@Z 0047ddf0 f   DrawableObjectHandler.obj
 0001:0007ce00       ?Update@DrawableObjectHandler@@QAEXVPosition@@@Z 0047de00 f   DrawableObjectHandler.obj
 0001:0007d0b0       ??1?$map@U?$pair@HH@std@@_NU?$less@U?$pair@HH@std@@@2@V?$allocator@_N@2@@std@@QAE@XZ 0047e0b0 f i DrawableObjectHandler.obj
 0001:0007d170       ?ShutDown@DrawableObjectHandler@@QAEXXZ 0047e170 f   DrawableObjectHandler.obj
 0001:0007d180       ?Remove@DrawableObjectHandler@@QAE_NQAVDrawableObject@@@Z 0047e180 f   DrawableObjectHandler.obj
 0001:0007d240       ?SetWorldPosition@DrawableObjectHandler@@QAEXVPosition@@@Z 0047e240 f   DrawableObjectHandler.obj
 0001:0007d260       ?Write@DrawableObjectHandler@@UBE_NAAVCreaturesArchive@@@Z 0047e260 f   DrawableObjectHandler.obj
 0001:0007d2a0       ?Read@DrawableObjectHandler@@UAE_NAAVCreaturesArchive@@@Z 0047e2a0 f   DrawableObjectHandler.obj
 0001:0007d300       ??0?$map@KV?$list@PAVDrawableObject@@V?$allocator@PAVDrawableObject@@@std@@@std@@U?$less@K@2@V?$allocator@V?$list@PAVDrawableObject@@V?$allocator@PAVDrawableObject@@@std@@@std@@@2@@std@@QAE@ABU?$less@K@1@ABV?$allocator@V?$list@PAVDrawableObject@@V?$allocator@PAVDrawableObject@@@std@@@std@@@1@@Z 0047e300 f i DrawableObjectHandler.obj
 0001:0007d300       ??0?$set@V?$basic_string@DU?$char_traits@D@std@@V?$allocator@D@2@@std@@U?$less@V?$basic_string@DU?$char_traits@D@std@@V?$allocator@D@2@@std@@@2@V?$allocator@V?$basic_string@DU?$char_traits@D@std@@V?$allocator@D@2@@std@@@2@@std@@QAE@ABU?$less@V?$basic_string@DU?$char_traits@D@std@@V?$allocator@D@2@@std@@@1@ABV?$allocator@V?$basic_string@DU?$char_traits@D@std@@V?$allocator@D@2@@std@@@1@@Z 0047e300 f i DrawableObjectHandler.obj
 0001:0007d370       ??A?$map@KV?$list@PAVDrawableObject@@V?$allocator@PAVDrawableObject@@@std@@@std@@U?$less@K@2@V?$allocator@V?$list@PAVDrawableObject@@V?$allocator@PAVDrawableObject@@@std@@@std@@@2@@std@@QAEAAV?$list@PAVDrawableObject@@V?$allocator@PAVDrawableObject@@@std@@@1@ABK@Z 0047e370 f i DrawableObjectHandler.obj
 0001:0007d4a0       ?clear@?$list@U?$pair@HH@std@@V?$allocator@U?$pair@HH@std@@@2@@std@@QAEXXZ 0047e4a0 f i DrawableObjectHandler.obj
 0001:0007d4e0       ??1?$pair@$$CBKV?$list@PAVDrawableObject@@V?$allocator@PAVDrawableObject@@@std@@@std@@@std@@QAE@XZ 0047e4e0 f i DrawableObjectHandler.obj
 0001:0007d530       ?erase@?$vector@UtagRECT@@V?$allocator@UtagRECT@@@std@@@std@@QAEPAUtagRECT@@PAU3@0@Z 0047e530 f i DrawableObjectHandler.obj
 0001:0007d590       ?end@?$_Tree@VCAOSVar@@U?$pair@$$CBVCAOSVar@@V1@@std@@U_Kfn@?$map@VCAOSVar@@V1@U?$less@VCAOSVar@@@std@@V?$allocator@VCAOSVar@@@3@@3@U?$less@VCAOSVar@@@3@V?$allocator@VCAOSVar@@@3@@std@@QBE?AVconst_iterator@12@XZ 0047e590 f i DrawableObjectHandler.obj
 0001:0007d590       ?end@?$_Tree@HU?$pair@$$CBHV?$basic_string@DU?$char_traits@D@std@@V?$allocator@D@2@@std@@@std@@U_Kfn@?$map@HV?$basic_string@DU?$char_traits@D@std@@V?$allocator@D@2@@std@@U?$less@H@2@V?$allocator@V?$basic_string@DU?$char_traits@D@std@@V?$allocator@D@2@@std@@@2@@2@U?$less@H@2@V?$allocator@V?$basic_string@DU?$char_traits@D@std@@V?$allocator@D@2@@std@@@2@@std@@QBE?AVconst_iterator@12@XZ 0047e590 f i DrawableObjectHandler.obj
 0001:0007d590       ?end@?$list@PAVDoor@@V?$allocator@PAVDoor@@@std@@@std@@QBE?AVconst_iterator@12@XZ 0047e590 f i DrawableObjectHandler.obj
 0001:0007d590       ?end@?$_Tree@V?$basic_string@DU?$char_traits@D@std@@V?$allocator@D@2@@std@@U?$pair@$$CBV?$basic_string@DU?$char_traits@D@std@@V?$allocator@D@2@@std@@V12@@2@U_Kfn@?$map@V?$basic_string@DU?$char_traits@D@std@@V?$allocator@D@2@@std@@V12@U?$less@V?$basic_string@DU?$char_traits@D@std@@V?$allocator@D@2@@std@@@2@V?$allocator@V?$basic_string@DU?$char_traits@D@std@@V?$allocator@D@2@@std@@@2@@2@U?$less@V?$basic_string@DU?$char_traits@D@std@@V?$allocator@D@2@@std@@@2@V?$allocator@V?$basic_string@DU?$char_traits@D@std@@V?$allocator@D@2@@std@@@2@@std@@QBE?AVconst_iterator@12@XZ 0047e590 f i DrawableObjectHandler.obj
 0001:0007d590       ?end@?$list@U?$pair@HH@std@@V?$allocator@U?$pair@HH@std@@@2@@std@@QBE?AVconst_iterator@12@XZ 0047e590 f i DrawableObjectHandler.obj
 0001:0007d590       ?end@?$_Tree@V?$basic_string@DU?$char_traits@D@std@@V?$allocator@D@2@@std@@U?$pair@$$CBV?$basic_string@DU?$char_traits@D@std@@V?$allocator@D@2@@std@@UTagStruct@Catalogue@@@2@U_Kfn@?$map@V?$basic_string@DU?$char_traits@D@std@@V?$allocator@D@2@@std@@UTagStruct@Catalogue@@U?$less@V?$basic_string@DU?$char_traits@D@std@@V?$allocator@D@2@@std@@@2@V?$allocator@UTagStruct@Catalogue@@@2@@2@U?$less@V?$basic_string@DU?$char_traits@D@std@@V?$allocator@D@2@@std@@@2@V?$allocator@UTagStruct@Catalogue@@@2@@std@@QBE?AVconst_iterator@12@XZ 0047e590 f i DrawableObjectHandler.obj
 0001:0007d590       ?end@?$_Tree@V?$basic_string@DU?$char_traits@D@std@@V?$allocator@D@2@@std@@U?$pair@$$CBV?$basic_string@DU?$char_traits@D@std@@V?$allocator@D@2@@std@@VCAOSVar@@@2@U_Kfn@?$map@V?$basic_string@DU?$char_traits@D@std@@V?$allocator@D@2@@std@@VCAOSVar@@U?$less@V?$basic_string@DU?$char_traits@D@std@@V?$allocator@D@2@@std@@@2@V?$allocator@VCAOSVar@@@2@@2@U?$less@V?$basic_string@DU?$char_traits@D@std@@V?$allocator@D@2@@std@@@2@V?$allocator@VCAOSVar@@@2@@std@@QBE?AVconst_iterator@12@XZ 0047e590 f i DrawableObjectHandler.obj
 0001:0007d5a0       ?insert@?$list@U?$pair@HH@std@@V?$allocator@U?$pair@HH@std@@@2@@std@@QAEXViterator@12@Vconst_iterator@12@1@Z 0047e5a0 f i DrawableObjectHandler.obj
 0001:0007d610       ?insert@?$map@U?$pair@HH@std@@_NU?$less@U?$pair@HH@std@@@2@V?$allocator@_N@2@@std@@QAE?AU?$pair@Viterator@?$_Tree@U?$pair@HH@std@@U?$pair@$$CBU?$pair@HH@std@@_N@2@U_Kfn@?$map@U?$pair@HH@std@@_NU?$less@U?$pair@HH@std@@@2@V?$allocator@_N@2@@2@U?$less@U?$pair@HH@std@@@2@V?$allocator@_N@2@@std@@_N@2@ABU?$pair@$$CBU?$pair@HH@std@@_N@2@@Z 0047e610 f i DrawableObjectHandler.obj
 0001:0007d700       ??0?$_Tree@U?$pair@HH@std@@U?$pair@$$CBU?$pair@HH@std@@_N@2@U_Kfn@?$map@U?$pair@HH@std@@_NU?$less@U?$pair@HH@std@@@2@V?$allocator@_N@2@@2@U?$less@U?$pair@HH@std@@@2@V?$allocator@_N@2@@std@@QAE@ABU?$less@U?$pair@HH@std@@@1@_NABV?$allocator@_N@1@@Z 0047e700 f i DrawableObjectHandler.obj
 0001:0007d770       ?erase@?$_Tree@U?$pair@HH@std@@U?$pair@$$CBU?$pair@HH@std@@_N@2@U_Kfn@?$map@U?$pair@HH@std@@_NU?$less@U?$pair@HH@std@@@2@V?$allocator@_N@2@@2@U?$less@U?$pair@HH@std@@@2@V?$allocator@_N@2@@std@@QAE?AViterator@12@V312@0@Z 0047e770 f i DrawableObjectHandler.obj
 0001:0007d820       ?insert@?$_Tree@KU?$pair@$$CBKV?$list@PAVDrawableObject@@V?$allocator@PAVDrawableObject@@@std@@@std@@@std@@U_Kfn@?$map@KV?$list@PAVDrawableObject@@V?$allocator@PAVDrawableObject@@@std@@@std@@U?$less@K@2@V?$allocator@V?$list@PAVDrawableObject@@V?$allocator@PAVDrawableObject@@@std@@@std@@@2@@2@U?$less@K@2@V?$allocator@V?$list@PAVDrawableObject@@V?$allocator@PAVDrawableObject@@@std@@@std@@@2@@std@@QAE?AU?$pair@Viterator@?$_Tree@KU?$pair@$$CBKV?$list@PAVDrawableObject@@V?$allocator@PAVDrawableObject@@@std@@@std@@@std@@U_Kfn@?$map@KV?$list@PAVDrawableObject@@V?$allocator@PAVDrawableObject@@@std@@@std@@U?$less@K@2@V?$allocator@V?$list@PAVDrawableObject@@V?$allocator@PAVDrawableObject@@@std@@@std@@@2@@2@U?$less@K@2@V?$allocator@V?$list@PAVDrawableObject@@V?$allocator@PAVDrawableObject@@@std@@@std@@@2@@std@@_N@2@ABU?$pair@$$CBKV?$list@PAVDrawableObject@@V?$allocator@PAVDrawableObject@@@std@@@std@@@2@@Z 0047e820 f i DrawableObjectHandler.obj
 0001:0007da70       ?erase@?$_Tree@KU?$pair@$$CBKV?$list@PAVDrawableObject@@V?$allocator@PAVDrawableObject@@@std@@@std@@@std@@U_Kfn@?$map@KV?$list@PAVDrawableObject@@V?$allocator@PAVDrawableObject@@@std@@@std@@U?$less@K@2@V?$allocator@V?$list@PAVDrawableObject@@V?$allocator@PAVDrawableObject@@@std@@@std@@@2@@2@U?$less@K@2@V?$allocator@V?$list@PAVDrawableObject@@V?$allocator@PAVDrawableObject@@@std@@@std@@@2@@std@@QAE?AViterator@12@V312@@Z 0047ea70 f i DrawableObjectHandler.obj
 0001:0007de40       ?_Erase@?$_Tree@KU?$pair@$$CBKV?$list@PAVDrawableObject@@V?$allocator@PAVDrawableObject@@@std@@@std@@@std@@U_Kfn@?$map@KV?$list@PAVDrawableObject@@V?$allocator@PAVDrawableObject@@@std@@@std@@U?$less@K@2@V?$allocator@V?$list@PAVDrawableObject@@V?$allocator@PAVDrawableObject@@@std@@@std@@@2@@2@U?$less@K@2@V?$allocator@V?$list@PAVDrawableObject@@V?$allocator@PAVDrawableObject@@@std@@@std@@@2@@std@@IAEXPAU_Node@12@@Z 0047ee40 f i DrawableObjectHandler.obj
 0001:0007de90       ?lower_bound@?$_Tree@PAVDrawableObject@@U?$pair@QAVDrawableObject@@Viterator@?$list@PAVDrawableObject@@V?$allocator@PAVDrawableObject@@@std@@@std@@@std@@U_Kfn@?$map@PAVDrawableObject@@Viterator@?$list@PAVDrawableObject@@V?$allocator@PAVDrawableObject@@@std@@@std@@U?$less@PAVDrawableObject@@@4@V?$allocator@Viterator@?$list@PAVDrawableObject@@V?$allocator@PAVDrawableObject@@@std@@@std@@@4@@3@U?$less@PAVDrawableObject@@@3@V?$allocator@Viterator@?$list@PAVDrawableObject@@V?$allocator@PAVDrawableObject@@@std@@@std@@@3@@std@@QAE?AViterator@12@ABQAVDrawableObject@@@Z 0047ee90 f i DrawableObjectHandler.obj
 0001:0007ded0       ?_Erase@?$_Tree@PAVDrawableObject@@U?$pair@QAVDrawableObject@@Viterator@?$list@PAVDrawableObject@@V?$allocator@PAVDrawableObject@@@std@@@std@@@std@@U_Kfn@?$map@PAVDrawableObject@@Viterator@?$list@PAVDrawableObject@@V?$allocator@PAVDrawableObject@@@std@@@std@@U?$less@PAVDrawableObject@@@4@V?$allocator@Viterator@?$list@PAVDrawableObject@@V?$allocator@PAVDrawableObject@@@std@@@std@@@4@@3@U?$less@PAVDrawableObject@@@3@V?$allocator@Viterator@?$list@PAVDrawableObject@@V?$allocator@PAVDrawableObject@@@std@@@std@@@3@@std@@IAEXPAU_Node@12@@Z 0047eed0 f i DrawableObjectHandler.obj
 0001:0007df10       ?erase@?$_Tree@U?$pair@HH@std@@U?$pair@$$CBU?$pair@HH@std@@_N@2@U_Kfn@?$map@U?$pair@HH@std@@_NU?$less@U?$pair@HH@std@@@2@V?$allocator@_N@2@@2@U?$less@U?$pair@HH@std@@@2@V?$allocator@_N@2@@std@@QAE?AViterator@12@V312@@Z 0047ef10 f i DrawableObjectHandler.obj
 0001:0007e2d0       ?_Erase@?$_Tree@U?$pair@HH@std@@U?$pair@$$CBU?$pair@HH@std@@_N@2@U_Kfn@?$map@U?$pair@HH@std@@_NU?$less@U?$pair@HH@std@@@2@V?$allocator@_N@2@@2@U?$less@U?$pair@HH@std@@@2@V?$allocator@_N@2@@std@@IAEXPAU_Node@12@@Z 0047f2d0 f i DrawableObjectHandler.obj
 0001:0007e310       ?_Inc@iterator@?$_Tree@U?$pair@HH@std@@U?$pair@$$CBU?$pair@HH@std@@_N@2@U_Kfn@?$map@U?$pair@HH@std@@_NU?$less@U?$pair@HH@std@@@2@V?$allocator@_N@2@@2@U?$less@U?$pair@HH@std@@@2@V?$allocator@_N@2@@std@@QAEXXZ 0047f310 f i DrawableObjectHandler.obj
 0001:0007e360       ?_Ucopy@?$vector@UtagRECT@@V?$allocator@UtagRECT@@@std@@@std@@IAEPAUtagRECT@@PBU3@0PAU3@@Z 0047f360 f i DrawableObjectHandler.obj
 0001:0007e360       ?_Ucopy@?$vector@UInputEvent@@V?$allocator@UInputEvent@@@std@@@std@@IAEPAUInputEvent@@PBU3@0PAU3@@Z 0047f360 f i DrawableObjectHandler.obj
 0001:0007e3b0       ?insert@?$list@PAVDoor@@V?$allocator@PAVDoor@@@std@@@std@@QAEXViterator@12@Vconst_iterator@12@1@Z 0047f3b0 f i DrawableObjectHandler.obj
 0001:0007e3b0       ?insert@?$list@HV?$allocator@H@std@@@std@@QAEXViterator@12@Vconst_iterator@12@1@Z 0047f3b0 f i DrawableObjectHandler.obj
 0001:0007e3b0       ?insert@?$list@PAVDrawableObject@@V?$allocator@PAVDrawableObject@@@std@@@std@@QAEXViterator@12@Vconst_iterator@12@1@Z 0047f3b0 f i DrawableObjectHandler.obj
 0001:0007e420       ?_Insert@?$_Tree@KU?$pair@$$CBKV?$list@PAVDrawableObject@@V?$allocator@PAVDrawableObject@@@std@@@std@@@std@@U_Kfn@?$map@KV?$list@PAVDrawableObject@@V?$allocator@PAVDrawableObject@@@std@@@std@@U?$less@K@2@V?$allocator@V?$list@PAVDrawableObject@@V?$allocator@PAVDrawableObject@@@std@@@std@@@2@@2@U?$less@K@2@V?$allocator@V?$list@PAVDrawableObject@@V?$allocator@PAVDrawableObject@@@std@@@std@@@2@@std@@IAE?AViterator@12@PAU_Node@12@0ABU?$pair@$$CBKV?$list@PAVDrawableObject@@V?$allocator@PAVDrawableObject@@@std@@@std@@@2@@Z 0047f420 f i DrawableObjectHandler.obj
 0001:0007e660       ?_Buynode@?$_Tree@KU?$pair@$$CBKV?$list@PAVDrawableObject@@V?$allocator@PAVDrawableObject@@@std@@@std@@@std@@U_Kfn@?$map@KV?$list@PAVDrawableObject@@V?$allocator@PAVDrawableObject@@@std@@@std@@U?$less@K@2@V?$allocator@V?$list@PAVDrawableObject@@V?$allocator@PAVDrawableObject@@@std@@@std@@@2@@2@U?$less@K@2@V?$allocator@V?$list@PAVDrawableObject@@V?$allocator@PAVDrawableObject@@@std@@@std@@@2@@std@@IAEPAU_Node@12@PAU312@D@Z 0047f660 f i DrawableObjectHandler.obj
 0001:0007e660       ?_Buynode@?$_Tree@V?$basic_string@DU?$char_traits@D@std@@V?$allocator@D@2@@std@@V12@U_Kfn@?$set@V?$basic_string@DU?$char_traits@D@std@@V?$allocator@D@2@@std@@U?$less@V?$basic_string@DU?$char_traits@D@std@@V?$allocator@D@2@@std@@@2@V?$allocator@V?$basic_string@DU?$char_traits@D@std@@V?$allocator@D@2@@std@@@2@@2@U?$less@V?$basic_string@DU?$char_traits@D@std@@V?$allocator@D@2@@std@@@2@V?$allocator@V?$basic_string@DU?$char_traits@D@std@@V?$allocator@D@2@@std@@@2@@std@@IAEPAU_Node@12@PAU312@D@Z 0047f660 f i DrawableObjectHandler.obj
 0001:0007e690       ?_Insert@?$_Tree@U?$pair@HH@std@@U?$pair@$$CBU?$pair@HH@std@@_N@2@U_Kfn@?$map@U?$pair@HH@std@@_NU?$less@U?$pair@HH@std@@@2@V?$allocator@_N@2@@2@U?$less@U?$pair@HH@std@@@2@V?$allocator@_N@2@@std@@IAE?AViterator@12@PAU_Node@12@0ABU?$pair@$$CBU?$pair@HH@std@@_N@2@@Z 0047f690 f i DrawableObjectHandler.obj
 0001:0007e8e0       ?_Dec@iterator@?$_Tree@U?$pair@HH@std@@U?$pair@$$CBU?$pair@HH@std@@_N@2@U_Kfn@?$map@U?$pair@HH@std@@_NU?$less@U?$pair@HH@std@@@2@V?$allocator@_N@2@@2@U?$less@U?$pair@HH@std@@@2@V?$allocator@_N@2@@std@@QAEXXZ 0047f8e0 f i DrawableObjectHandler.obj
 0001:0007e940       ?copy@std@@YAPAUtagRECT@@PAU2@00@Z 0047f940 f i DrawableObjectHandler.obj
 0001:0007e990       ??Mstd@@YA_NABU?$pair@HH@0@0@Z 0047f990 f i DrawableObjectHandler.obj
 0001:0007e9c0       ?_Construct@std@@YAXPAU?$pair@$$CBKV?$list@PAVDrawableObject@@V?$allocator@PAVDrawableObject@@@std@@@std@@@1@ABU21@@Z 0047f9c0 f i DrawableObjectHandler.obj
 0001:0007ea90       ?_Construct@std@@YAXPAU?$pair@$$CBU?$pair@HH@std@@_N@1@ABU21@@Z 0047fa90 f i DrawableObjectHandler.obj
 0001:0007eab0       ??_G?$pair@$$CBKV?$list@PAVDrawableObject@@V?$allocator@PAVDrawableObject@@@std@@@std@@@std@@QAEPAXI@Z 0047fab0 f i DrawableObjectHandler.obj
 0001:0007eb90       ?CunningBlit@EasterEgg@@SAXPAG0HHHHAA_N_N@Z 0047fb90 f   EasterEgg.obj
 0001:0007ee50       ??0AgentHandle@@QAE@XZ     0047fe50 f   ErrorMessageHandler.obj
 0001:0007ee50       ??0MusicAction@@QAE@XZ     0047fe50 f   ErrorMessageHandler.obj
 0001:0007ee50       ??0ErrorMessageHandler@@QAE@XZ 0047fe50 f   ErrorMessageHandler.obj
 0001:0007ee60       ?ShowErrorMessage@ErrorMessageHandler@@AAEXABV?$basic_string@DU?$char_traits@D@std@@V?$allocator@D@2@@std@@0@Z 0047fe60 f   ErrorMessageHandler.obj
 0001:0007f0d0       ?theHandler@ErrorMessageHandler@@CAAAV1@XZ 004800d0 f   ErrorMessageHandler.obj
 0001:0007f120       ?SetWindow@ErrorMessageHandler@@SAXPAUHWND__@@@Z 00480120 f   ErrorMessageHandler.obj
 0001:0007f130       ?Show@ErrorMessageHandler@@SAXV?$basic_string@DU?$char_traits@D@std@@V?$allocator@D@2@@std@@H0ZZ 00480130 f   ErrorMessageHandler.obj
 0001:0007f390       ?Format@ErrorMessageHandler@@SA?AV?$basic_string@DU?$char_traits@D@std@@V?$allocator@D@2@@std@@V23@H0ZZ 00480390 f   ErrorMessageHandler.obj
 0001:0007f670       ?Throw@ErrorMessageHandler@@SAXV?$basic_string@DU?$char_traits@D@std@@V?$allocator@D@2@@std@@H0ZZ 00480670 f   ErrorMessageHandler.obj
 0001:0007f8b0       ?NonLocalisable@ErrorMessageHandler@@SAXV?$basic_string@DU?$char_traits@D@std@@V?$allocator@D@2@@std@@0ZZ 004808b0 f   ErrorMessageHandler.obj
 0001:0007fa10       ?Show@ErrorMessageHandler@@SAXAAVexception@@V?$basic_string@DU?$char_traits@D@std@@V?$allocator@D@2@@std@@@Z 00480a10 f   ErrorMessageHandler.obj
 0001:0007fb10       ?ErrorMessageFooter@ErrorMessageHandler@@SA?AV?$basic_string@DU?$char_traits@D@std@@V?$allocator@D@2@@std@@XZ 00480b10 f   ErrorMessageHandler.obj
 0001:0007ff70       ?GetEngineVersion@@YA?AV?$basic_string@DU?$char_traits@D@std@@V?$allocator@D@2@@std@@XZ 00480f70 f i ErrorMessageHandler.obj
 0001:00080730       ??0Gallery@@QAE@XZ         00481730 f   Gallery.obj
 0001:00080820       ??_EGallery@@UAEPAXI@Z     00481820 f i Gallery.obj
 0001:00080820       ??_GGallery@@UAEPAXI@Z     00481820 f i Gallery.obj
 0001:00080850       ??0Gallery@@QAE@AAVClonedGallery@@@Z 00481850 f   Gallery.obj
 0001:00080a10       ??1?$map@K_NU?$less@K@std@@V?$allocator@_N@2@@std@@QAE@XZ 00481a10 f i Gallery.obj
 0001:00080ad0       ??_EBitmap@@UAEPAXI@Z      00481ad0 f i Gallery.obj
 0001:00080b30       ??0Gallery@@QAE@ABV?$basic_string@DU?$char_traits@D@std@@V?$allocator@D@2@@std@@KK_NKK1@Z 00481b30 f   Gallery.obj
 0001:00080f50       ??0GalleryException@Gallery@@QAE@V?$basic_string@DU?$char_traits@D@std@@V?$allocator@D@2@@std@@K@Z 00481f50 f i Gallery.obj
 0001:00081050       ??0GalleryException@Gallery@@QAE@ABV01@@Z 00482050 f i Gallery.obj
 0001:000811d0       ??0Gallery@@QAE@ABV?$basic_string@DU?$char_traits@D@std@@V?$allocator@D@2@@std@@PAXKKK@Z 004821d0 f   Gallery.obj
 0001:00081390       ?SetUpGalleryShellForCloning@Gallery@@QAEXV?$basic_string@DU?$char_traits@D@std@@V?$allocator@D@2@@std@@KKK@Z 00482390 f   Gallery.obj
 0001:00081590       ??1Gallery@@UAE@XZ         00482590 f   Gallery.obj
 0001:000816d0       ?InitialiseBitmaps@Gallery@@AAE_N_N@Z 004826d0 f   Gallery.obj
 0001:00081960       ?SetName@Bitmap@@QAEXV?$basic_string@DU?$char_traits@D@std@@V?$allocator@D@2@@std@@@Z 00482960 f i Gallery.obj
 0001:00081ae0       ?InitialiseClonedBitmaps@Gallery@@AAE_NXZ 00482ae0 f   Gallery.obj
 0001:00082050       ?InitialiseCompressedBitmaps@Gallery@@AAE_NXZ 00483050 f   Gallery.obj
 0001:00082140       ??_ECompressedBitmap@@UAEPAXI@Z 00483140 f i Gallery.obj
 0001:000821a0       ?InitialiseTiledBitmaps@Gallery@@AAE_N_N@Z 004831a0 f   Gallery.obj
 0001:00082320       ?LoadFromC16@Gallery@@QAE_NABV?$basic_string@DU?$char_traits@D@std@@V?$allocator@D@2@@std@@@Z 00483320 f   Gallery.obj
 0001:00082570       ?DecompressC16@Gallery@@QAE_NAAVFile@@@Z 00483570 f   Gallery.obj
 0001:00082910       ?Recolour@Gallery@@QAEXQBG@Z 00483910 f   Gallery.obj
 0001:00082990       ?ClonedAbsoluteBase@Gallery@@QBEJXZ 00483990 f   Gallery.obj
 0001:000829b0       ?GetBitmap@Gallery@@QAEPAVBitmap@@K@Z 004839b0 f   Gallery.obj
 0001:00082b20       ?GetBitmapWidth@Gallery@@QAEJK@Z 00483b20 f   Gallery.obj
 0001:00082b90       ?GetBitmapHeight@Gallery@@QAEJK@Z 00483b90 f   Gallery.obj
 0001:00082c00       ?IsPixelTransparent@Gallery@@QAE_NKKJ@Z 00483c00 f   Gallery.obj
 0001:00082c40       ?IsValid@Gallery@@QAE_NXZ  00483c40 f   Gallery.obj
 0001:00082c60       ?ConvertTo@Gallery@@QAE_NK@Z 00483c60 f   Gallery.obj
 0001:00082d80       ?SaveUncompressedFile@Gallery@@QAEKAAVMemoryMappedFile@@@Z 00483d80 f   Gallery.obj
 0001:00082e50       ?SaveCompressedFile@Gallery@@QAEKAAVMemoryMappedFile@@@Z 00483e50 f   Gallery.obj
 0001:00082fb0       ?SaveTiledFile@Gallery@@QAEKAAVMemoryMappedFile@@@Z 00483fb0 f   Gallery.obj
 0001:000830b0       ?GetTile@Gallery@@QAEPAVBitmap@@K@Z 004840b0 f   Gallery.obj
 0001:00083140       ?Trash@Gallery@@QAEXXZ     00484140 f   Gallery.obj
 0001:00083240       ?Read@Gallery@@UAE_NAAVCreaturesArchive@@@Z 00484240 f   Gallery.obj
 0001:00083550       ??Eiterator@?$_Tree@KU?$pair@$$CBK_N@std@@U_Kfn@?$map@K_NU?$less@K@std@@V?$allocator@_N@2@@2@U?$less@K@2@V?$allocator@_N@2@@std@@QAE?AV012@H@Z 00484550 f i Gallery.obj
 0001:000835b0       ?_Lrotate@?$_Tree@V?$basic_string@DU?$char_traits@D@std@@V?$allocator@D@2@@std@@U?$pair@$$CBV?$basic_string@DU?$char_traits@D@std@@V?$allocator@D@2@@std@@V12@@2@U_Kfn@?$map@V?$basic_string@DU?$char_traits@D@std@@V?$allocator@D@2@@std@@V12@U?$less@V?$basic_string@DU?$char_traits@D@std@@V?$allocator@D@2@@std@@@2@V?$allocator@V?$basic_string@DU?$char_traits@D@std@@V?$allocator@D@2@@std@@@2@@2@U?$less@V?$basic_string@DU?$char_traits@D@std@@V?$allocator@D@2@@std@@@2@V?$allocator@V?$basic_string@DU?$char_traits@D@std@@V?$allocator@D@2@@std@@@2@@std@@IAEXPAU_Node@12@@Z 004845b0 f i Gallery.obj
 0001:000835b0       ?_Lrotate@?$_Tree@KU?$pair@$$CBK_N@std@@U_Kfn@?$map@K_NU?$less@K@std@@V?$allocator@_N@2@@2@U?$less@K@2@V?$allocator@_N@2@@std@@IAEXPAU_Node@12@@Z 004845b0 f i Gallery.obj
 0001:000835b0       ?_Lrotate@?$_Tree@V?$basic_string@DU?$char_traits@D@std@@V?$allocator@D@2@@std@@U?$pair@$$CBV?$basic_string@DU?$char_traits@D@std@@V?$allocator@D@2@@std@@V12@@2@U_Kfn@?$multimap@V?$basic_string@DU?$char_traits@D@std@@V?$allocator@D@2@@std@@V12@U?$less@V?$basic_string@DU?$char_traits@D@std@@V?$allocator@D@2@@std@@@2@V?$allocator@V?$basic_string@DU?$char_traits@D@std@@V?$allocator@D@2@@std@@@2@@2@U?$less@V?$basic_string@DU?$char_traits@D@std@@V?$allocator@D@2@@std@@@2@V?$allocator@V?$basic_string@DU?$char_traits@D@std@@V?$allocator@D@2@@std@@@2@@std@@IAEXPAU_Node@12@@Z 004845b0 f i Gallery.obj
 0001:000835b0       ?_Lrotate@?$_Tree@HHU_Kfn@?$set@HU?$less@H@std@@V?$allocator@H@2@@std@@U?$less@H@3@V?$allocator@H@3@@std@@IAEXPAU_Node@12@@Z 004845b0 f i Gallery.obj
 0001:000835b0       ?_Lrotate@?$_Tree@HU?$pair@$$CBHH@std@@U_Kfn@?$map@HHU?$less@H@std@@V?$allocator@H@2@@2@U?$less@H@2@V?$allocator@H@2@@std@@IAEXPAU_Node@12@@Z 004845b0 f i Gallery.obj
 0001:000835b0       ?_Lrotate@?$_Tree@VClassifier@@U?$pair@$$CBVClassifier@@VAgentHandle@@@std@@U_Kfn@?$multimap@VClassifier@@VAgentHandle@@U?$less@VClassifier@@@std@@V?$allocator@VAgentHandle@@@4@@3@U?$less@VClassifier@@@3@V?$allocator@VAgentHandle@@@3@@std@@IAEXPAU_Node@12@@Z 004845b0 f i Gallery.obj
 0001:000835b0       ?_Lrotate@?$_Tree@VMessage@@V1@U_Kfn@?$multiset@VMessage@@UCompareMessageTimes@@V?$allocator@VMessage@@@std@@@std@@UCompareMessageTimes@@V?$allocator@VMessage@@@4@@std@@IAEXPAU_Node@12@@Z 004845b0 f i Gallery.obj
 0001:000835b0       ?_Lrotate@?$_Tree@V?$basic_string@DU?$char_traits@D@std@@V?$allocator@D@2@@std@@U?$pair@$$CBV?$basic_string@DU?$char_traits@D@std@@V?$allocator@D@2@@std@@J@2@U_Kfn@?$map@V?$basic_string@DU?$char_traits@D@std@@V?$allocator@D@2@@std@@JU?$less@V?$basic_string@DU?$char_traits@D@std@@V?$allocator@D@2@@std@@@2@V?$allocator@J@2@@2@U?$less@V?$basic_string@DU?$char_traits@D@std@@V?$allocator@D@2@@std@@@2@V?$allocator@J@2@@std@@IAEXPAU_Node@12@@Z 004845b0 f i Gallery.obj
 0001:000835b0       ?_Lrotate@?$_Tree@KU?$pair@$$CBKViterator@?$list@VAgentHandle@@V?$allocator@VAgentHandle@@@std@@@std@@@std@@U_Kfn@?$map@KViterator@?$list@VAgentHandle@@V?$allocator@VAgentHandle@@@std@@@std@@U?$less@K@3@V?$allocator@Viterator@?$list@VAgentHandle@@V?$allocator@VAgentHandle@@@std@@@std@@@3@@2@U?$less@K@2@V?$allocator@Viterator@?$list@VAgentHandle@@V?$allocator@VAgentHandle@@@std@@@std@@@2@@std@@IAEXPAU_Node@12@@Z 004845b0 f i Gallery.obj
 0001:000835b0       ?_Lrotate@?$_Tree@V?$basic_string@DU?$char_traits@D@std@@V?$allocator@D@2@@std@@U?$pair@$$CBV?$basic_string@DU?$char_traits@D@std@@V?$allocator@D@2@@std@@VCreatureHistory@@@2@U_Kfn@?$map@V?$basic_string@DU?$char_traits@D@std@@V?$allocator@D@2@@std@@VCreatureHistory@@U?$less@V?$basic_string@DU?$char_traits@D@std@@V?$allocator@D@2@@std@@@2@V?$allocator@VCreatureHistory@@@2@@2@U?$less@V?$basic_string@DU?$char_traits@D@std@@V?$allocator@D@2@@std@@@2@V?$allocator@VCreatureHistory@@@2@@std@@IAEXPAU_Node@12@@Z 004845b0 f i Gallery.obj
 0001:000835b0       ?_Lrotate@?$_Tree@V?$basic_string@DU?$char_traits@D@std@@V?$allocator@D@2@@std@@U?$pair@$$CBV?$basic_string@DU?$char_traits@D@std@@V?$allocator@D@2@@std@@UTagStruct@Catalogue@@@2@U_Kfn@?$map@V?$basic_string@DU?$char_traits@D@std@@V?$allocator@D@2@@std@@UTagStruct@Catalogue@@U?$less@V?$basic_string@DU?$char_traits@D@std@@V?$allocator@D@2@@std@@@2@V?$allocator@UTagStruct@Catalogue@@@2@@2@U?$less@V?$basic_string@DU?$char_traits@D@std@@V?$allocator@D@2@@std@@@2@V?$allocator@UTagStruct@Catalogue@@@2@@std@@IAEXPAU_Node@12@@Z 004845b0 f i Gallery.obj
 0001:000835b0       ?_Lrotate@?$_Tree@KU?$pair@$$CBKViterator@?$_Tree@VClassifier@@U?$pair@$$CBVClassifier@@VAgentHandle@@@std@@U_Kfn@?$multimap@VClassifier@@VAgentHandle@@U?$less@VClassifier@@@std@@V?$allocator@VAgentHandle@@@4@@3@U?$less@VClassifier@@@3@V?$allocator@VAgentHandle@@@3@@std@@@std@@U_Kfn@?$map@KViterator@?$_Tree@VClassifier@@U?$pair@$$CBVClassifier@@VAgentHandle@@@std@@U_Kfn@?$multimap@VClassifier@@VAgentHandle@@U?$less@VClassifier@@@std@@V?$allocator@VAgentHandle@@@4@@3@U?$less@VClassifier@@@3@V?$allocator@VAgentHandle@@@3@@std@@U?$less@K@3@V?$allocator@Viterator@?$_Tree@VClassifier@@U?$pair@$$CBVClassifier@@VAgentHandle@@@std@@U_Kfn@?$multimap@VClassifier@@VAgentHandle@@U?$less@VClassifier@@@std@@V?$allocator@VAgentHandle@@@4@@3@U?$less@VClassifier@@@3@V?$allocator@VAgentHandle@@@3@@std@@@3@@2@U?$less@K@2@V?$allocator@Viterator@?$_Tree@VClassifier@@U?$pair@$$CBVClassifier@@VAgentHandle@@@std@@U_Kfn@?$multimap@VClassifier@@VAgentHandle@@U?$less@VClassifier@@@std@@V?$allocator@VAgentHandle@@@4@@3@U?$less@VClassifier@@@3@V?$allocator@VAgentHandle@@@3@@std@@@2@@std@@IAEXPAU_Node@12@@Z 004845b0 f i Gallery.obj
 0001:000835b0       ?_Lrotate@?$_Tree@PBMU?$pair@QBMJ@std@@U_Kfn@?$map@PBMJU?$less@PBM@std@@V?$allocator@J@2@@2@U?$less@PBM@2@V?$allocator@J@2@@std@@IAEXPAU_Node@12@@Z 004845b0 f i Gallery.obj
 0001:000835b0       ?_Lrotate@?$_Tree@V?$basic_string@DU?$char_traits@D@std@@V?$allocator@D@2@@std@@U?$pair@$$CBV?$basic_string@DU?$char_traits@D@std@@V?$allocator@D@2@@std@@H@2@U_Kfn@?$map@V?$basic_string@DU?$char_traits@D@std@@V?$allocator@D@2@@std@@HU?$less@V?$basic_string@DU?$char_traits@D@std@@V?$allocator@D@2@@std@@@2@V?$allocator@H@2@@2@U?$less@V?$basic_string@DU?$char_traits@D@std@@V?$allocator@D@2@@std@@@2@V?$allocator@H@2@@std@@IAEXPAU_Node@12@@Z 004845b0 f i Gallery.obj
 0001:000835b0       ?_Lrotate@?$_Tree@V?$basic_string@DU?$char_traits@D@std@@V?$allocator@D@2@@std@@V12@U_Kfn@?$set@V?$basic_string@DU?$char_traits@D@std@@V?$allocator@D@2@@std@@U?$less@V?$basic_string@DU?$char_traits@D@std@@V?$allocator@D@2@@std@@@2@V?$allocator@V?$basic_string@DU?$char_traits@D@std@@V?$allocator@D@2@@std@@@2@@2@U?$less@V?$basic_string@DU?$char_traits@D@std@@V?$allocator@D@2@@std@@@2@V?$allocator@V?$basic_string@DU?$char_traits@D@std@@V?$allocator@D@2@@std@@@2@@std@@IAEXPAU_Node@12@@Z 004845b0 f i Gallery.obj
 0001:000835b0       ?_Lrotate@?$_Tree@KU?$pair@$$CBKV?$list@PAVDrawableObject@@V?$allocator@PAVDrawableObject@@@std@@@std@@@std@@U_Kfn@?$map@KV?$list@PAVDrawableObject@@V?$allocator@PAVDrawableObject@@@std@@@std@@U?$less@K@2@V?$allocator@V?$list@PAVDrawableObject@@V?$allocator@PAVDrawableObject@@@std@@@std@@@2@@2@U?$less@K@2@V?$allocator@V?$list@PAVDrawableObject@@V?$allocator@PAVDrawableObject@@@std@@@std@@@2@@std@@IAEXPAU_Node@12@@Z 004845b0 f i Gallery.obj
 0001:000835b0       ?_Lrotate@?$_Tree@VImmutableVariables@QuickFsp@@U?$pair@$$CBVImmutableVariables@QuickFsp@@VFspCache@2@@std@@U_Kfn@?$map@VImmutableVariables@QuickFsp@@VFspCache@2@U?$less@VImmutableVariables@QuickFsp@@@std@@V?$allocator@VFspCache@QuickFsp@@@5@@4@U?$less@VImmutableVariables@QuickFsp@@@4@V?$allocator@VFspCache@QuickFsp@@@4@@std@@IAEXPAU_Node@12@@Z 004845b0 f i Gallery.obj
 0001:000835b0       ?_Lrotate@?$_Tree@HU?$pair@$$CBHV?$basic_string@DU?$char_traits@D@std@@V?$allocator@D@2@@std@@@std@@U_Kfn@?$map@HV?$basic_string@DU?$char_traits@D@std@@V?$allocator@D@2@@std@@U?$less@H@2@V?$allocator@V?$basic_string@DU?$char_traits@D@std@@V?$allocator@D@2@@std@@@2@@2@U?$less@H@2@V?$allocator@V?$basic_string@DU?$char_traits@D@std@@V?$allocator@D@2@@std@@@2@@std@@IAEXPAU_Node@12@@Z 004845b0 f i Gallery.obj
 0001:000835b0       ?_Lrotate@?$_Tree@VCAOSVar@@U?$pair@$$CBVCAOSVar@@V1@@std@@U_Kfn@?$map@VCAOSVar@@V1@U?$less@VCAOSVar@@@std@@V?$allocator@VCAOSVar@@@3@@3@U?$less@VCAOSVar@@@3@V?$allocator@VCAOSVar@@@3@@std@@IAEXPAU_Node@12@@Z 004845b0 f i Gallery.obj
 0001:000835b0       ?_Lrotate@?$_Tree@V?$basic_string@DU?$char_traits@D@std@@V?$allocator@D@2@@std@@U?$pair@$$CBV?$basic_string@DU?$char_traits@D@std@@V?$allocator@D@2@@std@@VCAOSVar@@@2@U_Kfn@?$map@V?$basic_string@DU?$char_traits@D@std@@V?$allocator@D@2@@std@@VCAOSVar@@U?$less@V?$basic_string@DU?$char_traits@D@std@@V?$allocator@D@2@@std@@@2@V?$allocator@VCAOSVar@@@2@@2@U?$less@V?$basic_string@DU?$char_traits@D@std@@V?$allocator@D@2@@std@@@2@V?$allocator@VCAOSVar@@@2@@std@@IAEXPAU_Node@12@@Z 004845b0 f i Gallery.obj
 0001:000835b0       ?_Lrotate@?$_Tree@PAVGallery@@U?$pair@QAVGallery@@V?$basic_string@DU?$char_traits@D@std@@V?$allocator@D@2@@std@@@std@@U_Kfn@?$map@PAVGallery@@V?$basic_string@DU?$char_traits@D@std@@V?$allocator@D@2@@std@@U?$less@PAVGallery@@@3@V?$allocator@V?$basic_string@DU?$char_traits@D@std@@V?$allocator@D@2@@std@@@3@@3@U?$less@PAVGallery@@@3@V?$allocator@V?$basic_string@DU?$char_traits@D@std@@V?$allocator@D@2@@std@@@3@@std@@IAEXPAU_Node@12@@Z 004845b0 f i Gallery.obj
 0001:000835b0       ?_Lrotate@?$_Tree@V?$basic_string@DU?$char_traits@D@std@@V?$allocator@D@2@@std@@U?$pair@$$CBV?$basic_string@DU?$char_traits@D@std@@V?$allocator@D@2@@std@@U?$pair@V?$basic_string@DU?$char_traits@D@std@@V?$allocator@D@2@@std@@H@2@@2@U_Kfn@?$map@V?$basic_string@DU?$char_traits@D@std@@V?$allocator@D@2@@std@@U?$pair@V?$basic_string@DU?$char_traits@D@std@@V?$allocator@D@2@@std@@H@2@U?$less@V?$basic_string@DU?$char_traits@D@std@@V?$allocator@D@2@@std@@@2@V?$allocator@U?$pair@V?$basic_string@DU?$char_traits@D@std@@V?$allocator@D@2@@std@@H@std@@@2@@2@U?$less@V?$basic_string@DU?$char_traits@D@std@@V?$allocator@D@2@@std@@@2@V?$allocator@U?$pair@V?$basic_string@DU?$char_traits@D@std@@V?$allocator@D@2@@std@@H@std@@@2@@std@@IAEXPAU_Node@12@@Z 004845b0 f i Gallery.obj
 0001:00083610       ?_Dec@iterator@?$_Tree@KU?$pair@$$CBKViterator@?$_Tree@VClassifier@@U?$pair@$$CBVClassifier@@VAgentHandle@@@std@@U_Kfn@?$multimap@VClassifier@@VAgentHandle@@U?$less@VClassifier@@@std@@V?$allocator@VAgentHandle@@@4@@3@U?$less@VClassifier@@@3@V?$allocator@VAgentHandle@@@3@@std@@@std@@U_Kfn@?$map@KViterator@?$_Tree@VClassifier@@U?$pair@$$CBVClassifier@@VAgentHandle@@@std@@U_Kfn@?$multimap@VClassifier@@VAgentHandle@@U?$less@VClassifier@@@std@@V?$allocator@VAgentHandle@@@4@@3@U?$less@VClassifier@@@3@V?$allocator@VAgentHandle@@@3@@std@@U?$less@K@3@V?$allocator@Viterator@?$_Tree@VClassifier@@U?$pair@$$CBVClassifier@@VAgentHandle@@@std@@U_Kfn@?$multimap@VClassifier@@VAgentHandle@@U?$less@VClassifier@@@std@@V?$allocator@VAgentHandle@@@4@@3@U?$less@VClassifier@@@3@V?$allocator@VAgentHandle@@@3@@std@@@3@@2@U?$less@K@2@V?$allocator@Viterator@?$_Tree@VClassifier@@U?$pair@$$CBVClassifier@@VAgentHandle@@@std@@U_Kfn@?$multimap@VClassifier@@VAgentHandle@@U?$less@VClassifier@@@std@@V?$allocator@VAgentHandle@@@4@@3@U?$less@VClassifier@@@3@V?$allocator@VAgentHandle@@@3@@std@@@2@@std@@QAEXXZ 00484610 f i Gallery.obj
 0001:00083610       ?_Dec@iterator@?$_Tree@HU?$pair@$$CBHH@std@@U_Kfn@?$map@HHU?$less@H@std@@V?$allocator@H@2@@2@U?$less@H@2@V?$allocator@H@2@@std@@QAEXXZ 00484610 f i Gallery.obj
 0001:00083610       ?_Dec@iterator@?$_Tree@PBMU?$pair@QBMJ@std@@U_Kfn@?$map@PBMJU?$less@PBM@std@@V?$allocator@J@2@@2@U?$less@PBM@2@V?$allocator@J@2@@std@@QAEXXZ 00484610 f i Gallery.obj
 0001:00083610       ?_Dec@iterator@?$_Tree@PBVPersistentObject@@U?$pair@QBVPersistentObject@@J@std@@U_Kfn@?$map@PBVPersistentObject@@JU?$less@PBVPersistentObject@@@std@@V?$allocator@J@3@@3@U?$less@PBVPersistentObject@@@3@V?$allocator@J@3@@std@@QAEXXZ 00484610 f i Gallery.obj
 0001:00083610       ?_Dec@iterator@?$_Tree@KU?$pair@$$CBK_N@std@@U_Kfn@?$map@K_NU?$less@K@std@@V?$allocator@_N@2@@2@U?$less@K@2@V?$allocator@_N@2@@std@@QAEXXZ 00484610 f i Gallery.obj
 0001:00083610       ?_Dec@iterator@?$_Tree@KU?$pair@$$CBKViterator@?$list@VAgentHandle@@V?$allocator@VAgentHandle@@@std@@@std@@@std@@U_Kfn@?$map@KViterator@?$list@VAgentHandle@@V?$allocator@VAgentHandle@@@std@@@std@@U?$less@K@3@V?$allocator@Viterator@?$list@VAgentHandle@@V?$allocator@VAgentHandle@@@std@@@std@@@3@@2@U?$less@K@2@V?$allocator@Viterator@?$list@VAgentHandle@@V?$allocator@VAgentHandle@@@std@@@std@@@2@@std@@QAEXXZ 00484610 f i Gallery.obj
 0001:00083610       ?_Dec@iterator@?$_Tree@PAVDrawableObject@@U?$pair@QAVDrawableObject@@Viterator@?$list@PAVDrawableObject@@V?$allocator@PAVDrawableObject@@@std@@@std@@@std@@U_Kfn@?$map@PAVDrawableObject@@Viterator@?$list@PAVDrawableObject@@V?$allocator@PAVDrawableObject@@@std@@@std@@U?$less@PAVDrawableObject@@@4@V?$allocator@Viterator@?$list@PAVDrawableObject@@V?$allocator@PAVDrawableObject@@@std@@@std@@@4@@3@U?$less@PAVDrawableObject@@@3@V?$allocator@Viterator@?$list@PAVDrawableObject@@V?$allocator@PAVDrawableObject@@@std@@@std@@@3@@std@@QAEXXZ 00484610 f i Gallery.obj
 0001:00083720       ??0Line@@QAE@JJJJJJJJEEEEEKK@Z 00484720 f   Line.obj
 0001:000837b0       ??_GLine@@UAEPAXI@Z        004847b0 f i Line.obj
 0001:000837b0       ??_ELine@@UAEPAXI@Z        004847b0 f i Line.obj
 0001:000837e0       ??1DrawableObject@@UAE@XZ  004847e0 f i Line.obj
 0001:000837e0       ??1Line@@UAE@XZ            004847e0 f i Line.obj
 0001:000837f0       ?Draw@Line@@UAEXXZ         004847f0 f   Line.obj
 0001:00083830       ?SetCurrentBound@Line@@UAEXPAUtagRECT@@@Z 00484830 f   Line.obj
 0001:00083880       ?GetWorldPosition@Line@@UAE?AVPosition@@XZ 00484880 f   Line.obj
 0001:000838a0       ?SetScreenPosition@Line@@UAEXVPosition@@@Z 004848a0 f   Line.obj
 0001:000839b0       ??0MemoryMappedFile@@QAE@XZ 004849b0 f   MemoryMappedFile.obj
 0001:00083a00       ??_GMemoryMappedFile@@UAEPAXI@Z 00484a00 f i MemoryMappedFile.obj
 0001:00083a00       ??_EMemoryMappedFile@@UAEPAXI@Z 00484a00 f i MemoryMappedFile.obj
 0001:00083a30       ?Open@MemoryMappedFile@@QAEXABV?$basic_string@DU?$char_traits@D@std@@V?$allocator@D@2@@std@@KKK@Z 00484a30 f   MemoryMappedFile.obj
 0001:00083d80       ??0MemoryMappedFileException@MemoryMappedFile@@QAE@V?$basic_string@DU?$char_traits@D@std@@V?$allocator@D@2@@std@@G@Z 00484d80 f i MemoryMappedFile.obj
 0001:00083e80       ??0MemoryMappedFileException@MemoryMappedFile@@QAE@ABV01@@Z 00484e80 f i MemoryMappedFile.obj
 0001:00084000       ??0MemoryMappedFile@@QAE@PAXKKK@Z 00485000 f   MemoryMappedFile.obj
 0001:000841f0       ??1MemoryMappedFile@@UAE@XZ 004851f0 f   MemoryMappedFile.obj
 0001:00084280       ?Close@MemoryMappedFile@@QAEXXZ 00485280 f   MemoryMappedFile.obj
 0001:000842c0       ?Seek@MemoryMappedFile@@QAEJJW4FilePosition@File@@@Z 004852c0 f   MemoryMappedFile.obj
 0001:000848a0       ??1?$map@V?$basic_string@DU?$char_traits@D@std@@V?$allocator@D@2@@std@@PAVGallery@@U?$less@V?$basic_string@DU?$char_traits@D@std@@V?$allocator@D@2@@std@@@2@V?$allocator@PAVGallery@@@2@@std@@QAE@XZ 004858a0 f i SharedGallery.obj
 0001:000849d0       ??1?$map@PAVGallery@@V?$basic_string@DU?$char_traits@D@std@@V?$allocator@D@2@@std@@U?$less@PAVGallery@@@3@V?$allocator@V?$basic_string@DU?$char_traits@D@std@@V?$allocator@D@2@@std@@@3@@std@@QAE@XZ 004859d0 f i SharedGallery.obj
 0001:00084b00       ??0SharedGallery@@AAE@XZ   00485b00 f   SharedGallery.obj
 0001:00084b20       ?theSharedGallery@SharedGallery@@SAAAV1@XZ 00485b20 f   SharedGallery.obj
 0001:00084b30       ??1SharedGallery@@QAE@XZ   00485b30 f   SharedGallery.obj
 0001:00084b70       ?CreateGallery@SharedGallery@@QAEPAVGallery@@ABV?$basic_string@DU?$char_traits@D@std@@V?$allocator@D@2@@std@@@Z 00485b70 f   SharedGallery.obj
 0001:00084ff0       ?LookForCreatureGallery@SharedGallery@@QAEPAVGallery@@ABV?$basic_string@DU?$char_traits@D@std@@V?$allocator@D@2@@std@@@Z 00485ff0 f   SharedGallery.obj
 0001:00085060       ?CreateClonedGallery@SharedGallery@@QAEPAVGallery@@ABV?$basic_string@DU?$char_traits@D@std@@V?$allocator@D@2@@std@@KK@Z 00486060 f   SharedGallery.obj
 0001:000851d0       ?DoCreateGallery@SharedGallery@@QAEPAVGallery@@ABV?$basic_string@DU?$char_traits@D@std@@V?$allocator@D@2@@std@@KK_N@Z 004861d0 f   SharedGallery.obj
 0001:00085740       ?AddClonedGallery@SharedGallery@@QAEXPAVGallery@@@Z 00486740 f   SharedGallery.obj
 0001:00085810       ?RemoveGallery@SharedGallery@@SA_NPAVGallery@@@Z 00486810 f   SharedGallery.obj
 0001:00085900       ?RemoveClonedGallery@SharedGallery@@SA_NAAPAVGallery@@@Z 00486900 f   SharedGallery.obj
 0001:00085970       ?RemoveCreatureGallery@SharedGallery@@SA_NAAPAVGallery@@@Z 00486970 f   SharedGallery.obj
 0001:000859d0       ?DestroyGalleries@SharedGallery@@QAEXXZ 004869d0 f   SharedGallery.obj
 0001:00085b90       ?CreateGallery@SharedGallery@@QAEPAVGallery@@V?$basic_string@DU?$char_traits@D@std@@V?$allocator@D@2@@std@@KKEEQAJPAVCreatureGallery@@QAV2@J_N@Z 00486b90 f   SharedGallery.obj
 0001:00085e30       ?ConvertGallery@SharedGallery@@QAEXABV?$basic_string@DU?$char_traits@D@std@@V?$allocator@D@2@@std@@K@Z 00486e30 f   SharedGallery.obj
 0001:00086000       ?ReplaceCreatureGallery@SharedGallery@@QAEXPAVGallery@@@Z 00487000 f   SharedGallery.obj
 0001:000861e0       ?CleanCreatureGalleryFolder@SharedGallery@@QAEXXZ 004871e0 f   SharedGallery.obj
 0001:000863e0       ?QueryGalleryInUse@SharedGallery@@SA_NABV?$basic_string@DU?$char_traits@D@std@@V?$allocator@D@2@@std@@@Z 004873e0 f   SharedGallery.obj
 0001:00086540       ?QueryGalleryInUseHelper@SharedGallery@@KA_NV?$basic_string@DU?$char_traits@D@std@@V?$allocator@D@2@@std@@@Z 00487540 f   SharedGallery.obj
 0001:00086730       ?GetCreatureGalleriesFolder@SharedGallery@@QAE?AV?$basic_string@DU?$char_traits@D@std@@V?$allocator@D@2@@std@@XZ 00487730 f   SharedGallery.obj
 0001:00086880       ??A?$map@PAVGallery@@V?$basic_string@DU?$char_traits@D@std@@V?$allocator@D@2@@std@@U?$less@PAVGallery@@@3@V?$allocator@V?$basic_string@DU?$char_traits@D@std@@V?$allocator@D@2@@std@@@3@@std@@QAEAAV?$basic_string@DU?$char_traits@D@std@@V?$allocator@D@2@@1@ABQAVGallery@@@Z 00487880 f i SharedGallery.obj
 0001:00086960       ??1FilePath@@QAE@XZ        00487960 f i SharedGallery.obj
 0001:00086960       ??1ImmutableVariables@QuickFsp@@QAE@XZ 00487960 f i SharedGallery.obj
 0001:00086960       ??1?$pair@$$CBHV?$basic_string@DU?$char_traits@D@std@@V?$allocator@D@2@@std@@@std@@QAE@XZ 00487960 f i SharedGallery.obj
 0001:00086960       ??1?$pair@QAVGallery@@V?$basic_string@DU?$char_traits@D@std@@V?$allocator@D@2@@std@@@std@@QAE@XZ 00487960 f i SharedGallery.obj
 0001:00086960       ??1InstinctInput@Instinct@@QAE@XZ 00487960 f i SharedGallery.obj
 0001:00086960       ??1BuildFspParams@@QAE@XZ  00487960 f i SharedGallery.obj
 0001:00086960       ??1?$pair@HV?$basic_string@DU?$char_traits@D@std@@V?$allocator@D@2@@std@@@std@@QAE@XZ 00487960 f i SharedGallery.obj
 0001:000869a0       ?insert@?$map@V?$basic_string@DU?$char_traits@D@std@@V?$allocator@D@2@@std@@PAVGallery@@U?$less@V?$basic_string@DU?$char_traits@D@std@@V?$allocator@D@2@@std@@@2@V?$allocator@PAVGallery@@@2@@std@@QAE?AU?$pair@Viterator@?$_Tree@V?$basic_string@DU?$char_traits@D@std@@V?$allocator@D@2@@std@@U?$pair@$$CBV?$basic_string@DU?$char_traits@D@std@@V?$allocator@D@2@@std@@PAVGallery@@@2@U_Kfn@?$map@V?$basic_string@DU?$char_traits@D@std@@V?$allocator@D@2@@std@@PAVGallery@@U?$less@V?$basic_string@DU?$char_traits@D@std@@V?$allocator@D@2@@std@@@2@V?$allocator@PAVGallery@@@2@@2@U?$less@V?$basic_string@DU?$char_traits@D@std@@V?$allocator@D@2@@std@@@2@V?$allocator@PAVGallery@@@2@@std@@_N@2@ABU?$pair@$$CBV?$basic_string@DU?$char_traits@D@std@@V?$allocator@D@2@@std@@PAVGallery@@@2@@Z 004879a0 f i SharedGallery.obj
 0001:00086a90       ?erase@?$_Tree@V?$basic_string@DU?$char_traits@D@std@@V?$allocator@D@2@@std@@U?$pair@$$CBV?$basic_string@DU?$char_traits@D@std@@V?$allocator@D@2@@std@@PAVGallery@@@2@U_Kfn@?$map@V?$basic_string@DU?$char_traits@D@std@@V?$allocator@D@2@@std@@PAVGallery@@U?$less@V?$basic_string@DU?$char_traits@D@std@@V?$allocator@D@2@@std@@@2@V?$allocator@PAVGallery@@@2@@2@U?$less@V?$basic_string@DU?$char_traits@D@std@@V?$allocator@D@2@@std@@@2@V?$allocator@PAVGallery@@@2@@std@@QAE?AViterator@12@V312@@Z 00487a90 f i SharedGallery.obj
 0001:00086a90       ?erase@?$_Tree@V?$basic_string@DU?$char_traits@D@std@@V?$allocator@D@2@@std@@U?$pair@$$CBV?$basic_string@DU?$char_traits@D@std@@V?$allocator@D@2@@std@@H@2@U_Kfn@?$map@V?$basic_string@DU?$char_traits@D@std@@V?$allocator@D@2@@std@@HU?$less@V?$basic_string@DU?$char_traits@D@std@@V?$allocator@D@2@@std@@@2@V?$allocator@H@2@@2@U?$less@V?$basic_string@DU?$char_traits@D@std@@V?$allocator@D@2@@std@@@2@V?$allocator@H@2@@std@@QAE?AViterator@12@V312@@Z 00487a90 f i SharedGallery.obj
 0001:00086a90       ?erase@?$_Tree@V?$basic_string@DU?$char_traits@D@std@@V?$allocator@D@2@@std@@U?$pair@$$CBV?$basic_string@DU?$char_traits@D@std@@V?$allocator@D@2@@std@@J@2@U_Kfn@?$map@V?$basic_string@DU?$char_traits@D@std@@V?$allocator@D@2@@std@@JU?$less@V?$basic_string@DU?$char_traits@D@std@@V?$allocator@D@2@@std@@@2@V?$allocator@J@2@@2@U?$less@V?$basic_string@DU?$char_traits@D@std@@V?$allocator@D@2@@std@@@2@V?$allocator@J@2@@std@@QAE?AViterator@12@V312@@Z 00487a90 f i SharedGallery.obj
 0001:00086e60       ?erase@?$_Tree@V?$basic_string@DU?$char_traits@D@std@@V?$allocator@D@2@@std@@U?$pair@$$CBV?$basic_string@DU?$char_traits@D@std@@V?$allocator@D@2@@std@@PAVGallery@@@2@U_Kfn@?$map@V?$basic_string@DU?$char_traits@D@std@@V?$allocator@D@2@@std@@PAVGallery@@U?$less@V?$basic_string@DU?$char_traits@D@std@@V?$allocator@D@2@@std@@@2@V?$allocator@PAVGallery@@@2@@2@U?$less@V?$basic_string@DU?$char_traits@D@std@@V?$allocator@D@2@@std@@@2@V?$allocator@PAVGallery@@@2@@std@@QAE?AViterator@12@V312@0@Z 00487e60 f i SharedGallery.obj
 0001:00086f10       ?insert@?$map@PAVGallery@@V?$basic_string@DU?$char_traits@D@std@@V?$allocator@D@2@@std@@U?$less@PAVGallery@@@3@V?$allocator@V?$basic_string@DU?$char_traits@D@std@@V?$allocator@D@2@@std@@@3@@std@@QAE?AU?$pair@Viterator@?$_Tree@PAVGallery@@U?$pair@QAVGallery@@V?$basic_string@DU?$char_traits@D@std@@V?$allocator@D@2@@std@@@std@@U_Kfn@?$map@PAVGallery@@V?$basic_string@DU?$char_traits@D@std@@V?$allocator@D@2@@std@@U?$less@PAVGallery@@@3@V?$allocator@V?$basic_string@DU?$char_traits@D@std@@V?$allocator@D@2@@std@@@3@@3@U?$less@PAVGallery@@@3@V?$allocator@V?$basic_string@DU?$char_traits@D@std@@V?$allocator@D@2@@std@@@3@@std@@_N@2@ABU?$pair@QAVGallery@@V?$basic_string@DU?$char_traits@D@std@@V?$allocator@D@2@@std@@@2@@Z 00487f10 f i SharedGallery.obj
 0001:00086ff0       ?erase@?$_Tree@PAVGallery@@U?$pair@QAVGallery@@V?$basic_string@DU?$char_traits@D@std@@V?$allocator@D@2@@std@@@std@@U_Kfn@?$map@PAVGallery@@V?$basic_string@DU?$char_traits@D@std@@V?$allocator@D@2@@std@@U?$less@PAVGallery@@@3@V?$allocator@V?$basic_string@DU?$char_traits@D@std@@V?$allocator@D@2@@std@@@3@@3@U?$less@PAVGallery@@@3@V?$allocator@V?$basic_string@DU?$char_traits@D@std@@V?$allocator@D@2@@std@@@3@@std@@QAE?AViterator@12@V312@@Z 00487ff0 f i SharedGallery.obj
 0001:00086ff0       ?erase@?$_Tree@HU?$pair@$$CBHV?$basic_string@DU?$char_traits@D@std@@V?$allocator@D@2@@std@@@std@@U_Kfn@?$map@HV?$basic_string@DU?$char_traits@D@std@@V?$allocator@D@2@@std@@U?$less@H@2@V?$allocator@V?$basic_string@DU?$char_traits@D@std@@V?$allocator@D@2@@std@@@2@@2@U?$less@H@2@V?$allocator@V?$basic_string@DU?$char_traits@D@std@@V?$allocator@D@2@@std@@@2@@std@@QAE?AViterator@12@V312@@Z 00487ff0 f i SharedGallery.obj
 0001:000873c0       ?erase@?$_Tree@PAVGallery@@U?$pair@QAVGallery@@V?$basic_string@DU?$char_traits@D@std@@V?$allocator@D@2@@std@@@std@@U_Kfn@?$map@PAVGallery@@V?$basic_string@DU?$char_traits@D@std@@V?$allocator@D@2@@std@@U?$less@PAVGallery@@@3@V?$allocator@V?$basic_string@DU?$char_traits@D@std@@V?$allocator@D@2@@std@@@3@@3@U?$less@PAVGallery@@@3@V?$allocator@V?$basic_string@DU?$char_traits@D@std@@V?$allocator@D@2@@std@@@3@@std@@QAE?AViterator@12@V312@0@Z 004883c0 f i SharedGallery.obj
 0001:00087470       ?_Erase@?$_Tree@V?$basic_string@DU?$char_traits@D@std@@V?$allocator@D@2@@std@@U?$pair@$$CBV?$basic_string@DU?$char_traits@D@std@@V?$allocator@D@2@@std@@PAVGallery@@@2@U_Kfn@?$map@V?$basic_string@DU?$char_traits@D@std@@V?$allocator@D@2@@std@@PAVGallery@@U?$less@V?$basic_string@DU?$char_traits@D@std@@V?$allocator@D@2@@std@@@2@V?$allocator@PAVGallery@@@2@@2@U?$less@V?$basic_string@DU?$char_traits@D@std@@V?$allocator@D@2@@std@@@2@V?$allocator@PAVGallery@@@2@@std@@IAEXPAU_Node@12@@Z 00488470 f i SharedGallery.obj
 0001:000874c0       ?insert@?$_Tree@PAVGallery@@U?$pair@QAVGallery@@V?$basic_string@DU?$char_traits@D@std@@V?$allocator@D@2@@std@@@std@@U_Kfn@?$map@PAVGallery@@V?$basic_string@DU?$char_traits@D@std@@V?$allocator@D@2@@std@@U?$less@PAVGallery@@@3@V?$allocator@V?$basic_string@DU?$char_traits@D@std@@V?$allocator@D@2@@std@@@3@@3@U?$less@PAVGallery@@@3@V?$allocator@V?$basic_string@DU?$char_traits@D@std@@V?$allocator@D@2@@std@@@3@@std@@QAE?AU?$pair@Viterator@?$_Tree@PAVGallery@@U?$pair@QAVGallery@@V?$basic_string@DU?$char_traits@D@std@@V?$allocator@D@2@@std@@@std@@U_Kfn@?$map@PAVGallery@@V?$basic_string@DU?$char_traits@D@std@@V?$allocator@D@2@@std@@U?$less@PAVGallery@@@3@V?$allocator@V?$basic_string@DU?$char_traits@D@std@@V?$allocator@D@2@@std@@@3@@3@U?$less@PAVGallery@@@3@V?$allocator@V?$basic_string@DU?$char_traits@D@std@@V?$allocator@D@2@@std@@@3@@std@@_N@2@ABU?$pair@QAVGallery@@V?$basic_string@DU?$char_traits@D@std@@V?$allocator@D@2@@std@@@2@@Z 004884c0 f i SharedGallery.obj
 0001:00087710       ?_Erase@?$_Tree@PAVGallery@@U?$pair@QAVGallery@@V?$basic_string@DU?$char_traits@D@std@@V?$allocator@D@2@@std@@@std@@U_Kfn@?$map@PAVGallery@@V?$basic_string@DU?$char_traits@D@std@@V?$allocator@D@2@@std@@U?$less@PAVGallery@@@3@V?$allocator@V?$basic_string@DU?$char_traits@D@std@@V?$allocator@D@2@@std@@@3@@3@U?$less@PAVGallery@@@3@V?$allocator@V?$basic_string@DU?$char_traits@D@std@@V?$allocator@D@2@@std@@@3@@std@@IAEXPAU_Node@12@@Z 00488710 f i SharedGallery.obj
 0001:00087760       ?_Insert@?$_Tree@V?$basic_string@DU?$char_traits@D@std@@V?$allocator@D@2@@std@@U?$pair@$$CBV?$basic_string@DU?$char_traits@D@std@@V?$allocator@D@2@@std@@PAVGallery@@@2@U_Kfn@?$map@V?$basic_string@DU?$char_traits@D@std@@V?$allocator@D@2@@std@@PAVGallery@@U?$less@V?$basic_string@DU?$char_traits@D@std@@V?$allocator@D@2@@std@@@2@V?$allocator@PAVGallery@@@2@@2@U?$less@V?$basic_string@DU?$char_traits@D@std@@V?$allocator@D@2@@std@@@2@V?$allocator@PAVGallery@@@2@@std@@IAE?AViterator@12@PAU_Node@12@0ABU?$pair@$$CBV?$basic_string@DU?$char_traits@D@std@@V?$allocator@D@2@@std@@PAVGallery@@@2@@Z 00488760 f i SharedGallery.obj
 0001:000879b0       ?_Insert@?$_Tree@PAVGallery@@U?$pair@QAVGallery@@V?$basic_string@DU?$char_traits@D@std@@V?$allocator@D@2@@std@@@std@@U_Kfn@?$map@PAVGallery@@V?$basic_string@DU?$char_traits@D@std@@V?$allocator@D@2@@std@@U?$less@PAVGallery@@@3@V?$allocator@V?$basic_string@DU?$char_traits@D@std@@V?$allocator@D@2@@std@@@3@@3@U?$less@PAVGallery@@@3@V?$allocator@V?$basic_string@DU?$char_traits@D@std@@V?$allocator@D@2@@std@@@3@@std@@IAE?AViterator@12@PAU_Node@12@0ABU?$pair@QAVGallery@@V?$basic_string@DU?$char_traits@D@std@@V?$allocator@D@2@@std@@@2@@Z 004889b0 f i SharedGallery.obj
 0001:00087bf0       ?_Construct@std@@YAXPAU?$pair@$$CBV?$basic_string@DU?$char_traits@D@std@@V?$allocator@D@2@@std@@PAVGallery@@@1@ABU21@@Z 00488bf0 f i SharedGallery.obj
 0001:00087d60       ?_Construct@std@@YAXPAU?$pair@QAVGallery@@V?$basic_string@DU?$char_traits@D@std@@V?$allocator@D@2@@std@@@1@ABU21@@Z 00488d60 f i SharedGallery.obj
 0001:00088050       ??0Sprite@@QAE@XZ          00489050 f   Sprite.obj
 0001:000880b0       ??_GSprite@@UAEPAXI@Z      004890b0 f i Sprite.obj
 0001:000880b0       ??_ESprite@@UAEPAXI@Z      004890b0 f i Sprite.obj
 0001:000880e0       ??1Sprite@@UAE@XZ          004890e0 f   Sprite.obj
 0001:00088160       ?Draw@Sprite@@UAEXXZ       00489160 f   Sprite.obj
 0001:00088230       ?DrawMirrored@Sprite@@UAEXXZ 00489230 f   Sprite.obj
 0001:000882a0       ?ShowBitmap@Sprite@@UAEXJ@Z 004892a0 f   Sprite.obj
 0001:000882c0       ?GetImageData@Sprite@@UBEPAGXZ 004892c0 f   Sprite.obj
 0001:000882e0       ?GetWidth@Sprite@@UAEJXZ   004892e0 f   Sprite.obj
 0001:00088300       ?GetHeight@Sprite@@UAEJXZ  00489300 f   Sprite.obj
 0001:00088320       ?GetBitmap@Sprite@@UAEPAVBitmap@@XZ 00489320 f   Sprite.obj
 0001:00088330       ?SetBitmap@Sprite@@QAE_NKJW4WhichGallery@1@@Z 00489330 f   Sprite.obj
 0001:000883a0       ?GetBitmap@Sprite@@UBEPAVBitmap@@K@Z 004893a0 f   Sprite.obj
 0001:000883c0       ?SetScreenPosition@Sprite@@UAEXVPosition@@@Z 004893c0 f   Sprite.obj
 0001:000883e0       ?SetClippedDimensions@Sprite@@UAEXJJ@Z 004893e0 f   Sprite.obj
 0001:00088420       ?Write@CachedSound@@UBE_NAAVCreaturesArchive@@@Z 00489420 f   Sprite.obj
 0001:00088420       ?Write@SoundManager@@EBE_NAAVCreaturesArchive@@@Z 00489420 f   Sprite.obj
 0001:00088420       ?Read@SoundManager@@EAE_NAAVCreaturesArchive@@@Z 00489420 f   Sprite.obj
 0001:00088420       ?Visible@Sprite@@UAE_NAAUtagRECT@@@Z 00489420 f   Sprite.obj
 0001:00088420       ?Read@CachedSound@@UAE_NAAVCreaturesArchive@@@Z 00489420 f   Sprite.obj
 0001:00088430       ?SetCurrentBound@Sprite@@UAEXPAUtagRECT@@@Z 00489430 f   Sprite.obj
 0001:00088460       ?SetGallery@Sprite@@QAE_NABV?$basic_string@DU?$char_traits@D@std@@V?$allocator@D@2@@std@@@Z 00489460 f   Sprite.obj
 0001:00088550       ?SetGallery@Sprite@@QAE_NABV?$basic_string@DU?$char_traits@D@std@@V?$allocator@D@2@@std@@KK@Z 00489550 f   Sprite.obj
 0001:00088590       ?GetBitmapCount@Sprite@@QBEKXZ 00489590 f   Sprite.obj
 0001:000885a0       ?SetOverlayGallery@Sprite@@QAEXABV?$basic_string@DU?$char_traits@D@std@@V?$allocator@D@2@@std@@@Z 004895a0 f   Sprite.obj
 0001:00088670       ?DestroyPrimaryGallery@Sprite@@QAEXXZ 00489670 f   Sprite.obj
 0001:00088690       ?IsPixelTransparent@Sprite@@QAE_NKKJ@Z 00489690 f   Sprite.obj
 0001:000886b0       ?GetGalleryName@Sprite@@QBE?AV?$basic_string@DU?$char_traits@D@std@@V?$allocator@D@2@@std@@XZ 004896b0 f   Sprite.obj
 0001:000887a0       ?RecolourPrimaryGallery@Sprite@@QAEXPBG@Z 004897a0 f   Sprite.obj
 0001:000887c0       ?CopyGalleryData@Sprite@@QAEXAAVClonedGallery@@@Z 004897c0 f   Sprite.obj
 0001:00088850       ?ClonedAbsoluteBase@Sprite@@QBEKXZ 00489850 f   Sprite.obj
 0001:00088860       ?DrawString@Sprite@@QAEXJJABV?$basic_string@DU?$char_traits@D@std@@V?$allocator@D@2@@std@@HV?$vector@UCharStyle@Sprite@@V?$allocator@UCharStyle@Sprite@@@std@@@3@H@Z 00489860 f   Sprite.obj
 0001:000889e0       ?SelectFont@Sprite@@QAEHABV?$basic_string@DU?$char_traits@D@std@@V?$allocator@D@2@@std@@HHHHH@Z 004899e0 f   Sprite.obj
 0001:00088ba0       ??0CachedFont@Sprite@@QAE@V?$basic_string@DU?$char_traits@D@std@@V?$allocator@D@2@@std@@PAVGallery@@HHHHH@Z 00489ba0 f i Sprite.obj
 0001:00088cf0       ?MeasureString@Sprite@@QAEXABV?$basic_string@DU?$char_traits@D@std@@V?$allocator@D@2@@std@@HAAJ1@Z 00489cf0 f   Sprite.obj
 0001:00088da0       ?DrawLine@Sprite@@QAEXJJJJEEE@Z 00489da0 f   Sprite.obj
 0001:00088de0       ?DrawSpriteToBitmap@Sprite@@QAEXPAVBitmap@@VPosition@@QAV2@@Z 00489de0 f   Sprite.obj
 0001:00088e50       ?Clear@Sprite@@QAEXXZ      00489e50 f   Sprite.obj
 0001:00088e80       ?CreateGalleryForCloning@Sprite@@QAEXV?$basic_string@DU?$char_traits@D@std@@V?$allocator@D@2@@std@@KKK@Z 00489e80 f   Sprite.obj
 0001:00088f60       ?DrawMirrored@Sprite@@QAEXK_N@Z 00489f60 f   Sprite.obj
 0001:00088f80       ?DrawMirrored@Sprite@@QAEX_N@Z 00489f80 f   Sprite.obj
 0001:00088fa0       ?DrawAlphaBlended@Sprite@@QAEX_NH@Z 00489fa0 f   Sprite.obj
 0001:00088fc0       ?DrawAlpha@Sprite@@QAEXXZ  00489fc0 f   Sprite.obj
 0001:00089030       ?insert@?$vector@UCachedFont@Sprite@@V?$allocator@UCachedFont@Sprite@@@std@@@std@@QAEXPAUCachedFont@Sprite@@IABU34@@Z 0048a030 f i Sprite.obj
 0001:00089390       ?_Construct@std@@YAXPAUCachedFont@Sprite@@ABU23@@Z 0048a390 f i Sprite.obj
 0001:00089520       ??4CachedFont@Sprite@@QAEAAU01@ABU01@@Z 0048a520 f i Sprite.obj
 0001:00089800       ?CreateNewTintManager@@YAPAVPersistentObject@@XZ 0048a800 f   TintManager.obj
 0001:00089890       ?GetClassNameX@TintManager@@UBEPBDXZ 0048a890 f   TintManager.obj
 0001:000898a0       ??0TintManager@@QAE@XZ     0048a8a0 f   TintManager.obj
 0001:000898e0       ??5@YAAAVCreaturesArchive@@AAV0@AAVTintManager@@@Z 0048a8e0 f   TintManager.obj
 0001:00089900       ?Write@TintManager@@UBE_NAAVCreaturesArchive@@@Z 0048a900 f   TintManager.obj
 0001:00089970       ?Read@TintManager@@UAE_NAAVCreaturesArchive@@@Z 0048a970 f   TintManager.obj
 0001:00089af0       ?BuildTintTable@TintManager@@QAEXFFFFF@Z 0048aaf0 f   TintManager.obj
 0001:00089e20       ?GetTintValues@TintManager@@QAEXAAF0000@Z 0048ae20 f   TintManager.obj
 0001:00089e70       ?Start@Win32ScreenKiller@@SAXPAX@Z 0048ae70 f   Win32ScreenKiller.obj
 0001:00089eb0       ?ThreadMain@Win32ScreenKiller@@CGKPAX@Z 0048aeb0 f   Win32ScreenKiller.obj
 0001:00089f60       ?Stop@Win32ScreenKiller@@SAXXZ 0048af60 f   Win32ScreenKiller.obj
 0001:0008a050       ?GetPresence@Agent@@QAEAAVPresence@@XZ 0048b050 f   Agent.obj
 0001:0008a050       ?GetOverrideCategory@Agent@@UAEHXZ 0048b050 f   Agent.obj
 0001:0008a060       ?CreateNewAgent@@YAPAVPersistentObject@@XZ 0048b060 f   Agent.obj
 0001:0008a0f0       ?GetClassNameX@Agent@@UBEPBDXZ 0048b0f0 f   Agent.obj
 0001:0008a100       ??5@YAAAVCreaturesArchive@@AAV0@AAPAVAgent@@@Z 0048b100 f   Agent.obj
 0001:0008a160       ?SetShowCore@Agent@@QAEX_N@Z 0048b160 f   Agent.obj
 0001:0008a170       ?TestAlteredBoundingBox@Agent@@QAE_NABVBox@@@Z 0048b170 f   Agent.obj
 0001:0008a1d0       ?SetAlteredBoundingBox@Agent@@QAEXABVBox@@@Z 0048b1d0 f   Agent.obj
 0001:0008a240       ?GetCoreWidth@Agent@@QAEMXZ 0048b240 f   Agent.obj
 0001:0008a250       ?GetCoreHeight@Agent@@QAEMXZ 0048b250 f   Agent.obj
 0001:0008a260       ?SetWidth@Agent@@UAEXM@Z   0048b260 f   Agent.obj
 0001:0008a2d0       ?SetHeight@Agent@@UAEXM@Z  0048b2d0 f   Agent.obj
 0001:0008a340       ?GetCorePosOf@Agent@@QAE?AVVector2D@@ABV2@@Z 0048b340 f   Agent.obj
 0001:0008a380       ?GetPosFromCore@Agent@@QAE?AVVector2D@@ABV2@@Z 0048b380 f   Agent.obj
 0001:0008a3c0       ?VmIsRunning@Agent@@UAE_NXZ 0048b3c0 f   Agent.obj
 0001:0008a420       ?CallScript@Agent@@QAEXHABVCAOSVar@@0@Z 0048b420 f   Agent.obj
 0001:0008a6f0       ?PopCurrentVmIfFinished@Agent@@IAEXXZ 0048b6f0 f   Agent.obj
 0001:0008a910       ?StopAllScripts@Agent@@UAEXXZ 0048b910 f   Agent.obj
 0001:0008a9e0       ?GetRootVehicle@Agent@@QAE?AVAgentHandle@@XZ 0048b9e0 f   Agent.obj
 0001:0008ab00       ?GetAgentCount@@YAHXZ      0048bb00 f   Agent.obj
 0001:0008ab10       ?ForceCaAddition@Agent@@QAEXXZ 0048bb10 f   Agent.obj
 0001:0008ab50       ??0Agent@@QAE@XZ           0048bb50 f   Agent.obj
 0001:0008aec0       ?GetPlane@Agent@@UAEHH@Z   0048bec0 f i Agent.obj
 0001:0008aec0       ?GetNormalPlane@Agent@@UAEHH@Z 0048bec0 f i Agent.obj
 0001:0008aec0       ?GetOverlayIndex@Creature@@UAEHH@Z 0048bec0 f i Agent.obj
 0001:0008aed0       ?SetAnim@Agent@@UAE_NPBEHH@Z 0048bed0 f i Agent.obj
 0001:0008aee0       ?SetFrameRate@Agent@@UAE_NEH@Z 0048bee0 f i Agent.obj
 0001:0008aef0       ?GetBaseImage@Agent@@UAEHH@Z 0048bef0 f i Agent.obj
 0001:0008aef0       ?GetAbsoluteBase@Agent@@UAEHH@Z 0048bef0 f i Agent.obj
 0001:0008af00       ?SetPixelPerfectTesting@Agent@@UAE_N_NH@Z 0048bf00 f i Agent.obj
 0001:0008af10       ??_GAgent@@UAEPAXI@Z       0048bf10 f i Agent.obj
 0001:0008af10       ??_EAgent@@UAEPAXI@Z       0048bf10 f i Agent.obj
 0001:0008af40       ??1Voice@@UAE@XZ           0048bf40 f i Agent.obj
 0001:0008afd0       ??1?$map@VCAOSVar@@V1@U?$less@VCAOSVar@@@std@@V?$allocator@VCAOSVar@@@3@@std@@QAE@XZ 0048bfd0 f i Agent.obj
 0001:0008b0a0       ??1Agent@@UAE@XZ           0048c0a0 f   Agent.obj
 0001:0008b2e0       ?GetMagicNumber@Agent@@UAEKXZ 0048c2e0 f   Agent.obj
 0001:0008b2e0       ?GetMagicNumber@SimpleAgent@@UAEKXZ 0048c2e0 f   Agent.obj
 0001:0008b2f0       ?SpeakSentence@Agent@@UAEXAAV?$basic_string@DU?$char_traits@D@std@@V?$allocator@D@2@@std@@@Z 0048c2f0 f   Agent.obj
 0001:0008b4e0       ?IsConnectionValid@Agent@@QAE_NPAVPort@@0AA_N@Z 0048c4e0 f   Agent.obj
 0001:0008b780       ?InitialisePickupPointsAndHandles@Agent@@QAEXXZ 0048c780 f   Agent.obj
 0001:0008b950       ?Init@Agent@@IAEXXZ        0048c950 f   Agent.obj
 0001:0008bda0       ?MoveToSafePlaceGivenCurrentLocation@Agent@@UAE_NXZ 0048cda0 f   Agent.obj
 0001:0008be00       ?MoveToSafePlace@Agent@@UAE_NABVVector2D@@@Z 0048ce00 f   Agent.obj
 0001:0008be70       ?WhereShouldCreaturesPressMe@Agent@@UAE?AVVector2D@@XZ 0048ce70 f   Agent.obj
 0001:0008bec0       ?IsPointOverPort@Agent@@QAEPAVPort@@AAVVector2D@@AA_N@Z 0048cec0 f   Agent.obj
 0001:0008c030       ?GetDistanceToObstacle@Agent@@UAEMH@Z 0048d030 f   Agent.obj
 0001:0008c160       ?GetLastWallHit@Agent@@QAEHXZ 0048d160 f   Agent.obj
 0001:0008c170       ?IsFromCreature@Agent@@SA_NPAVMessage@@@Z 0048d170 f   Agent.obj
 0001:0008c2d0       ?HandleMessage@Agent@@QAEXPAVMessage@@@Z 0048d2d0 f   Agent.obj
 0001:0008c460       ?HandleActivate1@Agent@@MAEXPAVMessage@@@Z 0048d460 f   Agent.obj
 0001:0008c670       ?HandleActivate2@Agent@@MAEXPAVMessage@@@Z 0048d670 f   Agent.obj
 0001:0008c880       ?HandleDeactivate@Agent@@MAEXPAVMessage@@@Z 0048d880 f   Agent.obj
 0001:0008ca90       ?HandleHit@Agent@@MAEXPAVMessage@@@Z 0048da90 f   Agent.obj
 0001:0008cca0       ?RecursiveCarrierTester@@YA_NAAVAgentHandle@@0@Z 0048dca0 f   Agent.obj
 0001:0008cdd0       ?TryToBePickedUp@Agent@@QAE_NVAgentHandle@@AAVCAOSVar@@1@Z 0048ddd0 f   Agent.obj
 0001:0008cff0       ?TryToBeDropped@Agent@@UAE_NVAgentHandle@@AAVCAOSVar@@1_N@Z 0048dff0 f   Agent.obj
 0001:0008d200       ?HandlePickup@Agent@@MAEXPAVMessage@@@Z 0048e200 f   Agent.obj
 0001:0008d390       ?HandleDrop@Agent@@MAEXPAVMessage@@@Z 0048e390 f   Agent.obj
 0001:0008d520       ?HandleEat@Agent@@MAEXPAVMessage@@@Z 0048e520 f   Agent.obj
 0001:0008d730       ?HandleUI@Agent@@MAEXPAVMessage@@@Z 0048e730 f   Agent.obj
 0001:0008d740       ?HandleOther@Agent@@IAEXPAVMessage@@@Z 0048e740 f   Agent.obj
 0001:0008d8c0       ?IsTouching@Agent@@QAE?AVAgentHandle@@KK@Z 0048e8c0 f   Agent.obj
 0001:0008d980       ?SoundLevels@Agent@@QAEXAAJ0@Z 0048e980 f   Agent.obj
 0001:0008db90       ?Visibility@Agent@@UAE_NH@Z 0048eb90 f   Agent.obj
 0001:0008dbb0       ?Hide@Agent@@UAEXXZ        0048ebb0 f   Agent.obj
 0001:0008dbc0       ?Show@Agent@@UAEXXZ        0048ebc0 f   Agent.obj
 0001:0008dbe0       ?GetMapCoordOfWhereIPickUpAgentsFrom@Agent@@UAE?AVVector2D@@H_N@Z 0048ebe0 f   Agent.obj
 0001:0008dcb0       ?GetMyOffsetOfWhereIAmPickedUpFrom@Agent@@UAE?AVVector2D@@H@Z 0048ecb0 f   Agent.obj
 0001:0008dd80       ?GetPrimaryEntity@Agent@@UAEPAVEntityImage@@XZ 0048ed80 f   Agent.obj
 0001:0008dd90       ?GetPlaneForCarriedAgent@Agent@@UAEJXZ 0048ed90 f   Agent.obj
 0001:0008ddb0       ?GetRoomID@Agent@@UAE_NAAH@Z 0048edb0 f   Agent.obj
 0001:0008de20       ?HandleConnections@Agent@@IAEXXZ 0048ee20 f   Agent.obj
 0001:0008e040       ?SetEmission@Agent@@QAE_NHM@Z 0048f040 f   Agent.obj
 0001:0008e0c0       ?HandleCA@Agent@@QAEXXZ    0048f0c0 f   Agent.obj
 0001:0008e260       ?Update@Agent@@UAEXXZ      0048f260 f   Agent.obj
 0001:0008f0f0       ?FastFloatToInteger@@YAHM@Z 004900f0 f i Agent.obj
 0001:0008f0f0       ?FastFloatToInteger@Map@@SAHM@Z 004900f0 f i Agent.obj
 0001:0008f110       ?MoveTo@Agent@@UAEXMM@Z    00490110 f   Agent.obj
 0001:0008f160       ?MoveCoreTo@Agent@@UAEXABVVector2D@@@Z 00490160 f   Agent.obj
 0001:0008f1a0       ?MoveBy@Agent@@UAEXMM@Z    004901a0 f   Agent.obj
 0001:0008f220       ?TestCurrentLocation@Agent@@UAE_N_N@Z 00490220 f   Agent.obj
 0001:0008f240       ?TestRoomSystemLocation@Agent@@UAE_NXZ 00490240 f   Agent.obj
 0001:0008f290       ?TestMoveTo@Agent@@UAE_NMM_N@Z 00490290 f   Agent.obj
 0001:0008f3e0       ?TestMoveBy@Agent@@UAE_NMM_N@Z 004903e0 f   Agent.obj
 0001:0008f410       ?HandleMovement@Agent@@QAEXXZ 00490410 f   Agent.obj
 0001:0008f460       ?HandleMovementWhenAutonomous@Agent@@UAEXXZ 00490460 f   Agent.obj
 0001:0008f6b0       ?HandleMovementWhenFloating@Agent@@UAEXXZ 004906b0 f   Agent.obj
 0001:0008f730       ?HandleMovementWhenInVehicle@Agent@@UAEXXZ 00490730 f   Agent.obj
 0001:0008f9f0       ?HandleMovementWhenCarried@Agent@@UAEXXZ 004909f0 f   Agent.obj
 0001:0008fa60       ?HandleInputEvents@Agent@@IAEXXZ 00490a60 f   Agent.obj
 0001:0008fd10       ?HandleSound@Agent@@IAEXXZ 00490d10 f   Agent.obj
 0001:0008fe50       ?ClickAction@Agent@@UAEHHH@Z 00490e50 f   Agent.obj
 0001:0008fe60       ?ExecuteScriptForClassifier@Agent@@UAEHABVClassifier@@ABVAgentHandle@@ABVCAOSVar@@2@Z 00490e60 f   Agent.obj
 0001:0008ff50       ?ExecuteScriptForClassifier@Agent@@UAEHABVClassifier@@ABVCAOSVar@@11@Z 00490f50 f   Agent.obj
 0001:00090330       ?ExecuteScriptForEvent@Agent@@UAEHHABVCAOSVar@@00@Z 00491330 f   Agent.obj
 0001:000903a0       ?ExecuteScriptForEvent@Agent@@UAEHHABVAgentHandle@@ABVCAOSVar@@1@Z 004913a0 f   Agent.obj
 0001:00090490       ?ShowPose@Agent@@UAE_NHH@Z 00491490 f   Agent.obj
 0001:00090490       ?SetBaseImage@Agent@@UAE_NHH@Z 00491490 f   Agent.obj
 0001:00090490       ?SetBaseImage@SkeletalCreature@@UAE_NHH@Z 00491490 f   Agent.obj
 0001:000904a0       ?Trash@Agent@@UAEXXZ       004914a0 f   Agent.obj
 0001:000907a0       ?SoundEffect@Agent@@UAEXKH@Z 004917a0 f   Agent.obj
 0001:00090800       ?ControlledSound@Agent@@QAEXKH@Z 00491800 f   Agent.obj
 0001:000908d0       ?StopControlledSound@Agent@@QAEXH@Z 004918d0 f   Agent.obj
 0001:00090920       ?CanHear@Agent@@QAE_NABVAgentHandle@@@Z 00491920 f   Agent.obj
 0001:00090a60       ?CanSee@Agent@@UAE_NABVAgentHandle@@@Z 00491a60 f   Agent.obj
 0001:00090bd0       ?CanTouch@Agent@@QAE_NABVAgentHandle@@@Z 00491bd0 f   Agent.obj
 0001:00090d00       ?Write@Agent@@UBE_NAAVCreaturesArchive@@@Z 00491d00 f   Agent.obj
 0001:000913f0       ?Read@Agent@@UAE_NAAVCreaturesArchive@@@Z 004923f0 f   Agent.obj
 0001:00091c00       ?CanStartCarrying@Agent@@MAE_NAAVAgentHandle@@@Z 00492c00 f   Agent.obj
 0001:00091c20       ?CanStopCarrying@Agent@@IAE_NAAVAgentHandle@@0AA_N@Z 00492c20 f   Agent.obj
 0001:00091db0       ?StartCarrying@Agent@@MAEXAAVAgentHandle@@@Z 00492db0 f   Agent.obj
 0001:00091f10       ?StopCarrying@Agent@@MAEXAAVAgentHandle@@@Z 00492f10 f   Agent.obj
 0001:000920c0       ?AddAPointWhereYouCanPickMeUp@Agent@@QAE_NHHH@Z 004930c0 f   Agent.obj
 0001:00092140       ?AddAPointWhereIPickAgentsUp@Agent@@QAE_NHHHH@Z 00493140 f   Agent.obj
 0001:000921c0       ?DoBoundsIntersect@Agent@@UAE_NABVBox@@@Z 004931c0 f   Agent.obj
 0001:00092260       ?HitTest@Agent@@UAE_NABVVector2D@@_N@Z 00493260 f   Agent.obj
 0001:00092340       ?SetGallery@Agent@@UAEXABVFilePath@@HH@Z 00493340 f   Agent.obj
 0001:00092450       ?GetGallery@Agent@@UAEXAAV?$basic_string@DU?$char_traits@D@std@@V?$allocator@D@2@@std@@H@Z 00493450 f   Agent.obj
 0001:000925f0       ?DrawLine@Agent@@UAEXJJJJEEEEEK@Z 004935f0 f   Agent.obj
 0001:00092600       ?SetAttributes@Agent@@QAE_NK@Z 00493600 f   Agent.obj
 0001:000926a0       ?DoSetCameraShyStatus@Agent@@QAEXXZ 004936a0 f   Agent.obj
 0001:000926c0       ?ChangeCameraShyStatus@Agent@@UAEX_N@Z 004936c0 f   Agent.obj
 0001:000926e0       ?SetMovementStatus@Agent@@QAEXH@Z 004936e0 f   Agent.obj
 0001:00092750       ?CameraPositionNotify@Agent@@UAEXXZ 00493750 f   Agent.obj
 0001:000927a0       ?FloatTo@Agent@@QAEXABVVector2D@@@Z 004937a0 f   Agent.obj
 0001:000927d0       ?MarkValidPositionNow@Agent@@QAEXXZ 004937d0 f   Agent.obj
 0001:000927e0       ?HandleRunError@Agent@@QAEXAAVCAOSMachineRunError@@@Z 004937e0 f   Agent.obj
 0001:000934c0       ?SetDefaultClickAction@Agent@@QAEXH@Z 004944c0 f   Agent.obj
 0001:000934e0       ?SetDefaultClickActionCycle@Agent@@QAEXHHH@Z 004944e0 f   Agent.obj
 0001:00093510       ?DecideClickActionByState@Agent@@QAEXXZ 00494510 f   Agent.obj
 0001:00093560       ?GoBackToLastClickActionState@Agent@@QAEXXZ 00494560 f   Agent.obj
 0001:00093590       ?BreakLinksToOtherAgents@Agent@@UAEXXZ 00494590 f   Agent.obj
 0001:000936e0       ?DetachFloatingWith@Agent@@QAEXXZ 004946e0 f   Agent.obj
 0001:000937d0       ?AttachFloatingWith@Agent@@QAEXAAVAgentHandle@@@Z 004947d0 f   Agent.obj
 0001:000939b0       ?WorldToFloatRelative@Agent@@QAEXAAVVector2D@@@Z 004949b0 f   Agent.obj
 0001:00093a00       ?FloatRelativeToWorld@Agent@@QAEXAAVVector2D@@@Z 00494a00 f   Agent.obj
 0001:00093a50       ?IsThereAScript@Agent@@QAE_NH@Z 00494a50 f   Agent.obj
 0001:00093ac0       ?SetCreaturePermissions@Agent@@QAE_NK@Z 00494ac0 f   Agent.obj
 0001:00093b50       ?DrawMirrored@Agent@@UAEX_N@Z 00494b50 f   Agent.obj
 0001:00093b80       ?GetCentre@Agent@@UAE?AVVector2D@@XZ 00494b80 f   Agent.obj
 0001:00093bd0       ?UpdateFromPresence@Agent@@QAEXXZ 00494bd0 f   Agent.obj
 0001:00093bf0       ?Scale@Agent@@UAEXM_N@Z    00494bf0 f   Agent.obj
 0001:00093c10       ?DrawAlphaBlended@Agent@@UAEXH_NH@Z 00494c10 f   Agent.obj
 0001:00093c30       ?DrawShadowed@Agent@@UAEXHHH_N@Z 00494c30 f   Agent.obj
 0001:00093c60       ?DrawToNewWidthAndHeight@Agent@@UAEXHH_N@Z 00494c60 f   Agent.obj
 0001:00093c90       ?GetNameVar@Agent@@QAEAAVCAOSVar@@ABV2@@Z 00494c90 f   Agent.obj
 0001:00093cb0       ?GetNextNameVar@Agent@@QAEXAAVCAOSVar@@@Z 00494cb0 f   Agent.obj
 0001:00093f20       ?DeleteNameVar@Agent@@QAEXABVCAOSVar@@@Z 00494f20 f   Agent.obj
 0001:00093f90       ?SetOverrideCategory@Agent@@QAEXH@Z 00494f90 f   Agent.obj
 0001:00093fa0       ??A?$map@VCAOSVar@@V1@U?$less@VCAOSVar@@@std@@V?$allocator@VCAOSVar@@@3@@std@@QAEAAVCAOSVar@@ABV2@@Z 00494fa0 f i Agent.obj
 0001:000940d0       ??1?$_Tree@VCAOSVar@@U?$pair@$$CBVCAOSVar@@V1@@std@@U_Kfn@?$map@VCAOSVar@@V1@U?$less@VCAOSVar@@@std@@V?$allocator@VCAOSVar@@@3@@3@U?$less@VCAOSVar@@@3@V?$allocator@VCAOSVar@@@3@@std@@QAE@XZ 004950d0 f i Agent.obj
 0001:00094190       ??1?$deque@PAVCAOSMachine@@V?$allocator@PAVCAOSMachine@@@std@@@std@@QAE@XZ 00495190 f i Agent.obj
 0001:00094190       ??1?$deque@PAVRoom@@V?$allocator@PAVRoom@@@std@@@std@@QAE@XZ 00495190 f i Agent.obj
 0001:00094260       ?back@?$deque@PAVCAOSMachine@@V?$allocator@PAVCAOSMachine@@@std@@@std@@QAEAAPAVCAOSMachine@@XZ 00495260 f i Agent.obj
 0001:000942b0       ?push_back@?$deque@PAVCAOSMachine@@V?$allocator@PAVCAOSMachine@@@std@@@std@@QAEXABQAVCAOSMachine@@@Z 004952b0 f i Agent.obj
 0001:00094490       ??1?$pair@$$CBVCAOSVar@@V1@@std@@QAE@XZ 00495490 f i Agent.obj
 0001:00094580       ?erase@?$_Tree@VCAOSVar@@U?$pair@$$CBVCAOSVar@@V1@@std@@U_Kfn@?$map@VCAOSVar@@V1@U?$less@VCAOSVar@@@std@@V?$allocator@VCAOSVar@@@3@@3@U?$less@VCAOSVar@@@3@V?$allocator@VCAOSVar@@@3@@std@@QAE?AViterator@12@V312@@Z 00495580 f i Agent.obj
 0001:00094950       ?erase@?$_Tree@VCAOSVar@@U?$pair@$$CBVCAOSVar@@V1@@std@@U_Kfn@?$map@VCAOSVar@@V1@U?$less@VCAOSVar@@@std@@V?$allocator@VCAOSVar@@@3@@3@U?$less@VCAOSVar@@@3@V?$allocator@VCAOSVar@@@3@@std@@QAE?AViterator@12@V312@0@Z 00495950 f i Agent.obj
 0001:00094a00       ?find@?$_Tree@VCAOSVar@@U?$pair@$$CBVCAOSVar@@V1@@std@@U_Kfn@?$map@VCAOSVar@@V1@U?$less@VCAOSVar@@@std@@V?$allocator@VCAOSVar@@@3@@3@U?$less@VCAOSVar@@@3@V?$allocator@VCAOSVar@@@3@@std@@QAE?AViterator@12@ABVCAOSVar@@@Z 00495a00 f i Agent.obj
 0001:00094a80       ?_Popback@?$deque@PAVRoom@@V?$allocator@PAVRoom@@@std@@@std@@IAEXXZ 00495a80 f i Agent.obj
 0001:00094a80       ?_Popback@?$deque@PAVCAOSMachine@@V?$allocator@PAVCAOSMachine@@@std@@@std@@IAEXXZ 00495a80 f i Agent.obj
 0001:00094b30       ??Giterator@?$deque@PAVCAOSMachine@@V?$allocator@PAVCAOSMachine@@@std@@@std@@QBE?AV012@H@Z 00495b30 f i Agent.obj
 0001:00094b30       ??Giterator@?$deque@PAVRoom@@V?$allocator@PAVRoom@@@std@@@std@@QBE?AV012@H@Z 00495b30 f i Agent.obj
 0001:00094ba0       ?insert@?$_Tree@VCAOSVar@@U?$pair@$$CBVCAOSVar@@V1@@std@@U_Kfn@?$map@VCAOSVar@@V1@U?$less@VCAOSVar@@@std@@V?$allocator@VCAOSVar@@@3@@3@U?$less@VCAOSVar@@@3@V?$allocator@VCAOSVar@@@3@@std@@QAE?AU?$pair@Viterator@?$_Tree@VCAOSVar@@U?$pair@$$CBVCAOSVar@@V1@@std@@U_Kfn@?$map@VCAOSVar@@V1@U?$less@VCAOSVar@@@std@@V?$allocator@VCAOSVar@@@3@@3@U?$less@VCAOSVar@@@3@V?$allocator@VCAOSVar@@@3@@std@@_N@2@ABU?$pair@$$CBVCAOSVar@@V1@@2@@Z 00495ba0 f i Agent.obj
 0001:00094e00       ?_Erase@?$_Tree@VCAOSVar@@U?$pair@$$CBVCAOSVar@@V1@@std@@U_Kfn@?$map@VCAOSVar@@V1@U?$less@VCAOSVar@@@std@@V?$allocator@VCAOSVar@@@3@@3@U?$less@VCAOSVar@@@3@V?$allocator@VCAOSVar@@@3@@std@@IAEXPAU_Node@12@@Z 00495e00 f i Agent.obj
 0001:00094e50       ?_Init@?$_Tree@VCAOSVar@@U?$pair@$$CBVCAOSVar@@V1@@std@@U_Kfn@?$map@VCAOSVar@@V1@U?$less@VCAOSVar@@@std@@V?$allocator@VCAOSVar@@@3@@3@U?$less@VCAOSVar@@@3@V?$allocator@VCAOSVar@@@3@@std@@IAEXXZ 00495e50 f i Agent.obj
 0001:00094eb0       ?_Inc@iterator@?$_Tree@VCAOSVar@@U?$pair@$$CBVCAOSVar@@V1@@std@@U_Kfn@?$map@VCAOSVar@@V1@U?$less@VCAOSVar@@@std@@V?$allocator@VCAOSVar@@@3@@3@U?$less@VCAOSVar@@@3@V?$allocator@VCAOSVar@@@3@@std@@QAEXXZ 00495eb0 f i Agent.obj
 0001:00094f00       ?_Popfront@?$deque@PAVCAOSMachine@@V?$allocator@PAVCAOSMachine@@@std@@@std@@IAEXXZ 00495f00 f i Agent.obj
 0001:00094fc0       ?_Growmap@?$deque@PAVCAOSMachine@@V?$allocator@PAVCAOSMachine@@@std@@@std@@IAEPAPAPAVCAOSMachine@@I@Z 00495fc0 f i Agent.obj
 0001:000950c0       ??0iterator@?$deque@PAVCAOSMachine@@V?$allocator@PAVCAOSMachine@@@std@@@std@@QAE@PAPAVCAOSMachine@@PAPAPAV3@@Z 004960c0 f i Agent.obj
 0001:000950f0       ??Fiterator@?$deque@PAVCAOSMachine@@V?$allocator@PAVCAOSMachine@@@std@@@std@@QAEAAV012@XZ 004960f0 f i Agent.obj
 0001:00095120       ?insert@?$vector@VVector2D@@V?$allocator@VVector2D@@@std@@@std@@QAEXPAVVector2D@@IABV3@@Z 00496120 f i Agent.obj
 0001:00095380       ??4Vector2D@@QAEXABV0@@Z   00496380 f i Agent.obj
 0001:000953a0       ?_Insert@?$_Tree@VCAOSVar@@U?$pair@$$CBVCAOSVar@@V1@@std@@U_Kfn@?$map@VCAOSVar@@V1@U?$less@VCAOSVar@@@std@@V?$allocator@VCAOSVar@@@3@@3@U?$less@VCAOSVar@@@3@V?$allocator@VCAOSVar@@@3@@std@@IAE?AViterator@12@PAU_Node@12@0ABU?$pair@$$CBVCAOSVar@@V1@@2@@Z 004963a0 f i Agent.obj
 0001:000955f0       ?_Lbound@?$_Tree@VCAOSVar@@U?$pair@$$CBVCAOSVar@@V1@@std@@U_Kfn@?$map@VCAOSVar@@V1@U?$less@VCAOSVar@@@std@@V?$allocator@VCAOSVar@@@3@@3@U?$less@VCAOSVar@@@3@V?$allocator@VCAOSVar@@@3@@std@@IBEPAU_Node@12@ABVCAOSVar@@@Z 004965f0 f i Agent.obj
 0001:00095630       ?_Buynode@?$_Tree@VCAOSVar@@U?$pair@$$CBVCAOSVar@@V1@@std@@U_Kfn@?$map@VCAOSVar@@V1@U?$less@VCAOSVar@@@std@@V?$allocator@VCAOSVar@@@3@@3@U?$less@VCAOSVar@@@3@V?$allocator@VCAOSVar@@@3@@std@@IAEPAU_Node@12@PAU312@D@Z 00496630 f i Agent.obj
 0001:00095660       ?_Dec@iterator@?$_Tree@VCAOSVar@@U?$pair@$$CBVCAOSVar@@V1@@std@@U_Kfn@?$map@VCAOSVar@@V1@U?$less@VCAOSVar@@@std@@V?$allocator@VCAOSVar@@@3@@3@U?$less@VCAOSVar@@@3@V?$allocator@VCAOSVar@@@3@@std@@QAEXXZ 00496660 f i Agent.obj
 0001:000956c0       ??5@YAAAVCreaturesArchive@@AAV0@AAV?$map@VCAOSVar@@V1@U?$less@VCAOSVar@@@std@@V?$allocator@VCAOSVar@@@3@@std@@@Z 004966c0 f i Agent.obj
 0001:000958c0       ?fill@std@@YAXPAVVector2D@@0ABV2@@Z 004968c0 f i Agent.obj
 0001:000958f0       ?copy_backward@std@@YAPAVVector2D@@PAV2@00@Z 004968f0 f i Agent.obj
 0001:00095920       ?_Construct@std@@YAXPAU?$pair@$$CBVCAOSVar@@V1@@1@ABU21@@Z 00496920 f i Agent.obj
 0001:00095980       ??_G?$pair@$$CBVCAOSVar@@V1@@std@@QAEPAXI@Z 00496980 f i Agent.obj
 0001:000959b0       ?resize@?$vector@VVector2D@@V?$allocator@VVector2D@@@std@@@std@@QAEXIABVVector2D@@@Z 004969b0 f i Agent.obj
 0001:0009b7c0       ??0AgentHandle@@QAE@PAVAgent@@@Z 0049c7c0 f   AgentHandle.obj
 0001:0009b7e0       ??0AgentHandle@@QAE@AAVAgent@@@Z 0049c7e0 f   AgentHandle.obj
 0001:0009b810       ??0AgentHandle@@QAE@ABV0@@Z 0049c810 f   AgentHandle.obj
 0001:0009b840       ??1AgentHandle@@QAE@XZ     0049c840 f   AgentHandle.obj
 0001:0009b870       ??6@YAAAVCreaturesArchive@@AAV0@ABVAgentHandle@@@Z 0049c870 f   AgentHandle.obj
 0001:0009b8b0       ??5@YAAAVCreaturesArchive@@AAV0@AAVAgentHandle@@@Z 0049c8b0 f   AgentHandle.obj
 0001:0009b920       ??4AgentHandle@@QAEAAV0@ABV0@@Z 0049c920 f   AgentHandle.obj
 0001:0009b990       ??8AgentHandle@@QBE_NABV0@@Z 0049c990 f   AgentHandle.obj
 0001:0009b9b0       ??9AgentHandle@@QBE_NABV0@@Z 0049c9b0 f   AgentHandle.obj
 0001:0009b9d0       ??MAgentHandle@@QBE_NABV0@@Z 0049c9d0 f   AgentHandle.obj
 0001:0009b9f0       ?GetAgentReference@AgentHandle@@QBEAAVAgent@@XZ 0049c9f0 f   AgentHandle.obj
 0001:0009ba70       ??0AgentHandleException@@QAE@PAD@Z 0049ca70 f i AgentHandle.obj
 0001:0009bb80       ??0AgentHandleException@@QAE@ABV0@@Z 0049cb80 f i AgentHandle.obj
 0001:0009bcf0       ?GetSimpleAgentReference@AgentHandle@@QBEAAVSimpleAgent@@XZ 0049ccf0 f   AgentHandle.obj
 0001:0009bd70       ?GetPointerAgentReference@AgentHandle@@QBEAAVPointerAgent@@XZ 0049cd70 f   AgentHandle.obj
 0001:0009bdf0       ?GetCompoundAgentReference@AgentHandle@@QBEAAVCompoundAgent@@XZ 0049cdf0 f   AgentHandle.obj
 0001:0009be70       ?GetVehicleReference@AgentHandle@@QBEAAVVehicle@@XZ 0049ce70 f   AgentHandle.obj
 0001:0009bef0       ?GetCreatureReference@AgentHandle@@QBEAAVCreature@@XZ 0049cef0 f   AgentHandle.obj
 0001:0009bf70       ?GetSkeletalCreatureReference@AgentHandle@@QBEAAVSkeletalCreature@@XZ 0049cf70 f   AgentHandle.obj
 0001:0009bff0       ?GetAgentFacultyInterfaceReference@AgentHandle@@QBEAAVAgentFacultyInterface@@XZ 0049cff0 f   AgentHandle.obj
 0001:0009c070       ?GetCreatureFacultyInterfaceReference@AgentHandle@@QBEAAVCreatureFacultyInterface@@XZ 0049d070 f   AgentHandle.obj
 0001:0009c100       ?IsValid@AgentHandle@@QAE_NXZ 0049d100 f   AgentHandle.obj
 0001:0009c150       ?IsInvalid@AgentHandle@@QAE_NXZ 0049d150 f   AgentHandle.obj
 0001:0009c1a0       ?IsSimpleAgent@AgentHandle@@QAE_NXZ 0049d1a0 f   AgentHandle.obj
 0001:0009c1d0       ?IsPointerAgent@AgentHandle@@QAE_NXZ 0049d1d0 f   AgentHandle.obj
 0001:0009c200       ?IsCompoundAgent@AgentHandle@@QAE_NXZ 0049d200 f   AgentHandle.obj
 0001:0009c230       ?IsVehicle@AgentHandle@@QAE_NXZ 0049d230 f   AgentHandle.obj
 0001:0009c260       ?IsCreature@AgentHandle@@QAE_NXZ 0049d260 f   AgentHandle.obj
 0001:0009c290       ?IsSkeletalCreature@AgentHandle@@QAE_NXZ 0049d290 f   AgentHandle.obj
 0001:0009c510       ??1?$map@KViterator@?$list@VAgentHandle@@V?$allocator@VAgentHandle@@@std@@@std@@U?$less@K@3@V?$allocator@Viterator@?$list@VAgentHandle@@V?$allocator@VAgentHandle@@@std@@@std@@@3@@std@@QAE@XZ 0049d510 f i AgentManager.obj
 0001:0009c700       ??1?$multimap@VClassifier@@VAgentHandle@@U?$less@VClassifier@@@std@@V?$allocator@VAgentHandle@@@4@@std@@QAE@XZ 0049d700 f i AgentManager.obj
 0001:0009c830       ??1?$map@KViterator@?$_Tree@VClassifier@@U?$pair@$$CBVClassifier@@VAgentHandle@@@std@@U_Kfn@?$multimap@VClassifier@@VAgentHandle@@U?$less@VClassifier@@@std@@V?$allocator@VAgentHandle@@@4@@3@U?$less@VClassifier@@@3@V?$allocator@VAgentHandle@@@3@@std@@U?$less@K@3@V?$allocator@Viterator@?$_Tree@VClassifier@@U?$pair@$$CBVClassifier@@VAgentHandle@@@std@@U_Kfn@?$multimap@VClassifier@@VAgentHandle@@U?$less@VClassifier@@@std@@V?$allocator@VAgentHandle@@@4@@3@U?$less@VClassifier@@@3@V?$allocator@VAgentHandle@@@3@@std@@@3@@std@@QAE@XZ 0049d830 f i AgentManager.obj
 0001:0009ca30       ?InitCategorySmellMap@AgentManager@@CAHXZ 0049da30 f   AgentManager.obj
 0001:0009cb00       ??0AgentManager@@AAE@XZ    0049db00 f   AgentManager.obj
 0001:0009cb40       ??1AgentManager@@QAE@XZ    0049db40 f   AgentManager.obj
 0001:0009cbb0       ?GetAgentManager@AgentManager@@SAAAV1@XZ 0049dbb0 f   AgentManager.obj
 0001:0009cbc0       ?CreateSkeletalCreature@AgentManager@@QAE?AVAgentHandle@@HAAV2@HCC@Z 0049dbc0 f   AgentManager.obj
 0001:0009cfe0       ?CreateCreatureAgent@AgentManager@@QAE?AVAgentHandle@@HV2@HHHABVFilePath@@HHH@Z 0049dfe0 f   AgentManager.obj
 0001:0009d430       ?CreateSimpleAgent@AgentManager@@QAE?AVAgentHandle@@HHHABVFilePath@@JJJ@Z 0049e430 f   AgentManager.obj
 0001:0009d940       ??1?$pair@VClassifier@@VAgentHandle@@@std@@QAE@XZ 0049e940 f i AgentManager.obj
 0001:0009d990       ??1?$pair@$$CBVClassifier@@VAgentHandle@@@std@@QAE@XZ 0049e990 f i AgentManager.obj
 0001:0009d9e0       ?CreateCompoundAgent@AgentManager@@QAE?AVAgentHandle@@HHHABVFilePath@@JJJ@Z 0049e9e0 f   AgentManager.obj
 0001:0009dec0       ?CreateVehicle@AgentManager@@QAE?AVAgentHandle@@HHHABVFilePath@@JJJ@Z 0049eec0 f   AgentManager.obj
 0001:0009e3d0       ?CreatePointer@AgentManager@@QAE?AVAgentHandle@@XZ 0049f3d0 f   AgentManager.obj
 0001:0009ed60       ?UpdateAllAgents@AgentManager@@QAEXXZ 0049fd60 f   AgentManager.obj
 0001:0009ef50       ?ExecuteScriptOnAgent@AgentManager@@QAEXVAgentHandle@@HABVCAOSVar@@11@Z 0049ff50 f   AgentManager.obj
 0001:0009efb0       ?ExecuteScriptOnAllAgents@AgentManager@@QAEXHABVCAOSVar@@00@Z 0049ffb0 f   AgentManager.obj
 0001:0009f110       ?ExecuteScriptOnAllAgentsDeferred@AgentManager@@QAEXHABVCAOSVar@@00@Z 004a0110 f   AgentManager.obj
 0001:0009f290       ??1DeferredScript@AgentManager@@QAE@XZ 004a0290 f i AgentManager.obj
 0001:0009f3e0       ?ExecuteDeferredScripts@AgentManager@@QAEXXZ 004a03e0 f   AgentManager.obj
 0001:0009f4d0       ??6@YAAAVCreaturesArchive@@AAV0@ABUDeferredScript@AgentManager@@@Z 004a04d0 f   AgentManager.obj
 0001:0009f520       ??5@YAAAVCreaturesArchive@@AAV0@AAUDeferredScript@AgentManager@@@Z 004a0520 f   AgentManager.obj
 0001:0009f5d0       ?UniqueCreaturePlane@AgentManager@@QAEJAAVAgentHandle@@@Z 004a05d0 f   AgentManager.obj
 0001:0009f680       ?WhoAmITouching@AgentManager@@QAE?AVAgentHandle@@AAV2@@Z 004a0680 f   AgentManager.obj
 0001:0009f830       ?WhatVehicleCouldIDropInto@AgentManager@@QAE?AVAgentHandle@@ABV2@0@Z 004a0830 f   AgentManager.obj
 0001:0009fa60       ?HowManyCreaturesCanIHear@AgentManager@@QAEXAAVAgentHandle@@AAJ@Z 004a0a60 f   AgentManager.obj
 0001:0009fb20       ?WhatAmITouching@AgentManager@@QAE?AVAgentHandle@@AAVVector2D@@AAV2@KK@Z 004a0b20 f   AgentManager.obj
 0001:0009fc60       ?WhatCreatureAmIOver@AgentManager@@QAE?AVAgentHandle@@ABV2@ABVVector2D@@@Z 004a0c60 f   AgentManager.obj
 0001:0009fdf0       ?WhatAmIOver@AgentManager@@QAE?AVAgentHandle@@ABV2@ABVVector2D@@@Z 004a0df0 f   AgentManager.obj
 0001:0009ff20       ?CalculateMoodAndThreat@AgentManager@@QAEXAAK0AAM1@Z 004a0f20 f   AgentManager.obj
 0001:000a0090       ?KillAllAgents@AgentManager@@QAEXXZ 004a1090 f   AgentManager.obj
 0001:000a0190       ?KillAgent@AgentManager@@SAXABVAgentHandle@@@Z 004a1190 f   AgentManager.obj
 0001:000a03a0       ?GetAgentFromID@AgentManager@@QAE?AVAgentHandle@@K@Z 004a13a0 f   AgentManager.obj
 0001:000a0470       ?UpdateSmellClassifierList@AgentManager@@QAE_NHPAVClassifier@@@Z 004a1470 f   AgentManager.obj
 0001:000a04f0       ?GetCategoryIdFromSmellId@AgentManager@@QAEHH@Z 004a14f0 f   AgentManager.obj
 0001:000a0510       ?GetSmellIdFromCategoryId@AgentManager@@QAEHH@Z 004a1510 f   AgentManager.obj
 0001:000a0540       ?FindByFGS@AgentManager@@QAEXAAV?$list@VAgentHandle@@V?$allocator@VAgentHandle@@@std@@@std@@ABVClassifier@@@Z 004a1540 f   AgentManager.obj
 0001:000a0700       ?FindByArea@AgentManager@@QAEXAAV?$list@VAgentHandle@@V?$allocator@VAgentHandle@@@std@@@std@@ABVBox@@@Z 004a1700 f   AgentManager.obj
 0001:000a0720       ?FindByArea@AgentManager@@QAEXAAV?$list@VAgentHandle@@V?$allocator@VAgentHandle@@@std@@@std@@0ABVBox@@@Z 004a1720 f   AgentManager.obj
 0001:000a07d0       ?FindByAreaAndFGS@AgentManager@@QAEXAAV?$list@VAgentHandle@@V?$allocator@VAgentHandle@@@std@@@std@@ABVClassifier@@ABVBox@@@Z 004a17d0 f   AgentManager.obj
 0001:000a0890       ?FindBySightAndFGS@AgentManager@@QAEXABVAgentHandle@@AAV?$list@VAgentHandle@@V?$allocator@VAgentHandle@@@std@@@std@@ABVClassifier@@@Z 004a1890 f   AgentManager.obj
 0001:000a0910       ?FindNextAgent@AgentManager@@QAE?AVAgentHandle@@AAV2@ABVClassifier@@@Z 004a1910 f   AgentManager.obj
 0001:000a0a80       ?FindPreviousAgent@AgentManager@@QAE?AVAgentHandle@@AAV2@ABVClassifier@@@Z 004a1a80 f   AgentManager.obj
 0001:000a0c10       ?Write@AgentManager@@UBE_NAAVCreaturesArchive@@@Z 004a1c10 f   AgentManager.obj
 0001:000a0d40       ?Read@AgentManager@@UAE_NAAVCreaturesArchive@@@Z 004a1d40 f   AgentManager.obj
 0001:000a10c0       ??0DeferredScript@AgentManager@@QAE@XZ 004a20c0 f i AgentManager.obj
 0001:000a1150       ?RegisterClone@AgentManager@@QAEXAAVAgentHandle@@@Z 004a2150 f   AgentManager.obj
 0001:000a12f0       ?FindCreatureAgentForMoniker@AgentManager@@QAE?AVAgentHandle@@V?$basic_string@DU?$char_traits@D@std@@V?$allocator@D@2@@std@@@Z 004a22f0 f   AgentManager.obj
 0001:000a1400       ?FindAgentForMoniker@AgentManager@@QAE?AVAgentHandle@@V?$basic_string@DU?$char_traits@D@std@@V?$allocator@D@2@@std@@@Z 004a2400 f   AgentManager.obj
 0001:000a1570       ?AddCreatureToUpdateList@AgentManager@@QAEXABVAgentHandle@@@Z 004a2570 f   AgentManager.obj
 0001:000a16f0       ?GetAgentIteratorStart@AgentManager@@QAE?AViterator@?$list@VAgentHandle@@V?$allocator@VAgentHandle@@@std@@@std@@XZ 004a26f0 f   AgentManager.obj
 0001:000a1710       ?IsEnd@AgentManager@@QAE_NAAViterator@?$list@VAgentHandle@@V?$allocator@VAgentHandle@@@std@@@std@@@Z 004a2710 f   AgentManager.obj
 0001:000a1730       ?GetAgentIDMap@AgentManager@@SAAAV?$map@KViterator@?$list@VAgentHandle@@V?$allocator@VAgentHandle@@@std@@@std@@U?$less@K@3@V?$allocator@Viterator@?$list@VAgentHandle@@V?$allocator@VAgentHandle@@@std@@@std@@@3@@std@@XZ 004a2730 f   AgentManager.obj
 0001:000a1740       ?GetCreatureCollection@AgentManager@@SAAAV?$vector@VAgentHandle@@V?$allocator@VAgentHandle@@@std@@@std@@XZ 004a2740 f   AgentManager.obj
 0001:000a1750       ?GetCreatureByIndex@AgentManager@@QAE?AVAgentHandle@@K@Z 004a2750 f   AgentManager.obj
 0001:000a17b0       ?GetCreatureCount@AgentManager@@QAEHXZ 004a27b0 f   AgentManager.obj
 0001:000a17d0       ?CreateUniqueAgentID@AgentManager@@CAKXZ 004a27d0 f   AgentManager.obj
 0001:000a17f0       ?MakeGalleryPath@AgentManager@@SA?AVFilePath@@ABV?$basic_string@DU?$char_traits@D@std@@V?$allocator@D@2@@std@@@Z 004a27f0 f   AgentManager.obj
 0001:000a18c0       ??0?$map@HHU?$less@H@std@@V?$allocator@H@2@@std@@QAE@ABU?$less@H@1@ABV?$allocator@H@1@@Z 004a28c0 f i AgentManager.obj
 0001:000a18c0       ??0?$map@PAVDrawableObject@@Viterator@?$list@PAVDrawableObject@@V?$allocator@PAVDrawableObject@@@std@@@std@@U?$less@PAVDrawableObject@@@4@V?$allocator@Viterator@?$list@PAVDrawableObject@@V?$allocator@PAVDrawableObject@@@std@@@std@@@4@@std@@QAE@ABU?$less@PAVDrawableObject@@@1@ABV?$allocator@Viterator@?$list@PAVDrawableObject@@V?$allocator@PAVDrawableObject@@@std@@@std@@@1@@Z 004a28c0 f i AgentManager.obj
 0001:000a18c0       ??0?$map@KViterator@?$_Tree@VClassifier@@U?$pair@$$CBVClassifier@@VAgentHandle@@@std@@U_Kfn@?$multimap@VClassifier@@VAgentHandle@@U?$less@VClassifier@@@std@@V?$allocator@VAgentHandle@@@4@@3@U?$less@VClassifier@@@3@V?$allocator@VAgentHandle@@@3@@std@@U?$less@K@3@V?$allocator@Viterator@?$_Tree@VClassifier@@U?$pair@$$CBVClassifier@@VAgentHandle@@@std@@U_Kfn@?$multimap@VClassifier@@VAgentHandle@@U?$less@VClassifier@@@std@@V?$allocator@VAgentHandle@@@4@@3@U?$less@VClassifier@@@3@V?$allocator@VAgentHandle@@@3@@std@@@3@@std@@QAE@ABU?$less@K@1@ABV?$allocator@Viterator@?$_Tree@VClassifier@@U?$pair@$$CBVClassifier@@VAgentHandle@@@std@@U_Kfn@?$multimap@VClassifier@@VAgentHandle@@U?$less@VClassifier@@@std@@V?$allocator@VAgentHandle@@@4@@3@U?$less@VClassifier@@@3@V?$allocator@VAgentHandle@@@3@@std@@@1@@Z 004a28c0 f i AgentManager.obj
 0001:000a18c0       ??0?$map@KViterator@?$list@VAgentHandle@@V?$allocator@VAgentHandle@@@std@@@std@@U?$less@K@3@V?$allocator@Viterator@?$list@VAgentHandle@@V?$allocator@VAgentHandle@@@std@@@std@@@3@@std@@QAE@ABU?$less@K@1@ABV?$allocator@Viterator@?$list@VAgentHandle@@V?$allocator@VAgentHandle@@@std@@@std@@@1@@Z 004a28c0 f i AgentManager.obj
 0001:000a1930       ??0?$multimap@VClassifier@@VAgentHandle@@U?$less@VClassifier@@@std@@V?$allocator@VAgentHandle@@@4@@std@@QAE@ABU?$less@VClassifier@@@1@ABV?$allocator@VAgentHandle@@@1@@Z 004a2930 f i AgentManager.obj
 0001:000a19a0       ??1?$list@UDeferredScript@AgentManager@@V?$allocator@UDeferredScript@AgentManager@@@std@@@std@@QAE@XZ 004a29a0 f i AgentManager.obj
 0001:000a1a10       ?push_back@?$list@UDeferredScript@AgentManager@@V?$allocator@UDeferredScript@AgentManager@@@std@@@std@@QAEXABUDeferredScript@AgentManager@@@Z 004a2a10 f i AgentManager.obj
 0001:000a1a70       ?insert@?$list@VAgentHandle@@V?$allocator@VAgentHandle@@@std@@@std@@QAE?AViterator@12@V312@ABVAgentHandle@@@Z 004a2a70 f i AgentManager.obj
 0001:000a1ad0       ?insert@?$map@PBVPersistentObject@@JU?$less@PBVPersistentObject@@@std@@V?$allocator@J@3@@std@@QAE?AU?$pair@Viterator@?$_Tree@PBVPersistentObject@@U?$pair@QBVPersistentObject@@J@std@@U_Kfn@?$map@PBVPersistentObject@@JU?$less@PBVPersistentObject@@@std@@V?$allocator@J@3@@3@U?$less@PBVPersistentObject@@@3@V?$allocator@J@3@@std@@_N@2@ABU?$pair@QBVPersistentObject@@J@2@@Z 004a2ad0 f i AgentManager.obj
 0001:000a1ad0       ?insert@?$map@KViterator@?$_Tree@VClassifier@@U?$pair@$$CBVClassifier@@VAgentHandle@@@std@@U_Kfn@?$multimap@VClassifier@@VAgentHandle@@U?$less@VClassifier@@@std@@V?$allocator@VAgentHandle@@@4@@3@U?$less@VClassifier@@@3@V?$allocator@VAgentHandle@@@3@@std@@U?$less@K@3@V?$allocator@Viterator@?$_Tree@VClassifier@@U?$pair@$$CBVClassifier@@VAgentHandle@@@std@@U_Kfn@?$multimap@VClassifier@@VAgentHandle@@U?$less@VClassifier@@@std@@V?$allocator@VAgentHandle@@@4@@3@U?$less@VClassifier@@@3@V?$allocator@VAgentHandle@@@3@@std@@@3@@std@@QAE?AU?$pair@Viterator@?$_Tree@KU?$pair@$$CBKViterator@?$_Tree@VClassifier@@U?$pair@$$CBVClassifier@@VAgentHandle@@@std@@U_Kfn@?$multimap@VClassifier@@VAgentHandle@@U?$less@VClassifier@@@std@@V?$allocator@VAgentHandle@@@4@@3@U?$less@VClassifier@@@3@V?$allocator@VAgentHandle@@@3@@std@@@std@@U_Kfn@?$map@KViterator@?$_Tree@VClassifier@@U?$pair@$$CBVClassifier@@VAgentHandle@@@std@@U_Kfn@?$multimap@VClassifier@@VAgentHandle@@U?$less@VClassifier@@@std@@V?$allocator@VAgentHandle@@@4@@3@U?$less@VClassifier@@@3@V?$allocator@VAgentHandle@@@3@@std@@U?$less@K@3@V?$allocator@Viterator@?$_Tree@VClassifier@@U?$pair@$$CBVClassifier@@VAgentHandle@@@std@@U_Kfn@?$multimap@VClassifier@@VAgentHandle@@U?$less@VClassifier@@@std@@V?$allocator@VAgentHandle@@@4@@3@U?$less@VClassifier@@@3@V?$allocator@VAgentHandle@@@3@@std@@@3@@2@U?$less@K@2@V?$allocator@Viterator@?$_Tree@VClassifier@@U?$pair@$$CBVClassifier@@VAgentHandle@@@std@@U_Kfn@?$multimap@VClassifier@@VAgentHandle@@U?$less@VClassifier@@@std@@V?$allocator@VAgentHandle@@@4@@3@U?$less@VClassifier@@@3@V?$allocator@VAgentHandle@@@3@@std@@@2@@std@@_N@2@ABU?$pair@$$CBKViterator@?$_Tree@VClassifier@@U?$pair@$$CBVClassifier@@VAgentHandle@@@std@@U_Kfn@?$multimap@VClassifier@@VAgentHandle@@U?$less@VClassifier@@@std@@V?$allocator@VAgentHandle@@@4@@3@U?$less@VClassifier@@@3@V?$allocator@VAgentHandle@@@3@@std@@@2@@Z 004a2ad0 f i AgentManager.obj
 0001:000a1ad0       ?insert@?$map@KViterator@?$list@VAgentHandle@@V?$allocator@VAgentHandle@@@std@@@std@@U?$less@K@3@V?$allocator@Viterator@?$list@VAgentHandle@@V?$allocator@VAgentHandle@@@std@@@std@@@3@@std@@QAE?AU?$pair@Viterator@?$_Tree@KU?$pair@$$CBKViterator@?$list@VAgentHandle@@V?$allocator@VAgentHandle@@@std@@@std@@@std@@U_Kfn@?$map@KViterator@?$list@VAgentHandle@@V?$allocator@VAgentHandle@@@std@@@std@@U?$less@K@3@V?$allocator@Viterator@?$list@VAgentHandle@@V?$allocator@VAgentHandle@@@std@@@std@@@3@@2@U?$less@K@2@V?$allocator@Viterator@?$list@VAgentHandle@@V?$allocator@VAgentHandle@@@std@@@std@@@2@@std@@_N@2@ABU?$pair@$$CBKViterator@?$list@VAgentHandle@@V?$allocator@VAgentHandle@@@std@@@std@@@2@@Z 004a2ad0 f i AgentManager.obj
 0001:000a1bb0       ?find@?$_Tree@PBMU?$pair@QBMJ@std@@U_Kfn@?$map@PBMJU?$less@PBM@std@@V?$allocator@J@2@@2@U?$less@PBM@2@V?$allocator@J@2@@std@@QAE?AViterator@12@ABQBM@Z 004a2bb0 f i AgentManager.obj
 0001:000a1bb0       ?find@?$_Tree@PBVPersistentObject@@U?$pair@QBVPersistentObject@@J@std@@U_Kfn@?$map@PBVPersistentObject@@JU?$less@PBVPersistentObject@@@std@@V?$allocator@J@3@@3@U?$less@PBVPersistentObject@@@3@V?$allocator@J@3@@std@@QAE?AViterator@12@ABQBVPersistentObject@@@Z 004a2bb0 f i AgentManager.obj
 0001:000a1bb0       ?find@?$_Tree@KU?$pair@$$CBKViterator@?$list@VAgentHandle@@V?$allocator@VAgentHandle@@@std@@@std@@@std@@U_Kfn@?$map@KViterator@?$list@VAgentHandle@@V?$allocator@VAgentHandle@@@std@@@std@@U?$less@K@3@V?$allocator@Viterator@?$list@VAgentHandle@@V?$allocator@VAgentHandle@@@std@@@std@@@3@@2@U?$less@K@2@V?$allocator@Viterator@?$list@VAgentHandle@@V?$allocator@VAgentHandle@@@std@@@std@@@2@@std@@QAE?AViterator@12@ABK@Z 004a2bb0 f i AgentManager.obj
 0001:000a1bb0       ?find@?$_Tree@KU?$pair@$$CBKViterator@?$_Tree@VClassifier@@U?$pair@$$CBVClassifier@@VAgentHandle@@@std@@U_Kfn@?$multimap@VClassifier@@VAgentHandle@@U?$less@VClassifier@@@std@@V?$allocator@VAgentHandle@@@4@@3@U?$less@VClassifier@@@3@V?$allocator@VAgentHandle@@@3@@std@@@std@@U_Kfn@?$map@KViterator@?$_Tree@VClassifier@@U?$pair@$$CBVClassifier@@VAgentHandle@@@std@@U_Kfn@?$multimap@VClassifier@@VAgentHandle@@U?$less@VClassifier@@@std@@V?$allocator@VAgentHandle@@@4@@3@U?$less@VClassifier@@@3@V?$allocator@VAgentHandle@@@3@@std@@U?$less@K@3@V?$allocator@Viterator@?$_Tree@VClassifier@@U?$pair@$$CBVClassifier@@VAgentHandle@@@std@@U_Kfn@?$multimap@VClassifier@@VAgentHandle@@U?$less@VClassifier@@@std@@V?$allocator@VAgentHandle@@@4@@3@U?$less@VClassifier@@@3@V?$allocator@VAgentHandle@@@3@@std@@@3@@2@U?$less@K@2@V?$allocator@Viterator@?$_Tree@VClassifier@@U?$pair@$$CBVClassifier@@VAgentHandle@@@std@@U_Kfn@?$multimap@VClassifier@@VAgentHandle@@U?$less@VClassifier@@@std@@V?$allocator@VAgentHandle@@@4@@3@U?$less@VClassifier@@@3@V?$allocator@VAgentHandle@@@3@@std@@@2@@std@@QAE?AViterator@12@ABK@Z 004a2bb0 f i AgentManager.obj
 0001:000a1c20       ?begin@?$_Tree@VClassifier@@U?$pair@$$CBVClassifier@@VAgentHandle@@@std@@U_Kfn@?$multimap@VClassifier@@VAgentHandle@@U?$less@VClassifier@@@std@@V?$allocator@VAgentHandle@@@4@@3@U?$less@VClassifier@@@3@V?$allocator@VAgentHandle@@@3@@std@@QAE?AViterator@12@XZ 004a2c20 f i AgentManager.obj
 0001:000a1c40       ?insert@?$_Tree@VClassifier@@U?$pair@$$CBVClassifier@@VAgentHandle@@@std@@U_Kfn@?$multimap@VClassifier@@VAgentHandle@@U?$less@VClassifier@@@std@@V?$allocator@VAgentHandle@@@4@@3@U?$less@VClassifier@@@3@V?$allocator@VAgentHandle@@@3@@std@@QAE?AU?$pair@Viterator@?$_Tree@VClassifier@@U?$pair@$$CBVClassifier@@VAgentHandle@@@std@@U_Kfn@?$multimap@VClassifier@@VAgentHandle@@U?$less@VClassifier@@@std@@V?$allocator@VAgentHandle@@@4@@3@U?$less@VClassifier@@@3@V?$allocator@VAgentHandle@@@3@@std@@_N@2@ABU?$pair@$$CBVClassifier@@VAgentHandle@@@2@@Z 004a2c40 f i AgentManager.obj
 0001:000a1ea0       ?erase@?$_Tree@VClassifier@@U?$pair@$$CBVClassifier@@VAgentHandle@@@std@@U_Kfn@?$multimap@VClassifier@@VAgentHandle@@U?$less@VClassifier@@@std@@V?$allocator@VAgentHandle@@@4@@3@U?$less@VClassifier@@@3@V?$allocator@VAgentHandle@@@3@@std@@QAE?AViterator@12@V312@@Z 004a2ea0 f i AgentManager.obj
 0001:000a2270       ?insert@?$_Tree@PBMU?$pair@QBMJ@std@@U_Kfn@?$map@PBMJU?$less@PBM@std@@V?$allocator@J@2@@2@U?$less@PBM@2@V?$allocator@J@2@@std@@QAE?AU?$pair@Viterator@?$_Tree@PBMU?$pair@QBMJ@std@@U_Kfn@?$map@PBMJU?$less@PBM@std@@V?$allocator@J@2@@2@U?$less@PBM@2@V?$allocator@J@2@@std@@_N@2@ABU?$pair@QBMJ@2@@Z 004a3270 f i AgentManager.obj
 0001:000a2270       ?insert@?$_Tree@KU?$pair@$$CBKViterator@?$list@VAgentHandle@@V?$allocator@VAgentHandle@@@std@@@std@@@std@@U_Kfn@?$map@KViterator@?$list@VAgentHandle@@V?$allocator@VAgentHandle@@@std@@@std@@U?$less@K@3@V?$allocator@Viterator@?$list@VAgentHandle@@V?$allocator@VAgentHandle@@@std@@@std@@@3@@2@U?$less@K@2@V?$allocator@Viterator@?$list@VAgentHandle@@V?$allocator@VAgentHandle@@@std@@@std@@@2@@std@@QAE?AU?$pair@Viterator@?$_Tree@KU?$pair@$$CBKViterator@?$list@VAgentHandle@@V?$allocator@VAgentHandle@@@std@@@std@@@std@@U_Kfn@?$map@KViterator@?$list@VAgentHandle@@V?$allocator@VAgentHandle@@@std@@@std@@U?$less@K@3@V?$allocator@Viterator@?$list@VAgentHandle@@V?$allocator@VAgentHandle@@@std@@@std@@@3@@2@U?$less@K@2@V?$allocator@Viterator@?$list@VAgentHandle@@V?$allocator@VAgentHandle@@@std@@@std@@@2@@std@@_N@2@ABU?$pair@$$CBKViterator@?$list@VAgentHandle@@V?$allocator@VAgentHandle@@@std@@@std@@@2@@Z 004a3270 f i AgentManager.obj
 0001:000a2270       ?insert@?$_Tree@KU?$pair@$$CBK_N@std@@U_Kfn@?$map@K_NU?$less@K@std@@V?$allocator@_N@2@@2@U?$less@K@2@V?$allocator@_N@2@@std@@QAE?AU?$pair@Viterator@?$_Tree@KU?$pair@$$CBK_N@std@@U_Kfn@?$map@K_NU?$less@K@std@@V?$allocator@_N@2@@2@U?$less@K@2@V?$allocator@_N@2@@std@@_N@2@ABU?$pair@$$CBK_N@2@@Z 004a3270 f i AgentManager.obj
 0001:000a2270       ?insert@?$_Tree@KU?$pair@$$CBKViterator@?$_Tree@VClassifier@@U?$pair@$$CBVClassifier@@VAgentHandle@@@std@@U_Kfn@?$multimap@VClassifier@@VAgentHandle@@U?$less@VClassifier@@@std@@V?$allocator@VAgentHandle@@@4@@3@U?$less@VClassifier@@@3@V?$allocator@18673ad7 004a3270 f i AgentManager.obj
 0001:000a24c0       ?_Erase@?$_Tree@KU?$pair@$$CBKViterator@?$list@VAgentHandle@@V?$allocator@VAgentHandle@@@std@@@std@@@std@@U_Kfn@?$map@KViterator@?$list@VAgentHandle@@V?$allocator@VAgentHandle@@@std@@@std@@U?$less@K@3@V?$allocator@Viterator@?$list@VAgentHandle@@V?$allocator@VAgentHandle@@@std@@@std@@@3@@2@U?$less@K@2@V?$allocator@Viterator@?$list@VAgentHandle@@V?$allocator@VAgentHandle@@@std@@@std@@@2@@std@@IAEXPAU_Node@12@@Z 004a34c0 f i AgentManager.obj
 0001:000a2500       ?_Erase@?$_Tree@VClassifier@@U?$pair@$$CBVClassifier@@VAgentHandle@@@std@@U_Kfn@?$multimap@VClassifier@@VAgentHandle@@U?$less@VClassifier@@@std@@V?$allocator@VAgentHandle@@@4@@3@U?$less@VClassifier@@@3@V?$allocator@VAgentHandle@@@3@@std@@IAEXPAU_Node@12@@Z 004a3500 f i AgentManager.obj
 0001:000a2550       ?_Insert@?$_Tree@VClassifier@@U?$pair@$$CBVClassifier@@VAgentHandle@@@std@@U_Kfn@?$multimap@VClassifier@@VAgentHandle@@U?$less@VClassifier@@@std@@V?$allocator@VAgentHandle@@@4@@3@U?$less@VClassifier@@@3@V?$allocator@VAgentHandle@@@3@@std@@IAE?AViterator@12@PAU_Node@12@0ABU?$pair@$$CBVClassifier@@VAgentHandle@@@2@@Z 004a3550 f i AgentManager.obj
 0001:000a27a0       ?_Lbound@?$_Tree@VClassifier@@U?$pair@$$CBVClassifier@@VAgentHandle@@@std@@U_Kfn@?$multimap@VClassifier@@VAgentHandle@@U?$less@VClassifier@@@std@@V?$allocator@VAgentHandle@@@4@@3@U?$less@VClassifier@@@3@V?$allocator@VAgentHandle@@@3@@std@@IBEPAU_Node@12@ABVClassifier@@@Z 004a37a0 f i AgentManager.obj
 0001:000a27e0       ?_Ubound@?$_Tree@VClassifier@@U?$pair@$$CBVClassifier@@VAgentHandle@@@std@@U_Kfn@?$multimap@VClassifier@@VAgentHandle@@U?$less@VClassifier@@@std@@V?$allocator@VAgentHandle@@@4@@3@U?$less@VClassifier@@@3@V?$allocator@VAgentHandle@@@3@@std@@IBEPAU_Node@12@ABVClassifier@@@Z 004a37e0 f i AgentManager.obj
 0001:000a2820       ?_Inc@iterator@?$_Tree@VClassifier@@U?$pair@$$CBVClassifier@@VAgentHandle@@@std@@U_Kfn@?$multimap@VClassifier@@VAgentHandle@@U?$less@VClassifier@@@std@@V?$allocator@VAgentHandle@@@4@@3@U?$less@VClassifier@@@3@V?$allocator@VAgentHandle@@@3@@std@@QAEXXZ 004a3820 f i AgentManager.obj
 0001:000a2870       ?_Erase@?$_Tree@KU?$pair@$$CBKViterator@?$_Tree@VClassifier@@U?$pair@$$CBVClassifier@@VAgentHandle@@@std@@U_Kfn@?$multimap@VClassifier@@VAgentHandle@@U?$less@VClassifier@@@std@@V?$allocator@VAgentHandle@@@4@@3@U?$less@VClassifier@@@3@V?$allocator@VAgentHandle@@@3@@std@@@std@@U_Kfn@?$map@KViterator@?$_Tree@VClassifier@@U?$pair@$$CBVClassifier@@VAgentHandle@@@std@@U_Kfn@?$multimap@VClassifier@@VAgentHandle@@U?$less@VClassifier@@@std@@V?$allocator@VAgentHandle@@@4@@3@U?$less@VClassifier@@@3@V?$allocator@VAgentHandle@@@3@@std@@U?$less@K@3@V?$allocator@Viterator@?$_Tree@VClassifier@@U?$pair@$$CBVClassifier@@VAgentHandle@@@std@@U_Kfn@?$multimap@VClassifier@@VAgentHandle@@U?$less@VClassifier@@@std@@V?$allocator@VAgentHandle@@@4@@3@U?$less@VClassifier@@@3@V?$allocator@VAgentHandle@@@3@@std@@@3@@2@U?$less@K@2@V?$allocator@Viterator@?$_Tree@VClassifier@@U?$pair@$$CBVClassifier@@VAgentHandle@@@std@@U_Kfn@?$multimap@VClassifier@@VAgentHandle@@U?$less@VClassifier@@@std@@V?$allocator@VAgentHandle@@@4@@3@U?$less@VClassifier@@@3@V?$allocator@VAgentHandle@@@3@@std@@@2@@std@@IAEXPAU_Node@12@@Z 004a3870 f i AgentManager.obj
 0001:000a28b0       ??Eiterator@?$list@UDeferredScript@AgentManager@@V?$allocator@UDeferredScript@AgentManager@@@std@@@std@@QAE?AV012@H@Z 004a38b0 f i AgentManager.obj
 0001:000a28b0       ??Eiterator@?$list@HV?$allocator@H@std@@@std@@QAE?AV012@H@Z 004a38b0 f i AgentManager.obj
 0001:000a28b0       ??Eiterator@?$list@VAgentHandle@@V?$allocator@VAgentHandle@@@std@@@std@@QAE?AV012@H@Z 004a38b0 f i AgentManager.obj
 0001:000a28b0       ??Eiterator@?$list@PAVLink@@V?$allocator@PAVLink@@@std@@@std@@QAE?AV012@H@Z 004a38b0 f i AgentManager.obj
 0001:000a28b0       ??Eiterator@?$list@PAVControlledSound@MusicLayer@@V?$allocator@PAVControlledSound@MusicLayer@@@std@@@std@@QAE?AV012@H@Z 004a38b0 f i AgentManager.obj
 0001:000a28b0       ??Eiterator@?$list@U?$pair@HH@std@@V?$allocator@U?$pair@HH@std@@@2@@std@@QAE?AV012@H@Z 004a38b0 f i AgentManager.obj
 0001:000a28b0       ??Eiterator@?$list@PAVDoor@@V?$allocator@PAVDoor@@@std@@@std@@QAE?AV012@H@Z 004a38b0 f i AgentManager.obj
 0001:000a28b0       ??Eiterator@?$list@PAVDrawableObject@@V?$allocator@PAVDrawableObject@@@std@@@std@@QAE?AV012@H@Z 004a38b0 f i AgentManager.obj
 0001:000a28b0       ??Eiterator@?$list@PAVInputPort@@V?$allocator@PAVInputPort@@@std@@@std@@QAE?AV012@H@Z 004a38b0 f i AgentManager.obj
 0001:000a28d0       ??0?$pair@Viterator@?$_Tree@VImmutableVariables@QuickFsp@@U?$pair@$$CBVImmutableVariables@QuickFsp@@VFspCache@2@@std@@U_Kfn@?$map@VImmutableVariables@QuickFsp@@VFspCache@2@U?$less@VImmutableVariables@QuickFsp@@@std@@V?$allocator@VFspCache@QuickFsp@@@5@@4@U?$less@VImmutableVariables@QuickFsp@@@4@V?$allocator@VFspCache@QuickFsp@@@4@@std@@_N@std@@QAE@ABViterator@?$_Tree@VImmutableVariables@QuickFsp@@U?$pair@$$CBVImmutableVariables@QuickFsp@@VFspCache@2@@std@@U_Kfn@?$map@VImmutableVariables@QuickFsp@@VFspCache@2@U?$less@VImmutableVariables@QuickFsp@@@std@@V?$allocator@VFspCache@QuickFsp@@@5@@4@U?$less@VImmutableVariables@QuickFsp@@@4@V?$allocator@VFspCache@QuickFsp@@@4@@1@AB_N@Z 004a38d0 f i AgentManager.obj
 0001:000a28d0       ??0?$pair@Viterator@?$_Tree@V?$basic_string@DU?$char_traits@D@std@@V?$allocator@D@2@@std@@U?$pair@$$CBV?$basic_string@DU?$char_traits@D@std@@V?$allocator@D@2@@std@@UTagStruct@Catalogue@@@2@U_Kfn@?$map@V?$basic_string@DU?$char_traits@D@std@@V?$allocator@D@2@@std@@UTagStruct@Catalogue@@U?$less@V?$basic_string@DU?$char_traits@D@std@@V?$allocator@D@2@@std@@@2@V?$allocator@UTagStruct@Catalogue@@@2@@2@U?$less@V?$basic_string@DU?$char_traits@D@std@@V?$allocator@D@2@@std@@@2@V?$allocator@UTagStruct@Catalogue@@@2@@std@@_N@std@@QAE@ABViterator@?$_Tree@V?$basic_string@DU?$char_traits@D@std@@V?$allocator@D@2@@std@@U?$pair@$$CBV?$basic_string@DU?$char_traits@D@std@@V?$allocator@D@2@@std@@UTagStruct@Catalogue@@@2@U_Kfn@?$map@V?$basic_string@DU?$char_traits@D@std@@V?$allocator@D@2@@std@@UTagStruct@Catalogue@@U?$less@V?$basic_string@DU?$char_traits@D@std@@V?$allocator@D@2@@std@@@2@V?$allocator@UTagStruct@Catalogue@@@2@@2@U?$less@V?$basic_string@DU?$char_traits@D@std@@V?$allocator@D@2@@std@@@2@V?$allocator@UTagStruct@Catalogue@@@2@@1@AB_N@Z 004a38d0 f i AgentManager.obj
 0001:000a28d0       ??0?$pair@Viterator@?$_Tree@V?$basic_string@DU?$char_traits@D@std@@V?$allocator@D@2@@std@@U?$pair@$$CBV?$basic_string@DU?$char_traits@D@std@@V?$allocator@D@2@@std@@V12@@2@U_Kfn@?$map@V?$basic_string@DU?$char_traits@D@std@@V?$allocator@D@2@@std@@V12@U?$less@V?$basic_string@DU?$char_traits@D@std@@V?$allocator@D@2@@std@@@2@V?$allocator@V?$basic_string@DU?$char_traits@D@std@@V?$allocator@D@2@@std@@@2@@2@U?$less@V?$basic_string@DU?$char_traits@D@std@@V?$allocator@D@2@@std@@@2@V?$allocator@V?$basic_string@DU?$char_traits@D@std@@V?$allocator@D@2@@std@@@2@@std@@_N@std@@QAE@ABViterator@?$_Tree@V?$basic_string@DU?$char_traits@D@std@@V?$allocator@D@2@@std@@U?$pair@$$CBV?$basic_string@DU?$char_traits@D@std@@V?$allocator@D@2@@std@@V12@@2@U_Kfn@?$map@V?$basic_string@DU?$char_traits@D@std@@V?$allocator@D@2@@std@@V12@U?$less@V?$basic_string@DU?$char_traits@D@std@@V?$allocator@D@2@@std@@@2@V?$allocator@V?$basic_string@DU?$char_traits@D@std@@V?$allocator@D@2@@std@@@2@@2@U?$less@V?$basic_string@DU?$char_traits@D@std@@V?$allocator@D@2@@std@@@2@V?$allocator@V?$basic_string@DU?$char_traits@D@std@@V?$allocator@D@2@@std@@@2@@1@AB_N@Z 004a38d0 f i AgentManager.obj
 0001:000a28d0       ??0?$pair@Viterator@?$_Tree@V?$basic_string@DU?$char_traits@D@std@@V?$allocator@D@2@@std@@V12@U_Kfn@?$set@V?$basic_string@DU?$char_traits@D@std@@V?$allocator@D@2@@std@@U?$less@V?$basic_string@DU?$char_traits@D@std@@V?$allocator@D@2@@std@@@2@V?$allocator@V?$basic_string@DU?$char_traits@D@std@@V?$allocator@D@2@@std@@@2@@2@U?$less@V?$basic_string@DU?$char_traits@D@std@@V?$allocator@D@2@@std@@@2@V?$allocator@V?$basic_string@DU?$char_traits@D@std@@V?$allocator@D@2@@std@@@2@@std@@_N@std@@QAE@ABViterator@?$_Tree@V?$basic_string@DU?$char_traits@D@std@@V?$allocator@D@2@@std@@V12@U_Kfn@?$set@V?$basic_string@DU?$char_traits@D@std@@V?$allocator@D@2@@std@@U?$less@V?$basic_string@DU?$char_traits@D@std@@V?$allocator@D@2@@std@@@2@V?$allocator@V?$basic_string@DU?$char_traits@D@std@@V?$allocator@D@2@@std@@@2@@2@U?$less@V?$basic_string@DU?$char_traits@D@std@@V?$allocator@D@2@@std@@@2@V?$allocator@V?$basic_string@DU?$char_traits@D@std@@V?$allocator@D@2@@std@@@2@@1@AB_N@Z 004a38d0 f i AgentManager.obj
 0001:000a28d0       ??0?$pair@Viterator@?$_Tree@VCAOSVar@@U?$pair@$$CBVCAOSVar@@V1@@std@@U_Kfn@?$map@VCAOSVar@@V1@U?$less@VCAOSVar@@@std@@V?$allocator@VCAOSVar@@@3@@3@U?$less@VCAOSVar@@@3@V?$allocator@VCAOSVar@@@3@@std@@_N@std@@QAE@ABViterator@?$_Tree@VCAOSVar@@U?$pair@$$CBVCAOSVar@@V1@@std@@U_Kfn@?$map@VCAOSVar@@V1@U?$less@VCAOSVar@@@std@@V?$allocator@VCAOSVar@@@3@@3@U?$less@VCAOSVar@@@3@V?$allocator@VCAOSVar@@@3@@1@AB_N@Z 004a38d0 f i AgentManager.obj
 0001:000a28d0       ??0?$pair@Viterator@?$_Tree@HHU_Kfn@?$set@HU?$less@H@std@@V?$allocator@H@2@@std@@U?$less@H@3@V?$allocator@H@3@@std@@_N@std@@QAE@ABViterator@?$_Tree@HHU_Kfn@?$set@HU?$less@H@std@@V?$allocator@H@2@@std@@U?$less@H@3@V?$allocator@H@3@@1@AB_N@Z 004a38d0 f i AgentManager.obj
 0001:000a28d0       ??0?$pair@Viterator@?$_Tree@KU?$pair@$$CBKViterator@?$_Tree@VClassifier@@U?$pair@$$CBVClassifier@@VAgentHandle@@@std@@U_Kfn@?$multimap@VClassifier@@VAgentHandle@@U?$less@VClassifier@@@std@@V?$allocator@VAgentHandle@@@4@@3@U?$less@VClassifier@@@3@Vf95564db 004a38d0 f i AgentManager.obj
 0001:000a28d0       ??0?$pair@Viterator@?$_Tree@V?$basic_string@DU?$char_traits@D@std@@V?$allocator@D@2@@std@@U?$pair@$$CBV?$basic_string@DU?$char_traits@D@std@@V?$allocator@D@2@@std@@U?$pair@V?$basic_string@DU?$char_traits@D@std@@V?$allocator@D@2@@std@@H@2@@2@U_Kfn@?$map@V?$basic_string@DU?$char_traits@D@std@@V?$allocator@D@2@@std@@U?$pair@V?$basic_string@DU?$char_traits@D@std@@V?$allocator@D@2@@std@@H@2@U?$less@V?$basic_string@DU?$char_traits@D@std@@V?$allocator@D@2@@std@@@2@V?$allocator@U?$pair@V?$basic_string@DU?$char_traits@D@std@@V?$allocator@D@2@@std@@H@std@@@2@@2@U?$less@V?$basic_string@DU?$char_traits@D@std@@V?$allocator@D@2@@std@@@2@V?$allocator@U?$pair@V?$basic_string@DU?$char_traits@D@std@@V?$allocator@D@2@@std@@H@std@@@2@@std@@_N@std@@QAE@ABViterator@?$_Tree@V?$basic_string@DU?$char_traits@D@std@@V?$allocator@D@2@@std@@U?$pair@$$CBV?$basic_string@DU?$char_traits@D@std@@V?$allocator@D@2@@std@@U?$pair@V?$basic_string@DU?$char_traits@D@std@@V?$allocator@D@2@@std@@H@2@@2@U_Kfn@?$map@V?$basic_string@DU?$char_traits@D@std@@V?$allocator@D@2@@std@@U?$pair@V?$basic_string@DU?$char_traits@D@std@@V?$allocator@D@2@@std@@H@2@U?$less@V?$basic_string@DU?$char_traits@D@std@@V?$allocator@D@2@@std@@@2@V?$allocator@U?$pair@V?$basic_string@DU?$char_traits@D@std@@V?$allocator@D@2@@std@@H@std@@@2@@2@U?$less@V?$basic_string@DU?$char_traits@D@std@@V?$allocator@D@2@@std@@@2@V?$allocator@U?$pair@V?$basic_string@DU?$char_traits@D@std@@V?$allocator@D@2@@std@@H@std@@@2@@1@AB_N@Z 004a38d0 f i AgentManager.obj
 0001:000a28d0       ??0?$pair@Viterator@?$_Tree@V?$basic_string@DU?$char_traits@D@std@@V?$allocator@D@2@@std@@U?$pair@$$CBV?$basic_string@DU?$char_traits@D@std@@V?$allocator@D@2@@std@@J@2@U_Kfn@?$map@V?$basic_string@DU?$char_traits@D@std@@V?$allocator@D@2@@std@@JU?$less@V?$basic_string@DU?$char_traits@D@std@@V?$allocator@D@2@@std@@@2@V?$allocator@J@2@@2@U?$less@V?$basic_string@DU?$char_traits@D@std@@V?$allocator@D@2@@std@@@2@V?$allocator@J@2@@std@@_N@std@@QAE@ABViterator@?$_Tree@V?$basic_string@DU?$char_traits@D@std@@V?$allocator@D@2@@std@@U?$pair@$$CBV?$basic_string@DU?$char_traits@D@std@@V?$allocator@D@2@@std@@J@2@U_Kfn@?$map@V?$basic_string@DU?$char_traits@D@std@@V?$allocator@D@2@@std@@JU?$less@V?$basic_string@DU?$char_traits@D@std@@V?$allocator@D@2@@std@@@2@V?$allocator@J@2@@2@U?$less@V?$basic_string@DU?$char_traits@D@std@@V?$allocator@D@2@@std@@@2@V?$allocator@J@2@@1@AB_N@Z 004a38d0 f i AgentManager.obj
 0001:000a28d0       ??0?$pair@Viterator@?$_Tree@HU?$pair@$$CBHH@std@@U_Kfn@?$map@HHU?$less@H@std@@V?$allocator@H@2@@2@U?$less@H@2@V?$allocator@H@2@@std@@_N@std@@QAE@ABViterator@?$_Tree@HU?$pair@$$CBHH@std@@U_Kfn@?$map@HHU?$less@H@std@@V?$allocator@H@2@@2@U?$less@H@2@V?$allocator@H@2@@1@AB_N@Z 004a38d0 f i AgentManager.obj
 0001:000a28d0       ??0?$pair@Viterator@?$_Tree@KU?$pair@$$CBKViterator@?$list@VAgentHandle@@V?$allocator@VAgentHandle@@@std@@@std@@@std@@U_Kfn@?$map@KViterator@?$list@VAgentHandle@@V?$allocator@VAgentHandle@@@std@@@std@@U?$less@K@3@V?$allocator@Viterator@?$list@VAgentHandle@@V?$allocator@VAgentHandle@@@std@@@std@@@3@@2@U?$less@K@2@V?$allocator@Viterator@?$list@VAgentHandle@@V?$allocator@VAgentHandle@@@std@@@std@@@2@@std@@_N@std@@QAE@ABViterator@?$_Tree@KU?$pair@$$CBKViterator@?$list@VAgentHandle@@V?$allocator@VAgentHandle@@@std@@@std@@@std@@U_Kfn@?$map@KViterator@?$list@VAgentHandle@@V?$allocator@VAgentHandle@@@std@@@std@@U?$less@K@3@V?$allocator@Viterator@?$list@VAgentHandle@@V?$allocator@VAgentHandle@@@std@@@std@@@3@@2@U?$less@K@2@V?$allocator@Viterator@?$list@VAgentHandle@@V?$allocator@VAgentHandle@@@std@@@std@@@2@@1@AB_N@Z 004a38d0 f i AgentManager.obj
 0001:000a28d0       ??0?$pair@Viterator@?$_Tree@PAVGallery@@U?$pair@QAVGallery@@V?$basic_string@DU?$char_traits@D@std@@V?$allocator@D@2@@std@@@std@@U_Kfn@?$map@PAVGallery@@V?$basic_string@DU?$char_traits@D@std@@V?$allocator@D@2@@std@@U?$less@PAVGallery@@@3@V?$allocator@V?$basic_string@DU?$char_traits@D@std@@V?$allocator@D@2@@std@@@3@@3@U?$less@PAVGallery@@@3@V?$allocator@V?$basic_string@DU?$char_traits@D@std@@V?$allocator@D@2@@std@@@3@@std@@_N@std@@QAE@ABViterator@?$_Tree@PAVGallery@@U?$pair@QAVGallery@@V?$basic_string@DU?$char_traits@D@std@@V?$allocator@D@2@@std@@@std@@U_Kfn@?$map@PAVGallery@@V?$basic_string@DU?$char_traits@D@std@@V?$allocator@D@2@@std@@U?$less@PAVGallery@@@3@V?$allocator@V?$basic_string@DU?$char_traits@D@std@@V?$allocator@D@2@@std@@@3@@3@U?$less@PAVGallery@@@3@V?$allocator@V?$basic_string@DU?$char_traits@D@std@@V?$allocator@D@2@@std@@@3@@1@AB_N@Z 004a38d0 f i AgentManager.obj
 0001:000a28d0       ??0?$pair@Viterator@?$_Tree@V?$basic_string@DU?$char_traits@D@std@@V?$allocator@D@2@@std@@U?$pair@$$CBV?$basic_string@DU?$char_traits@D@std@@V?$allocator@D@2@@std@@VCreatureHistory@@@2@U_Kfn@?$map@V?$basic_string@DU?$char_traits@D@std@@V?$allocator@D@2@@std@@VCreatureHistory@@U?$less@V?$basic_string@DU?$char_traits@D@std@@V?$allocator@D@2@@std@@@2@V?$allocator@VCreatureHistory@@@2@@2@U?$less@V?$basic_string@DU?$char_traits@D@std@@V?$allocator@D@2@@std@@@2@V?$allocator@VCreatureHistory@@@2@@std@@_N@std@@QAE@ABViterator@?$_Tree@V?$basic_string@DU?$char_traits@D@std@@V?$allocator@D@2@@std@@U?$pair@$$CBV?$basic_string@DU?$char_traits@D@std@@V?$allocator@D@2@@std@@VCreatureHistory@@@2@U_Kfn@?$map@V?$basic_string@DU?$char_traits@D@std@@V?$allocator@D@2@@std@@VCreatureHistory@@U?$less@V?$basic_string@DU?$char_traits@D@std@@V?$allocator@D@2@@std@@@2@V?$allocator@VCreatureHistory@@@2@@2@U?$less@V?$basic_string@DU?$char_traits@D@std@@V?$allocator@D@2@@std@@@2@V?$allocator@VCreatureHistory@@@2@@1@AB_N@Z 004a38d0 f i AgentManager.obj
 0001:000a28d0       ??0?$pair@Viterator@?$_Tree@PAVDrawableObject@@U?$pair@QAVDrawableObject@@Viterator@?$list@PAVDrawableObject@@V?$allocator@PAVDrawableObject@@@std@@@std@@@std@@U_Kfn@?$map@PAVDrawableObject@@Viterator@?$list@PAVDrawableObject@@V?$allocator@PAVDrawableObject@@@std@@@std@@U?$less@PAVDrawableObject@@@4@V?$allocator@Viterator@?$list@PAVDrawableObject@@V?$allocator@PAVDrawableObject@@@std@@@std@@@4@@3@U?$less@PAVDrawableObject@@@3@V?$allocator@Viterator@?$list@PAVDrawableObject@@V?$allocator@PAVDrawableObject@@@std@@@std@@@3@@std@@_N@std@@QAE@ABViterator@?$_Tree@PAVDrawableObject@@U?$pair@QAVDrawableObject@@Viterator@?$list@PAVDrawableObject@@V?$allocator@PAVDrawableObject@@@std@@@std@@@std@@U_Kfn@?$map@PAVDrawableObject@@Viterator@?$list@PAVDrawableObject@@V?$allocator@PAVDrawableObject@@@std@@@std@@U?$less@PAVDrawableObject@@@4@V?$allocator@Viterator@?$list@PAVDrawableObject@@V?$allocator@PAVDrawableObject@@@std@@@std@@@4@@3@U?$less@PAVDrawableObject@@@3@V?$allocator@Viterator@?$list@PAVDrawableObject@@V?$allocator@PAVDrawableObject@@@std@@@std@@@3@@1@AB_N@Z 004a38d0 f i AgentManager.obj
 0001:000a28f0       ?_Insert@?$_Tree@PBMU?$pair@QBMJ@std@@U_Kfn@?$map@PBMJU?$less@PBM@std@@V?$allocator@J@2@@2@U?$less@PBM@2@V?$allocator@J@2@@std@@IAE?AViterator@12@PAU_Node@12@0ABU?$pair@QBMJ@2@@Z 004a38f0 f i AgentManager.obj
 0001:000a28f0       ?_Insert@?$_Tree@KU?$pair@$$CBKViterator@?$list@VAgentHandle@@V?$allocator@VAgentHandle@@@std@@@std@@@std@@U_Kfn@?$map@KViterator@?$list@VAgentHandle@@V?$allocator@VAgentHandle@@@std@@@std@@U?$less@K@3@V?$allocator@Viterator@?$list@VAgentHandle@@V?$allocator@VAgentHandle@@@std@@@std@@@3@@2@U?$less@K@2@V?$allocator@Viterator@?$list@VAgentHandle@@V?$allocator@VAgentHandle@@@std@@@std@@@2@@std@@IAE?AViterator@12@PAU_Node@12@0ABU?$pair@$$CBKViterator@?$list@VAgentHandle@@V?$allocator@VAgentHandle@@@std@@@std@@@2@@Z 004a38f0 f i AgentManager.obj
 0001:000a28f0       ?_Insert@?$_Tree@PBVPersistentObject@@U?$pair@QBVPersistentObject@@J@std@@U_Kfn@?$map@PBVPersistentObject@@JU?$less@PBVPersistentObject@@@std@@V?$allocator@J@3@@3@U?$less@PBVPersistentObject@@@3@V?$allocator@J@3@@std@@IAE?AViterator@12@PAU_Node@12@0ABU?$pair@QBVPersistentObject@@J@2@@Z 004a38f0 f i AgentManager.obj
 0001:000a28f0       ?_Insert@?$_Tree@KU?$pair@$$CBK_N@std@@U_Kfn@?$map@K_NU?$less@K@std@@V?$allocator@_N@2@@2@U?$less@K@2@V?$allocator@_N@2@@std@@IAE?AViterator@12@PAU_Node@12@0ABU?$pair@$$CBK_N@2@@Z 004a38f0 f i AgentManager.obj
 0001:000a28f0       ?_Insert@?$_Tree@PAVDrawableObject@@U?$pair@QAVDrawableObject@@Viterator@?$list@PAVDrawableObject@@V?$allocator@PAVDrawableObject@@@std@@@std@@@std@@U_Kfn@?$map@PAVDrawableObject@@Viterator@?$list@PAVDrawableObject@@V?$allocator@PAVDrawableObject@@@std@@@std@@U?$less@PAVDrawableObject@@@4@V?$allocator@Viterator@?$list@PAVDrawableObject@@V?$allocator@PAVDrawableObject@@@std@@@std@@@4@@3@U?$less@PAVDrawableObject@@@3@V?$allocator@Viterator@?$list@PAVDrawableObject@@V?$allocator@PAVDrawableObject@@@std@@@std@@@3@@std@@IAE?AViterator@12@PAU_Node@12@0ABU?$pair@QAVDrawableObject@@Viterator@?$list@PAVDrawableObject@@V?$allocator@PAVDrawableObject@@@std@@@std@@@2@@Z 004a38f0 f i AgentManager.obj
 0001:000a28f0       ?_Insert@?$_Tree@KU?$pair@$$CBKViterator@?$_Tree@VClassifier@@U?$pair@$$CBVClassifier@@VAgentHandle@@@std@@U_Kfn@?$multimap@VClassifier@@VAgentHandle@@U?$less@VClassifier@@@std@@V?$allocator@VAgentHandle@@@4@@3@U?$less@VClassifier@@@3@V?$allocator@VAgentHandle@@@3@@std@@@std@@U_Kfn@?$map@KViterator@?$_Tree@VClassifier@@U?$pair@$$CBVClassifier@@VAgentHandle@@@std@@U_Kfn@?$multimap@VClassifier@@VAgentHandle@@U?$less@VClassifier@@@std@@V?$allocator@VAgentHandle@@@4@@3@U?$less@VClassifier@@@3@V?$allocator@VAgentHandle@@@3@@std@@U?$less@K@3@V?$allocator@Viterator@?$_Tree@VClassifier@@U?$pair@$$CBVClassifier@@VAgentHandle@@@std@@U_Kfn@?$multimap@VClassifier@@VAgentHandle@@U?$less@VClassifier@@@std@@V?$allocator@VAgentHandle@@@4@@3@U?$less@VClassifier@@@3@V?$allocator@VAgentHandle@@@3@@std@@@3@@2@U?$less@K@2@V?$allocator@Viterator@?$_Tree@VClassifier@@U?$pair@$$CBVClassifier@@VAgentHandle@@@std@@U_Kfn@?$multimap@VClassifier@@VAgentHandle@@U?$less@VClassifier@@@std@@V?$allocator@VAgentHandle@@@4@@3@U?$less@VClassifier@@@3@V?$allocator@VAgentHandle@@@3@@std@@@2@@std@@IAE?AViterator@12@PAU_Node@12@0ABU?$pair@$$CBKViterator@?$_Tree@VClassifier@@U?$pair@$$CBVClassifier@@VAgentHandle@@@std@@U_Kfn@?$multimap@VClassifier@@VAgentHandle@@U?$less@VClassifier@@@std@@V?$allocator@VAgentHandle@@@4@@3@U?$less@VClassifier@@@3@V?$allocator@VAgentHandle@@@3@@std@@@2@@Z 004a38f0 f i AgentManager.obj
 0001:000a2b30       ?_Buynode@?$_Tree@VClassifier@@U?$pair@$$CBVClassifier@@VAgentHandle@@@std@@U_Kfn@?$multimap@VClassifier@@VAgentHandle@@U?$less@VClassifier@@@std@@V?$allocator@VAgentHandle@@@4@@3@U?$less@VClassifier@@@3@V?$allocator@VAgentHandle@@@3@@std@@IAEPAU_Node@12@PAU312@D@Z 004a3b30 f i AgentManager.obj
 0001:000a2b60       ?_Dec@iterator@?$_Tree@VClassifier@@U?$pair@$$CBVClassifier@@VAgentHandle@@@std@@U_Kfn@?$multimap@VClassifier@@VAgentHandle@@U?$less@VClassifier@@@std@@V?$allocator@VAgentHandle@@@4@@3@U?$less@VClassifier@@@3@V?$allocator@VAgentHandle@@@3@@std@@QAEXXZ 004a3b60 f i AgentManager.obj
 0001:000a2bc0       ?_Buynode@?$_Tree@PBMU?$pair@QBMJ@std@@U_Kfn@?$map@PBMJU?$less@PBM@std@@V?$allocator@J@2@@2@U?$less@PBM@2@V?$allocator@J@2@@std@@IAEPAU_Node@12@PAU312@D@Z 004a3bc0 f i AgentManager.obj
 0001:000a2bc0       ?_Buynode@?$_Tree@HU?$pair@$$CBHH@std@@U_Kfn@?$map@HHU?$less@H@std@@V?$allocator@H@2@@2@U?$less@H@2@V?$allocator@H@2@@std@@IAEPAU_Node@12@PAU312@D@Z 004a3bc0 f i AgentManager.obj
 0001:000a2bc0       ?_Buynode@?$_Tree@KU?$pair@$$CBK_N@std@@U_Kfn@?$map@K_NU?$less@K@std@@V?$allocator@_N@2@@2@U?$less@K@2@V?$allocator@_N@2@@std@@IAEPAU_Node@12@PAU312@D@Z 004a3bc0 f i AgentManager.obj
 0001:000a2bc0       ?_Buynode@?$_Tree@KU?$pair@$$CBKViterator@?$_Tree@VClassifier@@U?$pair@$$CBVClassifier@@VAgentHandle@@@std@@U_Kfn@?$multimap@VClassifier@@VAgentHandle@@U?$less@VClassifier@@@std@@V?$allocator@VAgentHandle@@@4@@3@U?$less@VClassifier@@@3@V?$allocator@VAgentHandle@@@3@@std@@@std@@U_Kfn@?$map@KViterator@?$_Tree@VClassifier@@U?$pair@$$CBVClassifier@@VAgentHandle@@@std@@U_Kfn@?$multimap@VClassifier@@VAgentHandle@@U?$less@VClassifier@@@std@@V?$allocator@VAgentHandle@@@4@@3@U?$less@VClassifier@@@3@V?$allocator@VAgentHandle@@@3@@std@@U?$less@K@3@V?$allocator@Viterator@?$_Tree@VClassifier@@U?$pair@$$CBVClassifier@@VAgentHandle@@@std@@U_Kfn@?$multimap@VClassifier@@VAgentHandle@@U?$less@VClassifier@@@std@@V?$allocator@VAgentHandle@@@4@@3@U?$less@VClassifier@@@3@V?$allocator@VAgentHandle@@@3@@std@@@3@@2@U?$less@K@2@V?$allocator@Viterator@?$_Tree@VClassifier@@U?$pair@$$CBVClassifier@@VAgentHandle@@@std@@U_Kfn@?$multimap@VClassifier@@VAgentHandle@@U?$less@VClassifier@@@std@@V?$allocator@VAgentHandle@@@4@@3@U?$less@VClassifier@@@3@V?$allocator@VAgentHandle@@@3@@std@@@2@@std@@IAEPAU_Node@12@PAU312@D@Z 004a3bc0 f i AgentManager.obj
 0001:000a2bc0       ?_Buynode@?$_Tree@KU?$pair@$$CBKViterator@?$list@VAgentHandle@@V?$allocator@VAgentHandle@@@std@@@std@@@std@@U_Kfn@?$map@KViterator@?$list@VAgentHandle@@V?$allocator@VAgentHandle@@@std@@@std@@U?$less@K@3@V?$allocator@Viterator@?$list@VAgentHandle@@V?$allocator@VAgentHandle@@@std@@@std@@@3@@2@U?$less@K@2@V?$allocator@Viterator@?$list@VAgentHandle@@V?$allocator@VAgentHandle@@@std@@@std@@@2@@std@@IAEPAU_Node@12@PAU312@D@Z 004a3bc0 f i AgentManager.obj
 0001:000a2bf0       ?make_pair@std@@YA?AU?$pair@VClassifier@@VAgentHandle@@@1@ABVClassifier@@ABVAgentHandle@@@Z 004a3bf0 f i AgentManager.obj
 0001:000a2c50       ?_Construct@std@@YAXPAUDeferredScript@AgentManager@@ABU23@@Z 004a3c50 f i AgentManager.obj
 0001:000a2cc0       ?_Construct@std@@YAXPAU?$pair@$$CBVClassifier@@VAgentHandle@@@1@ABU21@@Z 004a3cc0 f i AgentManager.obj
 0001:000a2d20       ??_G?$pair@$$CBVClassifier@@VAgentHandle@@@std@@QAEPAXI@Z 004a3d20 f i AgentManager.obj
 0001:000a2d50       ??0DeferredScript@AgentManager@@QAE@ABU01@@Z 004a3d50 f i AgentManager.obj
 0001:000a2dc0       ??_GDeferredScript@AgentManager@@QAEPAXI@Z 004a3dc0 f i AgentManager.obj
 0001:000a2df0       ?resize@?$vector@VAgentHandle@@V?$allocator@VAgentHandle@@@std@@@std@@QAEXIABVAgentHandle@@@Z 004a3df0 f i AgentManager.obj
 0001:000a30a0       ?CreateNewCameraPart@@YAPAVPersistentObject@@XZ 004a40a0 f   CameraPart.obj
 0001:000a3130       ?GetClassNameX@CameraPart@@UBEPBDXZ 004a4130 f   CameraPart.obj
 0001:000a3140       ??0CameraPart@@QAE@XZ      004a4140 f   CameraPart.obj
 0001:000a3160       ??_GCameraPart@@UAEPAXI@Z  004a4160 f i CameraPart.obj
 0001:000a3160       ??_ECameraPart@@UAEPAXI@Z  004a4160 f i CameraPart.obj
 0001:000a3190       ??1CameraPart@@UAE@XZ      004a4190 f   CameraPart.obj
 0001:000a31f0       ??0CameraPart@@QAE@ABVFilePath@@HHAAVVector2D@@HKKKK@Z 004a41f0 f   CameraPart.obj
 0001:000a32d0       ?Write@CameraPart@@UBE_NAAVCreaturesArchive@@@Z 004a42d0 f   CameraPart.obj
 0001:000a3300       ?Read@CameraPart@@UAE_NAAVCreaturesArchive@@@Z 004a4300 f   CameraPart.obj
 0001:000a3340       ?SussPosition@CameraPart@@UAEXABVVector2D@@@Z 004a4340 f   CameraPart.obj
 0001:000a3400       ?SussPlane@CameraPart@@UAEXH@Z 004a4400 f   CameraPart.obj
 0001:000a3430       ?GetCamera@CameraPart@@QAEPAVRemoteCamera@@XZ 004a4430 f   CameraPart.obj
 0001:000a34f0       ?CreateNewClassifier@@YAPAVPersistentObject@@XZ 004a44f0 f   Classifier.obj
 0001:000a3580       ?GetClassNameX@Classifier@@UBEPBDXZ 004a4580 f   Classifier.obj
 0001:000a3590       ??0Classifier@@QAE@XZ      004a4590 f   Classifier.obj
 0001:000a35b0       ??0Classifier@@QAE@KKKK@Z  004a45b0 f   Classifier.obj
 0001:000a35e0       ??0Classifier@@QAE@ABV0@@Z 004a45e0 f   Classifier.obj
 0001:000a3610       ?Write@Classifier@@UBE_NAAVCreaturesArchive@@@Z 004a4610 f   Classifier.obj
 0001:000a3650       ?Read@Classifier@@UAE_NAAVCreaturesArchive@@@Z 004a4650 f   Classifier.obj
 0001:000a36b0       ?SetEvent@Classifier@@QAEXG@Z 004a46b0 f   Classifier.obj
 0001:000a36d0       ??8Classifier@@QBE_NABV0@@Z 004a46d0 f   Classifier.obj
 0001:000a3710       ??MClassifier@@QBE_NABV0@@Z 004a4710 f   Classifier.obj
 0001:000a3780       ?GenericMatchForWildCard@Classifier@@QBEHABV1@HHHH@Z 004a4780 f   Classifier.obj
 0001:000a3820       ?StreamClassifier@Classifier@@QBEXAAV?$basic_ostream@DU?$char_traits@D@std@@@std@@_N@Z 004a4820 f   Classifier.obj
 0001:000a38c0       ?StreamAgentNameIfAvailable@Classifier@@QBEXAAV?$basic_ostream@DU?$char_traits@D@std@@@std@@@Z 004a48c0 f   Classifier.obj
 0001:000a3be0       ?CreateNewCompoundAgent@@YAPAVPersistentObject@@XZ 004a4be0 f   CompoundAgent.obj
 0001:000a3c70       ?GetClassNameX@CompoundAgent@@UBEPBDXZ 004a4c70 f   CompoundAgent.obj
 0001:000a3c80       ??5@YAAAVCreaturesArchive@@AAV0@AAPAVCompoundAgent@@@Z 004a4c80 f   CompoundAgent.obj
 0001:000a3ce0       ?ChangeCameraShyStatus@CompoundAgent@@UAEX_N@Z 004a4ce0 f   CompoundAgent.obj
 0001:000a3d20       ?AddPart@CompoundAgent@@QAE_NHPAVCompoundPart@@@Z 004a4d20 f   CompoundAgent.obj
 0001:000a3e00       ?DestroyPart@CompoundAgent@@QAEXH@Z 004a4e00 f   CompoundAgent.obj
 0001:000a4080       ?Trash@CompoundAgent@@UAEXXZ 004a5080 f   CompoundAgent.obj
 0001:000a4160       ?GetPart@CompoundAgent@@QAEPAVCompoundPart@@H@Z 004a5160 f   CompoundAgent.obj
 0001:000a41a0       ?GetIndex@CompoundAgent@@QAEHPAVCompoundPart@@@Z 004a51a0 f   CompoundAgent.obj
 0001:000a41e0       ?Init@CompoundAgent@@IAEXXZ 004a51e0 f   CompoundAgent.obj
 0001:000a41f0       ??0CompoundAgent@@QAE@XZ   004a51f0 f   CompoundAgent.obj
 0001:000a4260       ??_GCompoundAgent@@UAEPAXI@Z 004a5260 f i CompoundAgent.obj
 0001:000a4260       ??_ECompoundAgent@@UAEPAXI@Z 004a5260 f i CompoundAgent.obj
 0001:000a4290       ??0CompoundAgent@@QAE@HHHKABVFilePath@@HHH@Z 004a5290 f   CompoundAgent.obj
 0001:000a4570       ??1CompoundAgent@@UAE@XZ   004a5570 f   CompoundAgent.obj
 0001:000a45c0       ?MoveTo@CompoundAgent@@UAEXMM@Z 004a55c0 f   CompoundAgent.obj
 0001:000a4620       ?OwnUpdate@CompoundAgent@@QAEXXZ 004a5620 f   CompoundAgent.obj
 0001:000a4690       ?Update@CompoundAgent@@UAEXXZ 004a5690 f   CompoundAgent.obj
 0001:000a46b0       ?HandleUI@CompoundAgent@@UAEXPAVMessage@@@Z 004a56b0 f   CompoundAgent.obj
 0001:000a4700       ?HitTest@CompoundAgent@@UAE_NABVVector2D@@_N@Z 004a5700 f   CompoundAgent.obj
 0001:000a4800       ?Hide@CompoundAgent@@UAEXXZ 004a5800 f   CompoundAgent.obj
 0001:000a4830       ?Show@CompoundAgent@@UAEXXZ 004a5830 f   CompoundAgent.obj
 0001:000a4860       ?Visibility@CompoundAgent@@UAE_NH@Z 004a5860 f   CompoundAgent.obj
 0001:000a48b0       ?GetPrimaryEntity@CompoundAgent@@UAEPAVEntityImage@@XZ 004a58b0 f   CompoundAgent.obj
 0001:000a48c0       ?GetPlane@CompoundAgent@@UAEHH@Z 004a58c0 f   CompoundAgent.obj
 0001:000a4920       ?SetPlane@CompoundAgent@@UAEXHH@Z 004a5920 f   CompoundAgent.obj
 0001:000a49c0       ?ChangePhysicalPlane@CompoundAgent@@UAEXH@Z 004a59c0 f   CompoundAgent.obj
 0001:000a4a10       ?SetNormalPlane@CompoundAgent@@UAEXHH@Z 004a5a10 f   CompoundAgent.obj
 0001:000a4a50       ?ClickAction@CompoundAgent@@UAEHHH@Z 004a5a50 f   CompoundAgent.obj
 0001:000a4b40       ?SetAnim@CompoundAgent@@UAE_NPBEHH@Z 004a5b40 f   CompoundAgent.obj
 0001:000a4b80       ?SetFrameRate@CompoundAgent@@UAE_NEH@Z 004a5b80 f   CompoundAgent.obj
 0001:000a4bc0       ?AnimOver@CompoundAgent@@UAE_NH@Z 004a5bc0 f   CompoundAgent.obj
 0001:000a4c00       ?ValidatePart@CompoundAgent@@UAE_NH@Z 004a5c00 f   CompoundAgent.obj
 0001:000a4c40       ?ShowPose@CompoundAgent@@UAE_NHH@Z 004a5c40 f   CompoundAgent.obj
 0001:000a4cf0       ?GetPose@CompoundAgent@@UAEHH@Z 004a5cf0 f   CompoundAgent.obj
 0001:000a4d30       ?SetBaseImage@CompoundAgent@@UAE_NHH@Z 004a5d30 f   CompoundAgent.obj
 0001:000a4d70       ?GetBaseImage@CompoundAgent@@UAEHH@Z 004a5d70 f   CompoundAgent.obj
 0001:000a4db0       ?GetAbsoluteBase@CompoundAgent@@UAEHH@Z 004a5db0 f   CompoundAgent.obj
 0001:000a4df0       ?DrawLine@CompoundAgent@@UAEXJJJJEEEEEK@Z 004a5df0 f   CompoundAgent.obj
 0001:000a4e40       ?ResetLines@CompoundAgent@@UAEXXZ 004a5e40 f   CompoundAgent.obj
 0001:000a4e50       ?Write@CompoundAgent@@UBE_NAAVCreaturesArchive@@@Z 004a5e50 f   CompoundAgent.obj
 0001:000a4ed0       ?Read@CompoundAgent@@UAE_NAAVCreaturesArchive@@@Z 004a5ed0 f   CompoundAgent.obj
 0001:000a5040       ?SetPixelPerfectTesting@CompoundAgent@@UAE_N_NH@Z 004a6040 f   CompoundAgent.obj
 0001:000a5080       ?SetGallery@CompoundAgent@@UAEXABVFilePath@@HH@Z 004a6080 f   CompoundAgent.obj
 0001:000a51c0       ?GetGallery@CompoundAgent@@UAEXAAV?$basic_string@DU?$char_traits@D@std@@V?$allocator@D@2@@std@@H@Z 004a61c0 f   CompoundAgent.obj
 0001:000a5390       ?Tint@CompoundAgent@@UAEXPBGH_N@Z 004a6390 f   CompoundAgent.obj
 0001:000a53e0       ?UnClone@CompoundAgent@@UAEXH@Z 004a63e0 f   CompoundAgent.obj
 0001:000a5430       ?DrawMirrored@CompoundAgent@@UAEX_N@Z 004a6430 f   CompoundAgent.obj
 0001:000a5480       ?Scale@CompoundAgent@@UAEXM_N@Z 004a6480 f   CompoundAgent.obj
 0001:000a54d0       ?DrawAlphaBlended@CompoundAgent@@UAEXH_NH@Z 004a64d0 f   CompoundAgent.obj
 0001:000a5550       ?DrawShadowed@CompoundAgent@@UAEXHHH_N@Z 004a6550 f   CompoundAgent.obj
 0001:000a55b0       ?DrawToNewWidthAndHeight@CompoundAgent@@UAEXHH_N@Z 004a65b0 f   CompoundAgent.obj
 0001:000a5600       ?NextPart@CompoundAgent@@QAEHH@Z 004a6600 f   CompoundAgent.obj
 0001:000a5660       ?MovePart@CompoundAgent@@QAEXHVVector2D@@@Z 004a6660 f   CompoundAgent.obj
 0001:000a56b0       ?GetPartOver@CompoundAgent@@UAEHABVVector2D@@@Z 004a66b0 f   CompoundAgent.obj
 0001:000a5780       ?erase@?$vector@JV?$allocator@J@std@@@std@@QAEPAJPAJ0@Z 004a6780 f i CompoundAgent.obj
 0001:000a5780       ?erase@?$vector@PAVInputPort@@V?$allocator@PAVInputPort@@@std@@@std@@QAEPAPAVInputPort@@PAPAV3@0@Z 004a6780 f i CompoundAgent.obj
 0001:000a5780       ?erase@?$vector@HV?$allocator@H@std@@@std@@QAEPAHPAH0@Z 004a6780 f i CompoundAgent.obj
 0001:000a5780       ?erase@?$vector@PAUDendrite@@V?$allocator@PAUDendrite@@@std@@@std@@QAEPAPAUDendrite@@PAPAU3@0@Z 004a6780 f i CompoundAgent.obj
 0001:000a5780       ?erase@?$vector@KV?$allocator@K@std@@@std@@QAEPAKPAK0@Z 004a6780 f i CompoundAgent.obj
 0001:000a5780       ?erase@?$vector@PAVCompoundPart@@V?$allocator@PAVCompoundPart@@@std@@@std@@QAEPAPAVCompoundPart@@PAPAV3@0@Z 004a6780 f i CompoundAgent.obj
 0001:000a5780       ?erase@?$vector@PAUReceptor@@V?$allocator@PAUReceptor@@@std@@@std@@QAEPAPAUReceptor@@PAPAU3@0@Z 004a6780 f i CompoundAgent.obj
 0001:000a5780       ?erase@?$vector@PAUNeuron@@V?$allocator@PAUNeuron@@@std@@@std@@QAEPAPAUNeuron@@PAPAU3@0@Z 004a6780 f i CompoundAgent.obj
 0001:000a5780       ?erase@?$vector@PAVOutputPort@@V?$allocator@PAVOutputPort@@@std@@@std@@QAEPAPAVOutputPort@@PAPAV3@0@Z 004a6780 f i CompoundAgent.obj
 0001:000a5780       ?erase@?$vector@MV?$allocator@M@std@@@std@@QAEPAMPAM0@Z 004a6780 f i CompoundAgent.obj
 0001:000a5780       ?erase@?$vector@PAEV?$allocator@PAE@std@@@std@@QAEPAPAEPAPAE0@Z 004a6780 f i CompoundAgent.obj
 0001:000a5780       ?erase@?$vector@PAVLine@@V?$allocator@PAVLine@@@std@@@std@@QAEPAPAVLine@@PAPAV3@0@Z 004a6780 f i CompoundAgent.obj
 0001:000a58a0       ?CreateNewCompoundPart@@YAPAVPersistentObject@@XZ 004a68a0 f   CompoundPart.obj
 0001:000a5930       ?GetClassNameX@CompoundPart@@UBEPBDXZ 004a6930 f   CompoundPart.obj
 0001:000a5940       ??5@YAAAVCreaturesArchive@@AAV0@AAPAVCompoundPart@@@Z 004a6940 f   CompoundPart.obj
 0001:000a59a0       ??0CompoundPart@@QAE@XZ    004a69a0 f   CompoundPart.obj
 0001:000a59d0       ?SussPosition@CompoundPart@@UAEXABVVector2D@@@Z 004a69d0 f i CompoundPart.obj
 0001:000a5a40       ?SussPlane@CompoundPart@@UAEXH@Z 004a6a40 f i CompoundPart.obj
 0001:000a5a60       ??_ECompoundPart@@UAEPAXI@Z 004a6a60 f i CompoundPart.obj
 0001:000a5a60       ??_GCompoundPart@@UAEPAXI@Z 004a6a60 f i CompoundPart.obj
 0001:000a5a90       ??0CompoundPart@@QAE@ABVFilePath@@HAAVVector2D@@HH@Z 004a6a90 f   CompoundPart.obj
 0001:000a5b50       ??1CompoundPart@@UAE@XZ    004a6b50 f   CompoundPart.obj
 0001:000a5bb0       ?Tick@CompoundPart@@UAEXXZ 004a6bb0 f   CompoundPart.obj
 0001:000a5bc0       ?Write@CompoundPart@@UBE_NAAVCreaturesArchive@@@Z 004a6bc0 f   CompoundPart.obj
 0001:000a5c20       ?Read@CompoundPart@@UAE_NAAVCreaturesArchive@@@Z 004a6c20 f   CompoundPart.obj
 0001:000a5cb0       ?SetAnim@CompoundPart@@UAE_NPBEH@Z 004a6cb0 f   CompoundPart.obj
 0001:000a5cf0       ?SetFrameRate@CompoundPart@@UAE_NE@Z 004a6cf0 f   CompoundPart.obj
 0001:000a5d10       ?DrawLine@CompoundPart@@UAEXJJJJEEEEEK@Z 004a6d10 f   CompoundPart.obj
 0001:000a5d50       ?ResetLines@CompoundPart@@UAEXXZ 004a6d50 f   CompoundPart.obj
 0001:000a5d60       ?Show@CompoundPart@@QAEXXZ 004a6d60 f   CompoundPart.obj
 0001:000a5d70       ?Hide@CompoundPart@@QAEXXZ 004a6d70 f   CompoundPart.obj
 0001:000a5d80       ?Visibility@CompoundPart@@QAE_NH@Z 004a6d80 f   CompoundPart.obj
 0001:000a5da0       ?ChangeCameraShyStatus@CompoundPart@@UAEX_N@Z 004a6da0 f   CompoundPart.obj
 0001:000a5dc0       ?Tint@CompoundPart@@UAEXPBG_N@Z 004a6dc0 f   CompoundPart.obj
 0001:000a5f30       ?GetFilePath@EntityImage@@QAE?AVFilePath@@XZ 004a6f30 f i CompoundPart.obj
 0001:000a6090       ?UnClone@CompoundPart@@QAEXXZ 004a7090 f   CompoundPart.obj
 0001:000a6170       ?GetX@Position@@QBEJXZ     004a7170 f i CompoundPart.obj
 0001:000a6180       ?GetPlane@EntityImage@@QBEJXZ 004a7180 f i CompoundPart.obj
 0001:000a6180       ?GetUnvalidatedOutStream@CAOSMachine@@QAEPAV?$basic_ostream@DU?$char_traits@D@std@@@std@@XZ 004a7180 f i CompoundPart.obj
 0001:000a6180       ?GetY@Position@@QBEJXZ     004a7180 f i CompoundPart.obj
 0001:000a6190       ?GetPosition@EntityImage@@QAEAAVPosition@@XZ 004a7190 f i CompoundPart.obj
 0001:000a61a0       ?DrawMirrored@CompoundPart@@QAEX_N@Z 004a71a0 f   CompoundPart.obj
 0001:000a61c0       ?DrawAlphaBlended@CompoundPart@@UAEX_NH@Z 004a71c0 f   CompoundPart.obj
 0001:000a62c0       ?CreateNewInputPort@@YAPAVPersistentObject@@XZ 004a72c0 f   InputPort.obj
 0001:000a6340       ??_EInputPort@@UAEPAXI@Z   004a7340 f i InputPort.obj
 0001:000a6340       ??_GInputPort@@UAEPAXI@Z   004a7340 f i InputPort.obj
 0001:000a63a0       ?GetClassNameX@InputPort@@UBEPBDXZ 004a73a0 f   InputPort.obj
 0001:000a63b0       ??5@YAAAVCreaturesArchive@@AAV0@AAPAVInputPort@@@Z 004a73b0 f   InputPort.obj
 0001:000a6410       ??0InputPort@@QAE@AAVAgentHandle@@PBD1ABVVector2D@@H@Z 004a7410 f   InputPort.obj
 0001:000a6540       ??1InputPort@@UAE@XZ       004a7540 f   InputPort.obj
 0001:000a6600       ??1Port@@UAE@XZ            004a7600 f i InputPort.obj
 0001:000a66b0       ??_EPort@@UAEPAXI@Z        004a76b0 f i InputPort.obj
 0001:000a66b0       ??_GPort@@UAEPAXI@Z        004a76b0 f i InputPort.obj
 0001:000a66e0       ?ConnectToOutputPort@InputPort@@QAEXPAVOutputPort@@@Z 004a76e0 f   InputPort.obj
 0001:000a6750       ?DisconnectFromOutputPort@InputPort@@QAEXXZ 004a7750 f   InputPort.obj
 0001:000a6770       ?Write@InputPort@@UBE_NAAVCreaturesArchive@@@Z 004a7770 f   InputPort.obj
 0001:000a67c0       ?Read@InputPort@@UAE_NAAVCreaturesArchive@@@Z 004a77c0 f   InputPort.obj
 0001:000a73e0       ?WriteMessage@MessageQueue@@QAEXABVAgentHandle@@0HABVCAOSVar@@1I@Z 004a83e0 f   MessageQueue.obj
 0001:000a7630       ??1Message@@QAE@XZ         004a8630 f i MessageQueue.obj
 0001:000a7780       ?RemoveMessagesAbout@MessageQueue@@QAEXAAVAgentHandle@@@Z 004a8780 f   MessageQueue.obj
 0001:000a7b80       ?GetTo@Message@@QBE?AVAgentHandle@@XZ 004a8b80 f i MessageQueue.obj
 0001:000a7bb0       ??1RefersToAgent@@QAE@XZ   004a8bb0 f i MessageQueue.obj
 0001:000a7bc0       ??1?$multiset@VMessage@@UCompareMessageTimes@@V?$allocator@VMessage@@@std@@@std@@QAE@XZ 004a8bc0 f i MessageQueue.obj
 0001:000a7c90       ?ReadMessage@MessageQueue@@QAE_NAAVMessage@@@Z 004a8c90 f   MessageQueue.obj
 0001:000a7db0       ??6@YAAAVCreaturesArchive@@AAV0@ABVMessage@@@Z 004a8db0 f   MessageQueue.obj
 0001:000a7e20       ??5@YAAAVCreaturesArchive@@AAV0@AAVMessage@@@Z 004a8e20 f   MessageQueue.obj
 0001:000a7ef0       ??6@YAAAVCreaturesArchive@@AAV0@ABVMessageQueue@@@Z 004a8ef0 f   MessageQueue.obj
 0001:000a7fd0       ??5@YAAAVCreaturesArchive@@AAV0@AAVMessageQueue@@@Z 004a8fd0 f   MessageQueue.obj
 0001:000a8000       ??1?$deque@VMessage@@V?$allocator@VMessage@@@std@@@std@@QAE@XZ 004a9000 f i MessageQueue.obj
 0001:000a80e0       ?pop_front@?$deque@VMessage@@V?$allocator@VMessage@@@std@@@std@@QAEXXZ 004a90e0 f i MessageQueue.obj
 0001:000a81b0       ??1?$_Tree@VMessage@@V1@U_Kfn@?$multiset@VMessage@@UCompareMessageTimes@@V?$allocator@VMessage@@@std@@@std@@UCompareMessageTimes@@V?$allocator@VMessage@@@4@@std@@QAE@XZ 004a91b0 f i MessageQueue.obj
 0001:000a8270       ?_Buyback@?$deque@VMessage@@V?$allocator@VMessage@@@std@@@std@@IAEXXZ 004a9270 f i MessageQueue.obj
 0001:000a8470       ?_Popfront@?$deque@VMessage@@V?$allocator@VMessage@@@std@@@std@@IAEXXZ 004a9470 f i MessageQueue.obj
 0001:000a8530       ??Eiterator@?$deque@VMessage@@V?$allocator@VMessage@@@std@@@std@@QAEAAV012@XZ 004a9530 f i MessageQueue.obj
 0001:000a8570       ??Giterator@?$deque@VMessage@@V?$allocator@VMessage@@@std@@@std@@QBE?AV012@H@Z 004a9570 f i MessageQueue.obj
 0001:000a8620       ??0?$_Tree@VMessage@@V1@U_Kfn@?$multiset@VMessage@@UCompareMessageTimes@@V?$allocator@VMessage@@@std@@@std@@UCompareMessageTimes@@V?$allocator@VMessage@@@4@@std@@QAE@ABUCompareMessageTimes@@_NABV?$allocator@VMessage@@@1@@Z 004a9620 f i MessageQueue.obj
 0001:000a8690       ?insert@?$_Tree@VMessage@@V1@U_Kfn@?$multiset@VMessage@@UCompareMessageTimes@@V?$allocator@VMessage@@@std@@@std@@UCompareMessageTimes@@V?$allocator@VMessage@@@4@@std@@QAE?AU?$pair@Viterator@?$_Tree@VMessage@@V1@U_Kfn@?$multiset@VMessage@@UCompareMessageTimes@@V?$allocator@VMessage@@@std@@@std@@UCompareMessageTimes@@V?$allocator@VMessage@@@4@@std@@_N@2@ABVMessage@@@Z 004a9690 f i MessageQueue.obj
 0001:000a88e0       ?erase@?$_Tree@VMessage@@V1@U_Kfn@?$multiset@VMessage@@UCompareMessageTimes@@V?$allocator@VMessage@@@std@@@std@@UCompareMessageTimes@@V?$allocator@VMessage@@@4@@std@@QAE?AViterator@12@V312@@Z 004a98e0 f i MessageQueue.obj
 0001:000a8cb0       ?swap@?$_Tree@VMessage@@V1@U_Kfn@?$multiset@VMessage@@UCompareMessageTimes@@V?$allocator@VMessage@@@std@@@std@@UCompareMessageTimes@@V?$allocator@VMessage@@@4@@std@@QAEXAAV12@@Z 004a9cb0 f i MessageQueue.obj
 0001:000a8d00       ?_Erase@?$_Tree@VMessage@@V1@U_Kfn@?$multiset@VMessage@@UCompareMessageTimes@@V?$allocator@VMessage@@@std@@@std@@UCompareMessageTimes@@V?$allocator@VMessage@@@4@@std@@IAEXPAU_Node@12@@Z 004a9d00 f i MessageQueue.obj
 0001:000a8d50       ?_Insert@?$_Tree@VMessage@@V1@U_Kfn@?$multiset@VMessage@@UCompareMessageTimes@@V?$allocator@VMessage@@@std@@@std@@UCompareMessageTimes@@V?$allocator@VMessage@@@4@@std@@IAE?AViterator@12@PAU_Node@12@0ABVMessage@@@Z 004a9d50 f i MessageQueue.obj
 0001:000a8f90       ?_Inc@iterator@?$_Tree@VMessage@@V1@U_Kfn@?$multiset@VMessage@@UCompareMessageTimes@@V?$allocator@VMessage@@@std@@@std@@UCompareMessageTimes@@V?$allocator@VMessage@@@4@@std@@QAEXXZ 004a9f90 f i MessageQueue.obj
 0001:000a8f90       ?_Inc@iterator@?$_Tree@VImmutableVariables@QuickFsp@@U?$pair@$$CBVImmutableVariables@QuickFsp@@VFspCache@2@@std@@U_Kfn@?$map@VImmutableVariables@QuickFsp@@VFspCache@2@U?$less@VImmutableVariables@QuickFsp@@@std@@V?$allocator@VFspCache@QuickFsp@@@5@@4@U?$less@VImmutableVariables@QuickFsp@@@4@V?$allocator@VFspCache@QuickFsp@@@4@@std@@QAEXXZ 004a9f90 f i MessageQueue.obj
 0001:000a8fe0       ?_Buynode@?$_Tree@VMessage@@V1@U_Kfn@?$multiset@VMessage@@UCompareMessageTimes@@V?$allocator@VMessage@@@std@@@std@@UCompareMessageTimes@@V?$allocator@VMessage@@@4@@std@@IAEPAU_Node@12@PAU312@D@Z 004a9fe0 f i MessageQueue.obj
 0001:000a8fe0       ?_Buynode@?$_Tree@VImmutableVariables@QuickFsp@@U?$pair@$$CBVImmutableVariables@QuickFsp@@VFspCache@2@@std@@U_Kfn@?$map@VImmutableVariables@QuickFsp@@VFspCache@2@U?$less@VImmutableVariables@QuickFsp@@@std@@V?$allocator@VFspCache@QuickFsp@@@5@@4@U?$less@VImmutableVariables@QuickFsp@@@4@V?$allocator@VFspCache@QuickFsp@@@4@@std@@IAEPAU_Node@12@PAU312@D@Z 004a9fe0 f i MessageQueue.obj
 0001:000a9010       ?_Add@iterator@?$deque@VMessage@@V?$allocator@VMessage@@@std@@@std@@IAEXH@Z 004aa010 f i MessageQueue.obj
 0001:000a90c0       ??5@YAAAVCreaturesArchive@@AAV0@AAV?$multiset@VMessage@@UCompareMessageTimes@@V?$allocator@VMessage@@@std@@@std@@@Z 004aa0c0 f i MessageQueue.obj
 0001:000a9280       ??5@YAAAVCreaturesArchive@@AAV0@AAV?$deque@VMessage@@V?$allocator@VMessage@@@std@@@std@@@Z 004aa280 f i MessageQueue.obj
 0001:000a9480       ?_Construct@std@@YAXPAVMessage@@ABV2@@Z 004aa480 f i MessageQueue.obj
 0001:000a9510       ??_GMessage@@QAEPAXI@Z     004aa510 f i MessageQueue.obj
 0001:000a95f0       ?CreateNewOutputPort@@YAPAVPersistentObject@@XZ 004aa5f0 f   OutputPort.obj
 0001:000a96c0       ??_EOutputPort@@UAEPAXI@Z  004aa6c0 f i OutputPort.obj
 0001:000a96c0       ??_GOutputPort@@UAEPAXI@Z  004aa6c0 f i OutputPort.obj
 0001:000a9720       ?GetClassNameX@OutputPort@@UBEPBDXZ 004aa720 f   OutputPort.obj
 0001:000a9730       ??5@YAAAVCreaturesArchive@@AAV0@AAPAVOutputPort@@@Z 004aa730 f   OutputPort.obj
 0001:000a9790       ??0OutputPort@@QAE@AAVAgentHandle@@PBD1ABVVector2D@@@Z 004aa790 f   OutputPort.obj
 0001:000a98b0       ??1OutputPort@@UAE@XZ      004aa8b0 f   OutputPort.obj
 0001:000a99b0       ?RemoveListener@OutputPort@@QAEXPAVInputPort@@@Z 004aa9b0 f   OutputPort.obj
 0001:000a9a00       ?Signal@OutputPort@@QAEXAAVCAOSVar@@@Z 004aaa00 f   OutputPort.obj
 0001:000a9b00       ?KillAllConnections@OutputPort@@QAEXXZ 004aab00 f   OutputPort.obj
 0001:000a9b20       ?Write@OutputPort@@UBE_NAAVCreaturesArchive@@@Z 004aab20 f   OutputPort.obj
 0001:000a9b70       ?Read@OutputPort@@UAE_NAAVCreaturesArchive@@@Z 004aab70 f   OutputPort.obj
 0001:000a9d50       ?CreateNewPointerAgent@@YAPAVPersistentObject@@XZ 004aad50 f   PointerAgent.obj
 0001:000a9de0       ?GetClassNameX@PointerAgent@@UBEPBDXZ 004aade0 f   PointerAgent.obj
 0001:000a9df0       ?GetPlaneForCarriedAgent@PointerAgent@@UAEJXZ 004aadf0 f   PointerAgent.obj
 0001:000a9e10       ?Tint@PointerAgent@@UAEXPBGH_N@Z 004aae10 f   PointerAgent.obj
 0001:000a9f00       ?CreateClonedEntityImage@PointerAgent@@UAE_N_N@Z 004aaf00 f   PointerAgent.obj
 0001:000aa070       ?UnClone@PointerAgent@@UAEXH@Z 004ab070 f   PointerAgent.obj
 0001:000aa1c0       ??0PointerAgent@@QAE@HHHKABVFilePath@@HH@Z 004ab1c0 f   PointerAgent.obj
 0001:000aa490       ??_GPointerAgent@@UAEPAXI@Z 004ab490 f i PointerAgent.obj
 0001:000aa490       ??_EPointerAgent@@UAEPAXI@Z 004ab490 f i PointerAgent.obj
 0001:000aa4c0       ??0PointerAgent@@QAE@XZ    004ab4c0 f   PointerAgent.obj
 0001:000aa5d0       ??1PointerAgent@@UAE@XZ    004ab5d0 f   PointerAgent.obj
 0001:000aa680       ?Trash@PointerAgent@@UAEXXZ 004ab680 f   PointerAgent.obj
 0001:000aa6b0       ?StartHoldingHandsWithSkeletalCreature@PointerAgent@@QAEXAAVAgentHandle@@@Z 004ab6b0 f   PointerAgent.obj
 0001:000aa720       ?StopHoldingHandsWithSkeletalCreature@PointerAgent@@QAEXXZ 004ab720 f   PointerAgent.obj
 0001:000aa7a0       ?HoldHandsWithSkeletalCreature@PointerAgent@@QAEXXZ 004ab7a0 f   PointerAgent.obj
 0001:000aa810       ?Update@PointerAgent@@UAEXXZ 004ab810 f   PointerAgent.obj
 0001:000aaed0       ?ScanInputEvents@PointerAgent@@AAEXXZ 004abed0 f   PointerAgent.obj
 0001:000ac010       ?Find@PointerAgent@@QAE?AVAgentHandle@@XZ 004ad010 f   PointerAgent.obj
 0001:000ac070       ?FindSkeletalCreature@PointerAgent@@QAE?AVAgentHandle@@XZ 004ad070 f   PointerAgent.obj
 0001:000ac130       ?Write@PointerAgent@@UBE_NAAVCreaturesArchive@@@Z 004ad130 f   PointerAgent.obj
 0001:000ac200       ?Read@PointerAgent@@UAE_NAAVCreaturesArchive@@@Z 004ad200 f   PointerAgent.obj
 0001:000ac330       ?CameraPositionNotify@PointerAgent@@UAEXXZ 004ad330 f   PointerAgent.obj
 0001:000ac3c0       ?DefineMouseClicks@PointerAgent@@QAEXH@Z 004ad3c0 f   PointerAgent.obj
 0001:000ac3d0       ?SetScanInputEvents@PointerAgent@@QAEX_N@Z 004ad3d0 f   PointerAgent.obj
 0001:000ac3e0       ?GetScanInputEvents@PointerAgent@@QAE_NXZ 004ad3e0 f   PointerAgent.obj
 0001:000ac3f0       ?DecideIfCarriedAgentShouldBeDropped@PointerAgent@@QAEXXZ 004ad3f0 f   PointerAgent.obj
 0001:000ac480       ?SetName@PointerAgent@@QAEXV?$basic_string@DU?$char_traits@D@std@@V?$allocator@D@2@@std@@@Z 004ad480 f   PointerAgent.obj
 0001:000ac6b0       ?MoveTo@PointerAgent@@UAEXMM@Z 004ad6b0 f   PointerAgent.obj
 0001:000ac810       ?CreateNewPort@@YAPAVPersistentObject@@XZ 004ad810 f   Port.obj
 0001:000ac8c0       ?GetClassNameX@Port@@UBEPBDXZ 004ad8c0 f   Port.obj
 0001:000ac8d0       ??5@YAAAVCreaturesArchive@@AAV0@AAPAVPort@@@Z 004ad8d0 f   Port.obj
 0001:000ac930       ?GetWorldPosition@Port@@QBE?AVVector2D@@XZ 004ad930 f   Port.obj
 0001:000ac980       ?Write@Port@@UBE_NAAVCreaturesArchive@@@Z 004ad980 f   Port.obj
 0001:000ac9c0       ?Read@Port@@UAE_NAAVCreaturesArchive@@@Z 004ad9c0 f   Port.obj
 0001:000acad0       ?CreateNewPortBundle@@YAPAVPersistentObject@@XZ 004adad0 f   PortBundle.obj
 0001:000acb60       ?GetClassNameX@PortBundle@@UBEPBDXZ 004adb60 f   PortBundle.obj
 0001:000acb70       ??0PortBundle@@QAE@XZ      004adb70 f   PortBundle.obj
 0001:000acbf0       ??_GPortBundle@@UAEPAXI@Z  004adbf0 f i PortBundle.obj
 0001:000acbf0       ??_EPortBundle@@UAEPAXI@Z  004adbf0 f i PortBundle.obj
 0001:000acc20       ??1PortBundle@@UAE@XZ      004adc20 f   PortBundle.obj
 0001:000acce0       ?Init@PortBundle@@QAEXAAVAgentHandle@@@Z 004adce0 f   PortBundle.obj
 0001:000acd00       ?GetOutputPort@PortBundle@@QAEPAVOutputPort@@H@Z 004add00 f   PortBundle.obj
 0001:000acd30       ?GetInputPort@PortBundle@@QAEPAVInputPort@@H@Z 004add30 f   PortBundle.obj
 0001:000acd60       ?CreateInputPort@PortBundle@@QAEXHPBD0ABVVector2D@@H@Z 004add60 f   PortBundle.obj
 0001:000ace30       ?CreateOutputPort@PortBundle@@QAEXHPBD0ABVVector2D@@@Z 004ade30 f   PortBundle.obj
 0001:000acf00       ?ZapInputPort@PortBundle@@QAEXH@Z 004adf00 f   PortBundle.obj
 0001:000acf70       ?ZapOutputPort@PortBundle@@QAEXH@Z 004adf70 f   PortBundle.obj
 0001:000acfe0       ?Write@PortBundle@@UBE_NAAVCreaturesArchive@@@Z 004adfe0 f   PortBundle.obj
 0001:000ad070       ?Read@PortBundle@@UAE_NAAVCreaturesArchive@@@Z 004ae070 f   PortBundle.obj
 0001:000ad2c0       ?KillAllConnections@PortBundle@@QAEXXZ 004ae2c0 f   PortBundle.obj
 0001:000ad330       ?Trash@PortBundle@@QAEXXZ  004ae330 f   PortBundle.obj
 0001:000ad770       ??1?$multimap@V?$basic_string@DU?$char_traits@D@std@@V?$allocator@D@2@@std@@V12@U?$less@V?$basic_string@DU?$char_traits@D@std@@V?$allocator@D@2@@std@@@2@V?$allocator@V?$basic_string@DU?$char_traits@D@std@@V?$allocator@D@2@@std@@@2@@std@@QAE@XZ 004ae770 f i QuoteFactory.obj
 0001:000ad840       ?fillMap@@YAHXZ            004ae840 f   QuoteFactory.obj
 0001:000b20e0       ?ConvertDullText@@YAXAAV?$basic_string@DU?$char_traits@D@std@@V?$allocator@D@2@@std@@@Z 004b30e0 f   QuoteFactory.obj
 0001:000b2440       ??0?$multimap@V?$basic_string@DU?$char_traits@D@std@@V?$allocator@D@2@@std@@V12@U?$less@V?$basic_string@DU?$char_traits@D@std@@V?$allocator@D@2@@std@@@2@V?$allocator@V?$basic_string@DU?$char_traits@D@std@@V?$allocator@D@2@@std@@@2@@std@@QAE@ABU?$less@V?$basic_string@DU?$char_traits@D@std@@V?$allocator@D@2@@std@@@1@ABV?$allocator@V?$basic_string@DU?$char_traits@D@std@@V?$allocator@D@2@@std@@@1@@Z 004b3440 f i QuoteFactory.obj
 0001:000b24b0       ?insert@?$multimap@V?$basic_string@DU?$char_traits@D@std@@V?$allocator@D@2@@std@@V12@U?$less@V?$basic_string@DU?$char_traits@D@std@@V?$allocator@D@2@@std@@@2@V?$allocator@V?$basic_string@DU?$char_traits@D@std@@V?$allocator@D@2@@std@@@2@@std@@QAE?AViterator@?$_Tree@V?$basic_string@DU?$char_traits@D@std@@V?$allocator@D@2@@std@@U?$pair@$$CBV?$basic_string@DU?$char_traits@D@std@@V?$allocator@D@2@@std@@V12@@2@U_Kfn@?$multimap@V?$basic_string@DU?$char_traits@D@std@@V?$allocator@D@2@@std@@V12@U?$less@V?$basic_string@DU?$char_traits@D@std@@V?$allocator@D@2@@std@@@2@V?$allocator@V?$basic_string@DU?$char_traits@D@std@@V?$allocator@D@2@@std@@@2@@2@U?$less@V?$basic_string@DU?$char_traits@D@std@@V?$allocator@D@2@@std@@@2@V?$allocator@V?$basic_string@DU?$char_traits@D@std@@V?$allocator@D@2@@std@@@2@@2@ABU?$pair@$$CBV?$basic_string@DU?$char_traits@D@std@@V?$allocator@D@2@@std@@V12@@2@@Z 004b34b0 f i QuoteFactory.obj
 0001:000b25d0       ?begin@?$list@PAVDoor@@V?$allocator@PAVDoor@@@std@@@std@@QAE?AViterator@12@XZ 004b35d0 f i QuoteFactory.obj
 0001:000b25d0       ?begin@?$list@V?$basic_string@DU?$char_traits@D@std@@V?$allocator@D@2@@std@@V?$allocator@V?$basic_string@DU?$char_traits@D@std@@V?$allocator@D@2@@std@@@2@@std@@QAE?AViterator@12@XZ 004b35d0 f i QuoteFactory.obj
 0001:000b25d0       ?begin@?$_Tree@PAVGallery@@U?$pair@QAVGallery@@V?$basic_string@DU?$char_traits@D@std@@V?$allocator@D@2@@std@@@std@@U_Kfn@?$map@PAVGallery@@V?$basic_string@DU?$char_traits@D@std@@V?$allocator@D@2@@std@@U?$less@PAVGallery@@@3@V?$allocator@V?$basic_string@DU?$char_traits@D@std@@V?$allocator@D@2@@std@@@3@@3@U?$less@PAVGallery@@@3@V?$allocator@V?$basic_string@DU?$char_traits@D@std@@V?$allocator@D@2@@std@@@3@@std@@QAE?AViterator@12@XZ 004b35d0 f i QuoteFactory.obj
 0001:000b25d0       ?begin@?$list@PAVDoor@@V?$allocator@PAVDoor@@@std@@@std@@QBE?AVconst_iterator@12@XZ 004b35d0 f i QuoteFactory.obj
 0001:000b25d0       ?begin@?$_Tree@KU?$pair@$$CBKViterator@?$list@VAgentHandle@@V?$allocator@VAgentHandle@@@std@@@std@@@std@@U_Kfn@?$map@KViterator@?$list@VAgentHandle@@V?$allocator@VAgentHandle@@@std@@@std@@U?$less@K@3@V?$allocator@Viterator@?$list@VAgentHandle@@V?$allocator@VAgentHandle@@@std@@@std@@@3@@2@U?$less@K@2@V?$allocator@Viterator@?$list@VAgentHandle@@V?$allocator@VAgentHandle@@@std@@@std@@@2@@std@@QAE?AViterator@12@XZ 004b35d0 f i QuoteFactory.obj
 0001:000b25d0       ?begin@?$_Tree@V?$basic_string@DU?$char_traits@D@std@@V?$allocator@D@2@@std@@U?$pair@$$CBV?$basic_string@DU?$char_traits@D@std@@V?$allocator@D@2@@std@@H@2@U_Kfn@?$map@V?$basic_string@DU?$char_traits@D@std@@V?$allocator@D@2@@std@@HU?$less@V?$basic_string@DU?$char_traits@D@std@@V?$allocator@D@2@@std@@@2@V?$allocator@H@2@@2@U?$less@V?$basic_string@DU?$char_traits@D@std@@V?$allocator@D@2@@std@@@2@V?$allocator@H@2@@std@@QAE?AViterator@12@XZ 004b35d0 f i QuoteFactory.obj
 0001:000b25d0       ?begin@?$_Tree@PBMU?$pair@QBMJ@std@@U_Kfn@?$map@PBMJU?$less@PBM@std@@V?$allocator@J@2@@2@U?$less@PBM@2@V?$allocator@J@2@@std@@QAE?AViterator@12@XZ 004b35d0 f i QuoteFactory.obj
 0001:000b25d0       ?begin@?$list@HV?$allocator@H@std@@@std@@QAE?AViterator@12@XZ 004b35d0 f i QuoteFactory.obj
 0001:000b25d0       ?begin@?$_Tree@U?$pair@HH@std@@U?$pair@$$CBU?$pair@HH@std@@_N@2@U_Kfn@?$map@U?$pair@HH@std@@_NU?$less@U?$pair@HH@std@@@2@V?$allocator@_N@2@@2@U?$less@U?$pair@HH@std@@@2@V?$allocator@_N@2@@std@@QAE?AViterator@12@XZ 004b35d0 f i QuoteFactory.obj
 0001:000b25d0       ?begin@?$_Tree@KU?$pair@$$CBKV?$list@PAVDrawableObject@@V?$allocator@PAVDrawableObject@@@std@@@std@@@std@@U_Kfn@?$map@KV?$list@PAVDrawableObject@@V?$allocator@PAVDrawableObject@@@std@@@std@@U?$less@K@2@V?$allocator@V?$list@PAVDrawableObject@@V?$allocator@PAVDrawableObject@@@std@@@std@@@2@@2@U?$less@K@2@V?$allocator@V?$list@PAVDrawableObject@@V?$allocator@PAVDrawableObject@@@std@@@std@@@2@@std@@QAE?AViterator@12@XZ 004b35d0 f i QuoteFactory.obj
 0001:000b25d0       ?begin@?$_Tree@UBuildFspParams@@U?$pair@$$CBUBuildFspParams@@V?$basic_string@DU?$char_traits@D@std@@V?$allocator@D@2@@std@@@std@@U_Kfn@?$map@UBuildFspParams@@V?$basic_string@DU?$char_traits@D@std@@V?$allocator@D@2@@std@@U?$less@UBuildFspParams@@@3@V?$allocator@V?$basic_string@DU?$char_traits@D@std@@V?$allocator@D@2@@std@@@3@@3@U?$less@UBuildFspParams@@@3@V?$allocator@V?$basic_string@DU?$char_traits@D@std@@V?$allocator@D@2@@std@@@3@@std@@QAE?AViterator@12@XZ 004b35d0 f i QuoteFactory.obj
 0001:000b25d0       ?begin@?$_Tree@V?$basic_string@DU?$char_traits@D@std@@V?$allocator@D@2@@std@@U?$pair@$$CBV?$basic_string@DU?$char_traits@D@std@@V?$allocator@D@2@@std@@VCAOSVar@@@2@U_Kfn@?$map@V?$basic_string@DU?$char_traits@D@std@@V?$allocator@D@2@@std@@VCAOSVar@@U?$less@V?$basic_string@DU?$char_traits@D@std@@V?$allocator@D@2@@std@@@2@V?$allocator@VCAOSVar@@@2@@2@U?$less@V?$basic_string@DU?$char_traits@D@std@@V?$allocator@D@2@@std@@@2@V?$allocator@VCAOSVar@@@2@@std@@QAE?AViterator@12@XZ 004b35d0 f i QuoteFactory.obj
 0001:000b25d0       ?begin@?$_Tree@KU?$pair@$$CBK_N@std@@U_Kfn@?$map@K_NU?$less@K@std@@V?$allocator@_N@2@@2@U?$less@K@2@V?$allocator@_N@2@@std@@QAE?AViterator@12@XZ 004b35d0 f i QuoteFactory.obj
 0001:000b25d0       ?begin@?$_Tree@V?$basic_string@DU?$char_traits@D@std@@V?$allocator@D@2@@std@@U?$pair@$$CBV?$basic_string@DU?$char_traits@D@std@@V?$allocator@D@2@@std@@J@2@U_Kfn@?$map@V?$basic_string@DU?$char_traits@D@std@@V?$allocator@D@2@@std@@JU?$less@V?$basic_string@DU?$char_traits@D@std@@V?$allocator@D@2@@std@@@2@V?$allocator@J@2@@2@U?$less@V?$basic_string@DU?$char_traits@D@std@@V?$allocator@D@2@@std@@@2@V?$allocator@J@2@@std@@QAE?AViterator@12@XZ 004b35d0 f i QuoteFactory.obj
 0001:000b25d0       ?begin@?$_Tree@V?$basic_string@DU?$char_traits@D@std@@V?$allocator@D@2@@std@@U?$pair@$$CBV?$basic_string@DU?$char_traits@D@std@@V?$allocator@D@2@@std@@VPrayChunkPtr@@@2@U_Kfn@?$map@V?$basic_string@DU?$char_traits@D@std@@V?$allocator@D@2@@std@@VPrayChunkPtr@@U?$less@V?$basic_string@DU?$char_traits@D@std@@V?$allocator@D@2@@std@@@2@V?$allocator@VPrayChunkPtr@@@2@@2@U?$less@V?$basic_string@DU?$char_traits@D@std@@V?$allocator@D@2@@std@@@2@V?$allocator@VPrayChunkPtr@@@2@@std@@QAE?AViterator@12@XZ 004b35d0 f i QuoteFactory.obj
 0001:000b25d0       ?begin@?$_Tree@VCAOSVar@@U?$pair@$$CBVCAOSVar@@V1@@std@@U_Kfn@?$map@VCAOSVar@@V1@U?$less@VCAOSVar@@@std@@V?$allocator@VCAOSVar@@@3@@3@U?$less@VCAOSVar@@@3@V?$allocator@VCAOSVar@@@3@@std@@QBE?AVconst_iterator@12@XZ 004b35d0 f i QuoteFactory.obj
 0001:000b25d0       ?begin@?$_Tree@VImmutableVariables@QuickFsp@@U?$pair@$$CBVImmutableVariables@QuickFsp@@VFspCache@2@@std@@U_Kfn@?$map@VImmutableVariables@QuickFsp@@VFspCache@2@U?$less@VImmutableVariables@QuickFsp@@@std@@V?$allocator@VFspCache@QuickFsp@@@5@@4@U?$less@VImmutableVariables@QuickFsp@@@4@V?$allocator@VFspCache@QuickFsp@@@4@@std@@QAE?AViterator@12@XZ 004b35d0 f i QuoteFactory.obj
 0001:000b25d0       ?begin@?$list@PAVDrawableObject@@V?$allocator@PAVDrawableObject@@@std@@@std@@QBE?AVconst_iterator@12@XZ 004b35d0 f i QuoteFactory.obj
 0001:000b25d0       ?begin@?$_Tree@KU?$pair@$$CBKViterator@?$_Tree@VClassifier@@U?$pair@$$CBVClassifier@@VAgentHandle@@@std@@U_Kfn@?$multimap@VClassifier@@VAgentHandle@@U?$less@VClassifier@@@std@@V?$allocator@VAgentHandle@@@4@@3@U?$less@VClassifier@@@3@V?$allocator@VAgentHandle@@@3@@std@@@std@@U_Kfn@?$map@KViterator@?$_Tree@VClassifier@@U?$pair@$$CBVClassifier@@VAgentHandle@@@std@@U_Kfn@?$multimap@VClassifier@@VAgentHandle@@U?$less@VClassifier@@@std@@V?$allocator@VAgentHandle@@@4@@3@U?$less@VClassifier@@@3@V?$allocator@VAgentHandle@@@3@@std@@U?$less@K@3@V?$allocator@Viterator@?$_Tree@VClassifier@@U?$pair@$$CBVClassifier@@VAgentHandle@@@std@@U_Kfn@?$multimap@VClassifier@@VAgentHandle@@U?$less@VClassifier@@@std@@V?$allocator@VAgentHandle@@@4@@3@U?$less@VClassifier@@@3@V?$allocator@VAgentHandle@@@3@@std@@@3@@2@U?$less@K@2@V?$allocator@Viterator@?$_Tree@VClassifier@@U?$pair@$$CBVClassifier@@VAgentHandle@@@std@@U_Kfn@?$multimap@VClassifier@@VAgentHandle@@U?$less@VClassifier@@@std@@V?$allocator@VAgentHandle@@@4@@3@U?$less@VClassifier@@@3@V?$allocator@VAgentHandle@@@3@@std@@@2@@std@@QAE?AViterator@12@XZ 004b35d0 f i QuoteFactory.obj
 0001:000b25d0       ?begin@?$_Tree@V?$basic_string@DU?$char_traits@D@std@@V?$allocator@D@2@@std@@U?$pair@$$CBV?$basic_string@DU?$char_traits@D@std@@V?$allocator@D@2@@std@@VCAOSVar@@@2@U_Kfn@?$map@V?$basic_string@DU?$char_traits@D@std@@V?$allocator@D@2@@std@@VCAOSVar@@U?$less@V?$basic_string@DU?$char_traits@D@std@@V?$allocator@D@2@@std@@@2@V?$allocator@VCAOSVar@@@2@@2@U?$less@V?$basic_string@DU?$char_traits@D@std@@V?$allocator@D@2@@std@@@2@V?$allocator@VCAOSVar@@@2@@std@@QBE?AVconst_iterator@12@XZ 004b35d0 f i QuoteFactory.obj
 0001:000b25d0       ?begin@?$list@PAVDrawableObject@@V?$allocator@PAVDrawableObject@@@std@@@std@@QAE?AViterator@12@XZ 004b35d0 f i QuoteFactory.obj
 0001:000b25d0       ?begin@?$_Tree@V?$basic_string@DU?$char_traits@D@std@@V?$allocator@D@2@@std@@U?$pair@$$CBV?$basic_string@DU?$char_traits@D@std@@V?$allocator@D@2@@std@@V12@@2@U_Kfn@?$multimap@V?$basic_string@DU?$char_traits@D@std@@V?$allocator@D@2@@std@@V12@U?$less@V?$basic_string@DU?$char_traits@D@std@@V?$allocator@D@2@@std@@@2@V?$allocator@V?$basic_string@DU?$char_traits@D@std@@V?$allocator@D@2@@std@@@2@@2@U?$less@V?$basic_string@DU?$char_traits@D@std@@V?$allocator@D@2@@std@@@2@V?$allocator@V?$basic_string@DU?$char_traits@D@std@@V?$allocator@D@2@@std@@@2@@std@@QAE?AViterator@12@XZ 004b35d0 f i QuoteFactory.obj
 0001:000b25d0       ?begin@?$_Tree@V?$basic_string@DU?$char_traits@D@std@@V?$allocator@D@2@@std@@U?$pair@$$CBV?$basic_string@DU?$char_traits@D@std@@V?$allocator@D@2@@std@@PAVGallery@@@2@U_Kfn@?$map@V?$basic_string@DU?$char_traits@D@std@@V?$allocator@D@2@@std@@PAVGallery@@U?$less@V?$basic_string@DU?$char_traits@D@std@@V?$allocator@D@2@@std@@@2@V?$allocator@PAVGallery@@@2@@2@U?$less@V?$basic_string@DU?$char_traits@D@std@@V?$allocator@D@2@@std@@@2@V?$allocator@PAVGallery@@@2@@std@@QAE?AViterator@12@XZ 004b35d0 f i QuoteFactory.obj
 0001:000b25d0       ?begin@?$list@VAgentHandle@@V?$allocator@VAgentHandle@@@std@@@std@@QAE?AViterator@12@XZ 004b35d0 f i QuoteFactory.obj
 0001:000b25d0       ?begin@?$_Tree@PBVPersistentObject@@U?$pair@QBVPersistentObject@@J@std@@U_Kfn@?$map@PBVPersistentObject@@JU?$less@PBVPersistentObject@@@std@@V?$allocator@J@3@@3@U?$less@PBVPersistentObject@@@3@V?$allocator@J@3@@std@@QAE?AViterator@12@XZ 004b35d0 f i QuoteFactory.obj
 0001:000b25d0       ?begin@?$_Tree@V?$basic_string@DU?$char_traits@D@std@@V?$allocator@D@2@@std@@U?$pair@$$CBV?$basic_string@DU?$char_traits@D@std@@V?$allocator@D@2@@std@@UTagStruct@Catalogue@@@2@U_Kfn@?$map@V?$basic_string@DU?$char_traits@D@std@@V?$allocator@D@2@@std@@UTagStruct@Catalogue@@U?$less@V?$basic_string@DU?$char_traits@D@std@@V?$allocator@D@2@@std@@@2@V?$allocator@UTagStruct@Catalogue@@@2@@2@U?$less@V?$basic_string@DU?$char_traits@D@std@@V?$allocator@D@2@@std@@@2@V?$allocator@UTagStruct@Catalogue@@@2@@std@@QAE?AViterator@12@XZ 004b35d0 f i QuoteFactory.obj
 0001:000b25d0       ?begin@?$_Tree@V?$basic_string@DU?$char_traits@D@std@@V?$allocator@D@2@@std@@U?$pair@$$CBV?$basic_string@DU?$char_traits@D@std@@V?$allocator@D@2@@std@@VCreatureHistory@@@2@U_Kfn@?$map@V?$basic_string@DU?$char_traits@D@std@@V?$allocator@D@2@@std@@VCreatureHistory@@U?$less@V?$basic_string@DU?$char_traits@D@std@@V?$allocator@D@2@@std@@@2@V?$allocator@VCreatureHistory@@@2@@2@U?$less@V?$basic_string@DU?$char_traits@D@std@@V?$allocator@D@2@@std@@@2@V?$allocator@VCreatureHistory@@@2@@std@@QAE?AViterator@12@XZ 004b35d0 f i QuoteFactory.obj
 0001:000b25d0       ?begin@?$_Tree@HHU_Kfn@?$set@HU?$less@H@std@@V?$allocator@H@2@@std@@U?$less@H@3@V?$allocator@H@3@@std@@QAE?AViterator@12@XZ 004b35d0 f i QuoteFactory.obj
 0001:000b25d0       ?begin@?$_Tree@HU?$pair@$$CBHV?$basic_string@DU?$char_traits@D@std@@V?$allocator@D@2@@std@@@std@@U_Kfn@?$map@HV?$basic_string@DU?$char_traits@D@std@@V?$allocator@D@2@@std@@U?$less@H@2@V?$allocator@V?$basic_string@DU?$char_traits@D@std@@V?$allocator@D@2@@std@@@2@@2@U?$less@H@2@V?$allocator@V?$basic_string@DU?$char_traits@D@std@@V?$allocator@D@2@@std@@@2@@std@@QAE?AViterator@12@XZ 004b35d0 f i QuoteFactory.obj
 0001:000b25d0       ?begin@?$list@PAVControlledSound@MusicLayer@@V?$allocator@PAVControlledSound@MusicLayer@@@std@@@std@@QAE?AViterator@12@XZ 004b35d0 f i QuoteFactory.obj
 0001:000b25d0       ?begin@?$_Tree@HU?$pair@$$CBHH@std@@U_Kfn@?$map@HHU?$less@H@std@@V?$allocator@H@2@@2@U?$less@H@2@V?$allocator@H@2@@std@@QAE?AViterator@12@XZ 004b35d0 f i QuoteFactory.obj
 0001:000b25d0       ?begin@?$_Tree@V?$basic_string@DU?$char_traits@D@std@@V?$allocator@D@2@@std@@U?$pair@$$CBV?$basic_string@DU?$char_traits@D@std@@V?$allocator@D@2@@std@@V12@@2@U_Kfn@?$map@V?$basic_string@DU?$char_traits@D@std@@V?$allocator@D@2@@std@@V12@U?$less@V?$basic_string@DU?$char_traits@D@std@@V?$allocator@D@2@@std@@@2@V?$allocator@V?$basic_string@DU?$char_traits@D@std@@V?$allocator@D@2@@std@@@2@@2@U?$less@V?$basic_string@DU?$char_traits@D@std@@V?$allocator@D@2@@std@@@2@V?$allocator@V?$basic_string@DU?$char_traits@D@std@@V?$allocator@D@2@@std@@@2@@std@@QAE?AViterator@12@XZ 004b35d0 f i QuoteFactory.obj
 0001:000b25d0       ?begin@?$_Tree@V?$basic_string@DU?$char_traits@D@std@@V?$allocator@D@2@@std@@U?$pair@$$CBV?$basic_string@DU?$char_traits@D@std@@V?$allocator@D@2@@std@@U?$pair@V?$basic_string@DU?$char_traits@D@std@@V?$allocator@D@2@@std@@H@2@@2@U_Kfn@?$map@V?$basic_string@DU?$char_traits@D@std@@V?$allocator@D@2@@std@@U?$pair@V?$basic_string@DU?$char_traits@D@std@@V?$allocator@D@2@@std@@H@2@U?$less@V?$basic_string@DU?$char_traits@D@std@@V?$allocator@D@2@@std@@@2@V?$allocator@U?$pair@V?$basic_string@DU?$char_traits@D@std@@V?$allocator@D@2@@std@@H@std@@@2@@2@U?$less@V?$basic_string@DU?$char_traits@D@std@@V?$allocator@D@2@@std@@@2@V?$allocator@U?$pair@V?$basic_string@DU?$char_traits@D@std@@V?$allocator@D@2@@std@@H@std@@@2@@std@@QAE?AViterator@12@XZ 004b35d0 f i QuoteFactory.obj
 0001:000b25d0       ?begin@?$list@U?$pair@HH@std@@V?$allocator@U?$pair@HH@std@@@2@@std@@QBE?AVconst_iterator@12@XZ 004b35d0 f i QuoteFactory.obj
 0001:000b25d0       ?begin@?$_Tree@VMessage@@V1@U_Kfn@?$multiset@VMessage@@UCompareMessageTimes@@V?$allocator@VMessage@@@std@@@std@@UCompareMessageTimes@@V?$allocator@VMessage@@@4@@std@@QAE?AViterator@12@XZ 004b35d0 f i QuoteFactory.obj
 0001:000b25d0       ?begin@?$_Tree@PAVCachedSound@@PAV1@U_Kfn@?$set@PAVCachedSound@@U?$less@PAVCachedSound@@@std@@V?$allocator@PAVCachedSound@@@3@@std@@U?$less@PAVCachedSound@@@4@V?$allocator@PAVCachedSound@@@4@@std@@QAE?AViterator@12@XZ 004b35d0 f i QuoteFactory.obj
 0001:000b25d0       ?begin@?$_Tree@VCAOSVar@@U?$pair@$$CBVCAOSVar@@V1@@std@@U_Kfn@?$map@VCAOSVar@@V1@U?$less@VCAOSVar@@@std@@V?$allocator@VCAOSVar@@@3@@3@U?$less@VCAOSVar@@@3@V?$allocator@VCAOSVar@@@3@@std@@QAE?AViterator@12@XZ 004b35d0 f i QuoteFactory.obj
 0001:000b25d0       ?begin@?$_Tree@V?$basic_string@DU?$char_traits@D@std@@V?$allocator@D@2@@std@@U?$pair@$$CBV?$basic_string@DU?$char_traits@D@std@@V?$allocator@D@2@@std@@U?$pair@HV?$basic_string@DU?$char_traits@D@std@@V?$allocator@D@2@@std@@@2@@2@U_Kfn@?$map@V?$basic_string@DU?$char_traits@D@std@@V?$allocator@D@2@@std@@U?$pair@HV?$basic_string@DU?$char_traits@D@std@@V?$allocator@D@2@@std@@@2@U?$less@V?$basic_string@DU?$char_traits@D@std@@V?$allocator@D@2@@std@@@2@V?$allocator@U?$pair@HV?$basic_string@DU?$char_traits@D@std@@V?$allocator@D@2@@std@@@std@@@2@@2@U?$less@V?$basic_string@DU?$char_traits@D@std@@V?$allocator@D@2@@std@@@2@V?$allocator@U?$pair@HV?$basic_string@DU?$char_traits@D@std@@V?$allocator@D@2@@std@@@std@@@2@@std@@QAE?AViterator@12@XZ 004b35d0 f i QuoteFactory.obj
 0001:000b25d0       ?begin@?$_Tree@V?$basic_string@DU?$char_traits@D@std@@V?$allocator@D@2@@std@@V12@U_Kfn@?$set@V?$basic_string@DU?$char_traits@D@std@@V?$allocator@D@2@@std@@U?$less@V?$basic_string@DU?$char_traits@D@std@@V?$allocator@D@2@@std@@@2@V?$allocator@V?$basic_string@DU?$char_traits@D@std@@V?$allocator@D@2@@std@@@2@@2@U?$less@V?$basic_string@DU?$char_traits@D@std@@V?$allocator@D@2@@std@@@2@V?$allocator@V?$basic_string@DU?$char_traits@D@std@@V?$allocator@D@2@@std@@@2@@std@@QAE?AViterator@12@XZ 004b35d0 f i QuoteFactory.obj
 0001:000b25d0       ?begin@?$_Tree@PAVDrawableObject@@U?$pair@QAVDrawableObject@@Viterator@?$list@PAVDrawableObject@@V?$allocator@PAVDrawableObject@@@std@@@std@@@std@@U_Kfn@?$map@PAVDrawableObject@@Viterator@?$list@PAVDrawableObject@@V?$allocator@PAVDrawableObject@@@std@@@std@@U?$less@PAVDrawableObject@@@4@V?$allocator@Viterator@?$list@PAVDrawableObject@@V?$allocator@PAVDrawableObject@@@std@@@std@@@4@@3@U?$less@PAVDrawableObject@@@3@V?$allocator@Viterator@?$list@PAVDrawableObject@@V?$allocator@PAVDrawableObject@@@std@@@std@@@3@@std@@QAE?AViterator@12@XZ 004b35d0 f i QuoteFactory.obj
 0001:000b25f0       ?upper_bound@?$_Tree@V?$basic_string@DU?$char_traits@D@std@@V?$allocator@D@2@@std@@U?$pair@$$CBV?$basic_string@DU?$char_traits@D@std@@V?$allocator@D@2@@std@@V12@@2@U_Kfn@?$multimap@V?$basic_string@DU?$char_traits@D@std@@V?$allocator@D@2@@std@@V12@U?$less@V?$basic_string@DU?$char_traits@D@std@@V?$allocator@D@2@@std@@@2@V?$allocator@V?$basic_string@DU?$char_traits@D@std@@V?$allocator@D@2@@std@@@2@@2@U?$less@V?$basic_string@DU?$char_traits@D@std@@V?$allocator@D@2@@std@@@2@V?$allocator@V?$basic_string@DU?$char_traits@D@std@@V?$allocator@D@2@@std@@@2@@std@@QAE?AViterator@12@ABV?$basic_string@DU?$char_traits@D@std@@V?$allocator@D@2@@2@@Z 004b35f0 f i QuoteFactory.obj
 0001:000b2640       ?_Erase@?$_Tree@V?$basic_string@DU?$char_traits@D@std@@V?$allocator@D@2@@std@@U?$pair@$$CBV?$basic_string@DU?$char_traits@D@std@@V?$allocator@D@2@@std@@V12@@2@U_Kfn@?$multimap@V?$basic_string@DU?$char_traits@D@std@@V?$allocator@D@2@@std@@V12@U?$less@V?$basic_string@DU?$char_traits@D@std@@V?$allocator@D@2@@std@@@2@V?$allocator@V?$basic_string@DU?$char_traits@D@std@@V?$allocator@D@2@@std@@@2@@2@U?$less@V?$basic_string@DU?$char_traits@D@std@@V?$allocator@D@2@@std@@@2@V?$allocator@V?$basic_string@DU?$char_traits@D@std@@V?$allocator@D@2@@std@@@2@@std@@IAEXPAU_Node@12@@Z 004b3640 f i QuoteFactory.obj
 0001:000b2690       ?_Insert@?$_Tree@V?$basic_string@DU?$char_traits@D@std@@V?$allocator@D@2@@std@@U?$pair@$$CBV?$basic_string@DU?$char_traits@D@std@@V?$allocator@D@2@@std@@V12@@2@U_Kfn@?$multimap@V?$basic_string@DU?$char_traits@D@std@@V?$allocator@D@2@@std@@V12@U?$less@V?$basic_string@DU?$char_traits@D@std@@V?$allocator@D@2@@std@@@2@V?$allocator@V?$basic_string@DU?$char_traits@D@std@@V?$allocator@D@2@@std@@@2@@2@U?$less@V?$basic_string@DU?$char_traits@D@std@@V?$allocator@D@2@@std@@@2@V?$allocator@V?$basic_string@DU?$char_traits@D@std@@V?$allocator@D@2@@std@@@2@@std@@IAE?AViterator@12@PAU_Node@12@0ABU?$pair@$$CBV?$basic_string@DU?$char_traits@D@std@@V?$allocator@D@2@@std@@V12@@2@@Z 004b3690 f i QuoteFactory.obj
 0001:000b2690       ?_Insert@?$_Tree@V?$basic_string@DU?$char_traits@D@std@@V?$allocator@D@2@@std@@U?$pair@$$CBV?$basic_string@DU?$char_traits@D@std@@V?$allocator@D@2@@std@@V12@@2@U_Kfn@?$map@V?$basic_string@DU?$char_traits@D@std@@V?$allocator@D@2@@std@@V12@U?$less@V?$basic_string@DU?$char_traits@D@std@@V?$allocator@D@2@@std@@@2@V?$allocator@V?$basic_string@DU?$char_traits@D@std@@V?$allocator@D@2@@std@@@2@@2@U?$less@V?$basic_string@DU?$char_traits@D@std@@V?$allocator@D@2@@std@@@2@V?$allocator@V?$basic_string@DU?$char_traits@D@std@@V?$allocator@D@2@@std@@@2@@std@@IAE?AViterator@12@PAU_Node@12@0ABU?$pair@$$CBV?$basic_string@DU?$char_traits@D@std@@V?$allocator@D@2@@std@@V12@@2@@Z 004b3690 f i QuoteFactory.obj
 0001:000b28e0       ?_Buynode@?$_Tree@V?$basic_string@DU?$char_traits@D@std@@V?$allocator@D@2@@std@@U?$pair@$$CBV?$basic_string@DU?$char_traits@D@std@@V?$allocator@D@2@@std@@V12@@2@U_Kfn@?$map@V?$basic_string@DU?$char_traits@D@std@@V?$allocator@D@2@@std@@V12@U?$less@V?$basic_string@DU?$char_traits@D@std@@V?$allocator@D@2@@std@@@2@V?$allocator@V?$basic_string@DU?$char_traits@D@std@@V?$allocator@D@2@@std@@@2@@2@U?$less@V?$basic_string@DU?$char_traits@D@std@@V?$allocator@D@2@@std@@@2@V?$allocator@V?$basic_string@DU?$char_traits@D@std@@V?$allocator@D@2@@std@@@2@@std@@IAEPAU_Node@12@PAU312@D@Z 004b38e0 f i QuoteFactory.obj
 0001:000b28e0       ?_Buynode@?$_Tree@V?$basic_string@DU?$char_traits@D@std@@V?$allocator@D@2@@std@@U?$pair@$$CBV?$basic_string@DU?$char_traits@D@std@@V?$allocator@D@2@@std@@V12@@2@U_Kfn@?$multimap@V?$basic_string@DU?$char_traits@D@std@@V?$allocator@D@2@@std@@V12@U?$less@V?$basic_string@DU?$char_traits@D@std@@V?$allocator@D@2@@std@@@2@V?$allocator@V?$basic_string@DU?$char_traits@D@std@@V?$allocator@D@2@@std@@@2@@2@U?$less@V?$basic_string@DU?$char_traits@D@std@@V?$allocator@D@2@@std@@@2@V?$allocator@V?$basic_string@DU?$char_traits@D@std@@V?$allocator@D@2@@std@@@2@@std@@IAEPAU_Node@12@PAU312@D@Z 004b38e0 f i QuoteFactory.obj
 0001:000b2910       ?_Dec@iterator@?$_Tree@V?$basic_string@DU?$char_traits@D@std@@V?$allocator@D@2@@std@@U?$pair@$$CBV?$basic_string@DU?$char_traits@D@std@@V?$allocator@D@2@@std@@V12@@2@U_Kfn@?$map@V?$basic_string@DU?$char_traits@D@std@@V?$allocator@D@2@@std@@V12@U?$less@V?$basic_string@DU?$char_traits@D@std@@V?$allocator@D@2@@std@@@2@V?$allocator@V?$basic_string@DU?$char_traits@D@std@@V?$allocator@D@2@@std@@@2@@2@U?$less@V?$basic_string@DU?$char_traits@D@std@@V?$allocator@D@2@@std@@@2@V?$allocator@V?$basic_string@DU?$char_traits@D@std@@V?$allocator@D@2@@std@@@2@@std@@QAEXXZ 004b3910 f i QuoteFactory.obj
 0001:000b2910       ?_Dec@iterator@?$_Tree@V?$basic_string@DU?$char_traits@D@std@@V?$allocator@D@2@@std@@U?$pair@$$CBV?$basic_string@DU?$char_traits@D@std@@V?$allocator@D@2@@std@@V12@@2@U_Kfn@?$multimap@V?$basic_string@DU?$char_traits@D@std@@V?$allocator@D@2@@std@@V12@U?$less@V?$basic_string@DU?$char_traits@D@std@@V?$allocator@D@2@@std@@@2@V?$allocator@V?$basic_string@DU?$char_traits@D@std@@V?$allocator@D@2@@std@@@2@@2@U?$less@V?$basic_string@DU?$char_traits@D@std@@V?$allocator@D@2@@std@@@2@V?$allocator@V?$basic_string@DU?$char_traits@D@std@@V?$allocator@D@2@@std@@@2@@std@@QAEXXZ 004b3910 f i QuoteFactory.obj
 0001:000b2970       ?make_pair@std@@YA?AU?$pair@V?$basic_string@DU?$char_traits@D@std@@V?$allocator@D@2@@std@@V12@@1@ABV?$basic_string@DU?$char_traits@D@std@@V?$allocator@D@2@@1@0@Z 004b3970 f i QuoteFactory.obj
 0001:000b2b30       ??0?$pair@$$CBV?$basic_string@DU?$char_traits@D@std@@V?$allocator@D@2@@std@@V12@@std@@QAE@ABU?$pair@V?$basic_string@DU?$char_traits@D@std@@V?$allocator@D@2@@std@@V12@@1@@Z 004b3b30 f i QuoteFactory.obj
 0001:000b2d50       ?CreateNewSimpleAgent@@YAPAVPersistentObject@@XZ 004b3d50 f   SimpleAgent.obj
 0001:000b2de0       ?GetClassNameX@SimpleAgent@@UBEPBDXZ 004b3de0 f   SimpleAgent.obj
 0001:000b2df0       ?Init@SimpleAgent@@IAEXXZ  004b3df0 f   SimpleAgent.obj
 0001:000b2e00       ??0SimpleAgent@@QAE@XZ     004b3e00 f   SimpleAgent.obj
 0001:000b2e30       ??_GSimpleAgent@@UAEPAXI@Z 004b3e30 f i SimpleAgent.obj
 0001:000b2e30       ??_ESimpleAgent@@UAEPAXI@Z 004b3e30 f i SimpleAgent.obj
 0001:000b2e60       ??0SimpleAgent@@QAE@HHHKABVFilePath@@HHH_N@Z 004b3e60 f   SimpleAgent.obj
 0001:000b31c0       ??1SimpleAgent@@UAE@XZ     004b41c0 f   SimpleAgent.obj
 0001:000b31e0       ?DrawLine@SimpleAgent@@UAEXJJJJEEEEEK@Z 004b41e0 f   SimpleAgent.obj
 0001:000b3220       ?ResetLines@SimpleAgent@@UAEXXZ 004b4220 f   SimpleAgent.obj
 0001:000b3230       ?Update@SimpleAgent@@UAEXXZ 004b4230 f   SimpleAgent.obj
 0001:000b3280       ?ClickAction@SimpleAgent@@MAEHHH@Z 004b4280 f   SimpleAgent.obj
 0001:000b32a0       ?GetPlane@SimpleAgent@@UAEHH@Z 004b42a0 f   SimpleAgent.obj
 0001:000b32b0       ?SetAnim@SimpleAgent@@UAE_NPBEHH@Z 004b42b0 f   SimpleAgent.obj
 0001:000b32f0       ?AnimOver@SimpleAgent@@UAE_NH@Z 004b42f0 f   SimpleAgent.obj
 0001:000b3300       ?ShowPose@SimpleAgent@@UAE_NHH@Z 004b4300 f   SimpleAgent.obj
 0001:000b3370       ?GetPose@SimpleAgent@@UAEHH@Z 004b4370 f   SimpleAgent.obj
 0001:000b3390       ?SetBaseImage@SimpleAgent@@UAE_NHH@Z 004b4390 f   SimpleAgent.obj
 0001:000b33b0       ?GetBaseImage@SimpleAgent@@UAEHH@Z 004b43b0 f   SimpleAgent.obj
 0001:000b33d0       ?GetAbsoluteBase@SimpleAgent@@UAEHH@Z 004b43d0 f   SimpleAgent.obj
 0001:000b33e0       ?Write@SimpleAgent@@UBE_NAAVCreaturesArchive@@@Z 004b43e0 f   SimpleAgent.obj
 0001:000b3420       ?Read@SimpleAgent@@UAE_NAAVCreaturesArchive@@@Z 004b4420 f   SimpleAgent.obj
 0001:000b3490       ?MoveTo@SimpleAgent@@UAEXMM@Z 004b4490 f   SimpleAgent.obj
 0001:000b34e0       ?SetNormalPlane@SimpleAgent@@UAEXHH@Z 004b44e0 f   SimpleAgent.obj
 0001:000b3500       ?GetNormalPlane@SimpleAgent@@UAEHH@Z 004b4500 f   SimpleAgent.obj
 0001:000b3510       ?Trash@SimpleAgent@@UAEXXZ 004b4510 f   SimpleAgent.obj
 0001:000b3520       ?Tint@SimpleAgent@@UAEXPBGH_N@Z 004b4520 f   SimpleAgent.obj
 0001:000b35c0       ?CreateClonedEntityImage@SimpleAgent@@UAE_N_N@Z 004b45c0 f   SimpleAgent.obj
 0001:000b3730       ?UnClone@SimpleAgent@@UAEXH@Z 004b4730 f   SimpleAgent.obj
 0001:000b3820       ?SetFrameRate@SimpleAgent@@UAE_NEH@Z 004b4820 f   SimpleAgent.obj
 0001:000b3840       ?ChangePhysicalPlane@SimpleAgent@@UAEXH@Z 004b4840 f   SimpleAgent.obj
 0001:000b3970       ??0UIPart@@QAE@XZ          004b4970 f   UIPart.obj
 0001:000b3990       ??_EUIPart@@UAEPAXI@Z      004b4990 f i UIPart.obj
 0001:000b3990       ??_GUIPart@@UAEPAXI@Z      004b4990 f i UIPart.obj
 0001:000b39c0       ??1UIPart@@UAE@XZ          004b49c0 f i UIPart.obj
 0001:000b39d0       ??0UIPart@@QAE@ABVFilePath@@HHAAVVector2D@@H@Z 004b49d0 f   UIPart.obj
 0001:000b3a10       ?GetHotSpot@UIPart@@IAE_NAAVAgentHandle@@AAVVector2D@@@Z 004b4a10 f   UIPart.obj
 0001:000b3a80       ?CreateNewUIButton@@YAPAVPersistentObject@@XZ 004b4a80 f   UIPart.obj
 0001:000b3b10       ?GetClassNameX@UIButton@@UBEPBDXZ 004b4b10 f   UIPart.obj
 0001:000b3b20       ??0UIButton@@QAE@XZ        004b4b20 f   UIPart.obj
 0001:000b3b70       ??_EUIButton@@UAEPAXI@Z    004b4b70 f i UIPart.obj
 0001:000b3b70       ??_GUIButton@@UAEPAXI@Z    004b4b70 f i UIPart.obj
 0001:000b3ba0       ??1UIButton@@UAE@XZ        004b4ba0 f i UIPart.obj
 0001:000b3bf0       ??0UIButton@@QAE@ABVFilePath@@HHAAVVector2D@@HABV?$vector@EV?$allocator@E@std@@@std@@HH@Z 004b4bf0 f   UIPart.obj
 0001:000b3cd0       ?IsOver@UIButton@@QAE_NABVVector2D@@@Z 004b4cd0 f   UIPart.obj
 0001:000b3d70       ?Tick@UIButton@@UAEXXZ     004b4d70 f   UIPart.obj
 0001:000b3ec0       ?HandleUI@UIButton@@UAEXPAVMessage@@@Z 004b4ec0 f   UIPart.obj
 0001:000b41a0       ?SetAnim@UIButton@@UAE_NPBEH@Z 004b51a0 f   UIPart.obj
 0001:000b4360       ?Write@UIButton@@UBE_NAAVCreaturesArchive@@@Z 004b5360 f   UIPart.obj
 0001:000b4410       ?Read@UIButton@@UAE_NAAVCreaturesArchive@@@Z 004b5410 f   UIPart.obj
 0001:000b45c0       ??0UIPartWithClonedImage@@QAE@ABVFilePath@@HHAAVVector2D@@H@Z 004b55c0 f   UIPart.obj
 0001:000b4660       ??_EUIPartWithClonedImage@@UAEPAXI@Z 004b5660 f i UIPart.obj
 0001:000b4660       ??_GUIPartWithClonedImage@@UAEPAXI@Z 004b5660 f i UIPart.obj
 0001:000b4690       ??1UIPartWithClonedImage@@UAE@XZ 004b5690 f   UIPart.obj
 0001:000b46f0       ?SussPosition@UIPartWithClonedImage@@UAEXABVVector2D@@@Z 004b56f0 f   UIPart.obj
 0001:000b47b0       ?SussPlane@UIPartWithClonedImage@@UAEXH@Z 004b57b0 f   UIPart.obj
 0001:000b47e0       ?SussPlane@UIText@@UAEXH@Z 004b57e0 f   UIPart.obj
 0001:000b4810       ?ChangeCameraShyStatus@UIPartWithClonedImage@@UAEX_N@Z 004b5810 f   UIPart.obj
 0001:000b4840       ?Write@UIPartWithClonedImage@@UBE_NAAVCreaturesArchive@@@Z 004b5840 f   UIPart.obj
 0001:000b4870       ?Read@UIPartWithClonedImage@@UAE_NAAVCreaturesArchive@@@Z 004b5870 f   UIPart.obj
 0001:000b48b0       ??6@YAAAVCreaturesArchive@@AAV0@ABUTextAttributes@@@Z 004b58b0 f   UIPart.obj
 0001:000b4910       ??5@YAAAVCreaturesArchive@@AAV0@AAUTextAttributes@@@Z 004b5910 f   UIPart.obj
 0001:000b4970       ?UITextPartHelperCanBreak@@YA_NABV?$basic_string@DU?$char_traits@D@std@@V?$allocator@D@2@@std@@H@Z 004b5970 f   UIPart.obj
 0001:000b49d0       ?FindLineStarts@UITextPart@@IAEXXZ 004b59d0 f   UIPart.obj
 0001:000b4e30       ?InverseLines@UITextPart@@IAEXHH@Z 004b5e30 f   UIPart.obj
 0001:000b50e0       ?GetPageCount@UITextPart@@QAEHXZ 004b60e0 f   UIPart.obj
 0001:000b5110       ?GetCurrentPage@UITextPart@@QAEHXZ 004b6110 f   UIPart.obj
 0001:000b5120       ?SetCurrentPage@UITextPart@@QAEXH@Z 004b6120 f   UIPart.obj
 0001:000b5160       ?Write@UITextPart@@UBE_NAAVCreaturesArchive@@@Z 004b6160 f   UIPart.obj
 0001:000b5290       ?Read@UITextPart@@UAE_NAAVCreaturesArchive@@@Z 004b6290 f   UIPart.obj
 0001:000b5510       ?CreateNewUIText@@YAPAVPersistentObject@@XZ 004b6510 f   UIPart.obj
 0001:000b55a0       ?GetClassNameX@UIText@@UBEPBDXZ 004b65a0 f   UIPart.obj
 0001:000b55b0       ??0UIText@@QAE@XZ          004b65b0 f   UIPart.obj
 0001:000b56c0       ?CreateClonedEntityImage@Agent@@UAE_N_N@Z 004b66c0 f i UIPart.obj
 0001:000b56c0       ?RawKey@TranslatedCharTarget@@UAE_NH@Z 004b66c0 f i UIPart.obj
 0001:000b56c0       ?SendChar@TranslatedCharTarget@@UAE_NH@Z 004b66c0 f i UIPart.obj
 0001:000b56d0       ?HasTargetPoseStringBeenReached@Creature@@UAE_NXZ 004b66d0 f i UIPart.obj
 0001:000b56d0       ?IsAgent@Agent@@UBE_NXZ    004b66d0 f i UIPart.obj
 0001:000b56d0       ?IsRemote@RemoteCamera@@UAE_NXZ 004b66d0 f i UIPart.obj
 0001:000b56d0       ?AllowScroll@TranslatedCharTarget@@UAE_NXZ 004b66d0 f i UIPart.obj
 0001:000b56e0       ?IsAgent@PersistentObject@@UBE_NXZ 004b66e0 f i UIPart.obj
 0001:000b56e0       ?IsRemote@Camera@@UAE_NXZ  004b66e0 f i UIPart.obj
 0001:000b56e0       ?LoseFocus@TranslatedCharTarget@@UAE_NXZ 004b66e0 f i UIPart.obj
 0001:000b56e0       ?AreYouHoldingHandsWithThePointer@Creature@@UAE_NXZ 004b66e0 f i UIPart.obj
 0001:000b56f0       ?Walk@Creature@@UAEXXZ     004b66f0 f i UIPart.obj
 0001:000b56f0       ?Trash@Faculty@@UAEXXZ     004b66f0 f i UIPart.obj
 0001:000b56f0       ??1Lexer@@QAE@XZ           004b66f0 f i UIPart.obj
 0001:000b56f0       ?Initialise@BrainComponent@@UAEXXZ 004b66f0 f i UIPart.obj
 0001:000b56f0       ?Render@Camera@@UAEXXZ     004b66f0 f i UIPart.obj
 0001:000b56f0       ?_Destroy@std@@YAXPAJ@Z    004b66f0 f i UIPart.obj
 0001:000b56f0       ?GainFocus@TranslatedCharTarget@@UAEXXZ 004b66f0 f i UIPart.obj
 0001:000b56f0       ?DoUpdate@BrainComponent@@UAEXXZ 004b66f0 f i UIPart.obj
 0001:000b56f0       ?DrawMirrored@Camera@@UAEXXZ 004b66f0 f i UIPart.obj
 0001:000b56f0       ??3@YAXPAX0@Z              004b66f0 f i UIPart.obj
 0001:000b56f0       ?ResetAnimationString@Creature@@UAEXXZ 004b66f0 f i UIPart.obj
 0001:000b56f0       ?TraceDebugInformation@BrainComponent@@UAEXXZ 004b66f0 f i UIPart.obj
 0001:000b56f0       ?Draw@Camera@@UAEXXZ       004b66f0 f i UIPart.obj
 0001:000b5700       ??_GUIText@@UAEPAXI@Z      004b6700 f i UIPart.obj
 0001:000b5700       ??_EUIText@@UAEPAXI@Z      004b6700 f i UIPart.obj
 0001:000b5730       ??_ETranslatedCharTarget@@UAEPAXI@Z 004b6730 f i UIPart.obj
 0001:000b5730       ??_GTranslatedCharTarget@@UAEPAXI@Z 004b6730 f i UIPart.obj
 0001:000b5760       ??0UIText@@QAE@ABVFilePath@@HHAAVVector2D@@HHV?$basic_string@DU?$char_traits@D@std@@V?$allocator@D@2@@std@@@Z 004b6760 f   UIPart.obj
 0001:000b5890       ??0UITextPart@@QAE@ABVFilePath@@HHAAVVector2D@@HV?$basic_string@DU?$char_traits@D@std@@V?$allocator@D@2@@std@@@Z 004b6890 f i UIPart.obj
 0001:000b59d0       ?SetText@UITextPart@@UAEXV?$basic_string@DU?$char_traits@D@std@@V?$allocator@D@2@@std@@@Z 004b69d0 f i UIPart.obj
 0001:000b5a00       ?GetText@UITextPart@@UBE?AV?$basic_string@DU?$char_traits@D@std@@V?$allocator@D@2@@std@@XZ 004b6a00 f i UIPart.obj
 0001:000b5b50       ??_GUITextPart@@UAEPAXI@Z  004b6b50 f i UIPart.obj
 0001:000b5b50       ??_EUITextPart@@UAEPAXI@Z  004b6b50 f i UIPart.obj
 0001:000b5b80       ??1UITextPart@@UAE@XZ      004b6b80 f i UIPart.obj
 0001:000b5c80       ??1UIText@@UAE@XZ          004b6c80 f   UIPart.obj
 0001:000b5dd0       ?SussPosition@UIText@@UAEXABVVector2D@@@Z 004b6dd0 f   UIPart.obj
 0001:000b5e00       ?ChangeCameraShyStatus@UIText@@UAEX_N@Z 004b6e00 f   UIPart.obj
 0001:000b5e30       ?AllowScroll@UIText@@UAE_NXZ 004b6e30 f   UIPart.obj
 0001:000b5e40       ?RawKey@UIText@@UAE_NH@Z   004b6e40 f   UIPart.obj
 0001:000b6080       ?InsertSingleChar@UIText@@IAE_NE@Z 004b7080 f   UIPart.obj
 0001:000b6350       ?SendChar@UIText@@UAE_NH@Z 004b7350 f   UIPart.obj
 0001:000b67e0       ?HandleUI@UIText@@UAEXPAVMessage@@@Z 004b77e0 f   UIPart.obj
 0001:000b6a70       ?MakeCursor@UIText@@IAEXXZ 004b7a70 f   UIPart.obj
 0001:000b6bd0       ?GetWorldY@EntityImage@@QBEJXZ 004b7bd0 f i UIPart.obj
 0001:000b6be0       ?FindLineCursorIn@UIText@@QAEHXZ 004b7be0 f   UIPart.obj
 0001:000b6c20       ?MoveCursor@UIText@@QAEXXZ 004b7c20 f   UIPart.obj
 0001:000b6e00       ?ParseFormattingCodes@UITextPart@@IAEXV?$basic_string@DU?$char_traits@D@std@@V?$allocator@D@2@@std@@@Z 004b7e00 f   UIPart.obj
 0001:000b7450       ?SetText@UIText@@UAEXV?$basic_string@DU?$char_traits@D@std@@V?$allocator@D@2@@std@@@Z 004b8450 f   UIPart.obj
 0001:000b7520       ?GetText@UIText@@UBE?AV?$basic_string@DU?$char_traits@D@std@@V?$allocator@D@2@@std@@XZ 004b8520 f   UIPart.obj
 0001:000b7670       ?LoseFocus@UIText@@UAE_NXZ 004b8670 f   UIPart.obj
 0001:000b76a0       ?GainFocus@UIText@@UAEXXZ  004b86a0 f   UIPart.obj
 0001:000b76d0       ?Tick@UIText@@UAEXXZ       004b86d0 f   UIPart.obj
 0001:000b76f0       ?Write@UIText@@UBE_NAAVCreaturesArchive@@@Z 004b86f0 f   UIPart.obj
 0001:000b7740       ?Read@UIText@@UAE_NAAVCreaturesArchive@@@Z 004b8740 f   UIPart.obj
 0001:000b77c0       ?CreateNewUIFixedText@@YAPAVPersistentObject@@XZ 004b87c0 f   UIPart.obj
 0001:000b7850       ?GetClassNameX@UIFixedText@@UBEPBDXZ 004b8850 f   UIPart.obj
 0001:000b7860       ??0UIFixedText@@QAE@XZ     004b8860 f   UIPart.obj
 0001:000b7950       ??_GUIFixedText@@UAEPAXI@Z 004b8950 f i UIPart.obj
 0001:000b7950       ??_EUIFixedText@@UAEPAXI@Z 004b8950 f i UIPart.obj
 0001:000b7980       ??0UIFixedText@@QAE@ABVFilePath@@HHAAVVector2D@@HV?$basic_string@DU?$char_traits@D@std@@V?$allocator@D@2@@std@@@Z 004b8980 f   UIPart.obj
 0001:000b7a90       ??1UIFixedText@@UAE@XZ     004b8a90 f   UIPart.obj
 0001:000b7bb0       ?SetText@UIFixedText@@UAEXV?$basic_string@DU?$char_traits@D@std@@V?$allocator@D@2@@std@@@Z 004b8bb0 f   UIPart.obj
 0001:000b7d30       ?GetText@UIFixedText@@UBE?AV?$basic_string@DU?$char_traits@D@std@@V?$allocator@D@2@@std@@XZ 004b8d30 f   UIPart.obj
 0001:000b7e80       ?Draw@UITextPart@@IAEXXZ   004b8e80 f   UIPart.obj
 0001:000b8210       ?Write@UIFixedText@@UBE_NAAVCreaturesArchive@@@Z 004b9210 f   UIPart.obj
 0001:000b8230       ?Read@UIFixedText@@UAE_NAAVCreaturesArchive@@@Z 004b9230 f   UIPart.obj
 0001:000b8270       ?CreateNewUIGraph@@YAPAVPersistentObject@@XZ 004b9270 f   UIPart.obj
 0001:000b8300       ?GetClassNameX@UIGraph@@UBEPBDXZ 004b9300 f   UIPart.obj
 0001:000b8310       ??0UIGraph@@QAE@XZ         004b9310 f   UIPart.obj
 0001:000b8350       ??_EUIGraph@@UAEPAXI@Z     004b9350 f i UIPart.obj
 0001:000b8350       ??_GUIGraph@@UAEPAXI@Z     004b9350 f i UIPart.obj
 0001:000b8380       ??1UIGraph@@UAE@XZ         004b9380 f i UIPart.obj
 0001:000b8450       ??0UIGraph@@QAE@ABVFilePath@@HHAAVVector2D@@HH@Z 004b9450 f   UIPart.obj
 0001:000b84a0       ?AddLine@UIGraph@@QAEHHHHMM@Z 004b94a0 f   UIPart.obj
 0001:000b85b0       ??1Line@UIGraph@@QAE@XZ    004b95b0 f i UIPart.obj
 0001:000b85e0       ?AddValue@UIGraph@@QAEXHM@Z 004b95e0 f   UIPart.obj
 0001:000b8670       ?Write@UIGraph@@UBE_NAAVCreaturesArchive@@@Z 004b9670 f   UIPart.obj
 0001:000b8710       ?Read@UIGraph@@UAE_NAAVCreaturesArchive@@@Z 004b9710 f   UIPart.obj
 0001:000b8760       ?Draw@UIGraph@@IAEXXZ      004b9760 f   UIPart.obj
 0001:000b8890       ?CreateNewUIGenerative@@YAPAVPersistentObject@@XZ 004b9890 f   UIPart.obj
 0001:000b8920       ?GetClassNameX@UIGenerative@@UBEPBDXZ 004b9920 f   UIPart.obj
 0001:000b8930       ??0UIGenerative@@QAE@XZ    004b9930 f   UIPart.obj
 0001:000b8ad0       ??_GUIGenerative@@UAEPAXI@Z 004b9ad0 f i UIPart.obj
 0001:000b8ad0       ??_EUIGenerative@@UAEPAXI@Z 004b9ad0 f i UIPart.obj
 0001:000b8b00       ??1UIGenerative@@UAE@XZ    004b9b00 f i UIPart.obj
 0001:000b8b90       ?Write@UIGenerative@@UBE_NAAVCreaturesArchive@@@Z 004b9b90 f   UIPart.obj
 0001:000b8bb0       ?Read@UIGenerative@@UAE_NAAVCreaturesArchive@@@Z 004b9bb0 f   UIPart.obj
 0001:000b8bf0       ??6@YAAAVCreaturesArchive@@AAV0@ABVLine@UIGraph@@@Z 004b9bf0 f   UIPart.obj
 0001:000b8ca0       ??5@YAAAVCreaturesArchive@@AAV0@AAVLine@UIGraph@@@Z 004b9ca0 f   UIPart.obj
 0001:000b8e30       ??6@YAAAVCreaturesArchive@@AAV0@ABULine@UITextPart@@@Z 004b9e30 f   UIPart.obj
 0001:000b8e70       ??5@YAAAVCreaturesArchive@@AAV0@AAULine@UITextPart@@@Z 004b9e70 f   UIPart.obj
 0001:000b8ea0       ??6@YAAAVCreaturesArchive@@AAV0@ABUPage@UITextPart@@@Z 004b9ea0 f   UIPart.obj
 0001:000b8ed0       ??5@YAAAVCreaturesArchive@@AAV0@AAUPage@UITextPart@@@Z 004b9ed0 f   UIPart.obj
 0001:000b8f00       ?Tint@UIPartWithClonedImage@@UAEXPBG_N@Z 004b9f00 f   UIPart.obj
 0001:000b8f30       ?DrawAlphaBlended@UIPartWithClonedImage@@UAEX_NH@Z 004b9f30 f   UIPart.obj
 0001:000b8f60       ??0?$vector@UCharStyle@Sprite@@V?$allocator@UCharStyle@Sprite@@@std@@@std@@QAE@ABV01@@Z 004b9f60 f i UIPart.obj
 0001:000b8fd0       ??A?$vector@ULine@UITextPart@@V?$allocator@ULine@UITextPart@@@std@@@std@@QAEAAULine@UITextPart@@I@Z 004b9fd0 f i UIPart.obj
 0001:000b8ff0       ??0?$vector@UtagRECT@@V?$allocator@UtagRECT@@@std@@@std@@QAE@ABV?$allocator@UtagRECT@@@1@@Z 004b9ff0 f i UIPart.obj
 0001:000b8ff0       ??0?$vector@ULine@UITextPart@@V?$allocator@ULine@UITextPart@@@std@@@std@@QAE@ABV?$allocator@ULine@UITextPart@@@1@@Z 004b9ff0 f i UIPart.obj
 0001:000b8ff0       ??0?$vector@V?$basic_string@DU?$char_traits@D@std@@V?$allocator@D@2@@std@@V?$allocator@V?$basic_string@DU?$char_traits@D@std@@V?$allocator@D@2@@std@@@2@@std@@QAE@ABV?$allocator@V?$basic_string@DU?$char_traits@D@std@@V?$allocator@D@2@@std@@@1@@Z 004b9ff0 f i UIPart.obj
 0001:000b8ff0       ??0?$vector@UPage@UITextPart@@V?$allocator@UPage@UITextPart@@@std@@@std@@QAE@ABV?$allocator@UPage@UITextPart@@@1@@Z 004b9ff0 f i UIPart.obj
 0001:000b9010       ?size@?$vector@UPage@UITextPart@@V?$allocator@UPage@UITextPart@@@std@@@std@@QBEIXZ 004ba010 f i UIPart.obj
 0001:000b9010       ?size@?$vector@UCharStyle@Sprite@@V?$allocator@UCharStyle@Sprite@@@std@@@std@@QBEIXZ 004ba010 f i UIPart.obj
 0001:000b9010       ?size@?$vector@VVector2D@@V?$allocator@VVector2D@@@std@@@std@@QBEIXZ 004ba010 f i UIPart.obj
 0001:000b9030       ?insert@?$vector@UCharStyle@Sprite@@V?$allocator@UCharStyle@Sprite@@@std@@@std@@QAEPAUCharStyle@Sprite@@PAU34@ABU34@@Z 004ba030 f i UIPart.obj
 0001:000b9200       ?_Ucopy@?$vector@VVector2D@@V?$allocator@VVector2D@@@std@@@std@@IAEPAVVector2D@@PBV3@0PAV3@@Z 004ba200 f i UIPart.obj
 0001:000b9200       ?_Ucopy@?$vector@UPage@UITextPart@@V?$allocator@UPage@UITextPart@@@std@@@std@@IAEPAUPage@UITextPart@@PBU34@0PAU34@@Z 004ba200 f i UIPart.obj
 0001:000b9200       ?_Ucopy@?$vector@UCharStyle@Sprite@@V?$allocator@UCharStyle@Sprite@@@std@@@std@@IAEPAUCharStyle@Sprite@@PBU34@0PAU34@@Z 004ba200 f i UIPart.obj
 0001:000b9240       ?insert@?$vector@UPage@UITextPart@@V?$allocator@UPage@UITextPart@@@std@@@std@@QAEXPAUPage@UITextPart@@IABU34@@Z 004ba240 f i UIPart.obj
 0001:000b9490       ?erase@?$vector@UPage@UITextPart@@V?$allocator@UPage@UITextPart@@@std@@@std@@QAEPAUPage@UITextPart@@PAU34@0@Z 004ba490 f i UIPart.obj
 0001:000b9490       ?erase@?$vector@UCharStyle@Sprite@@V?$allocator@UCharStyle@Sprite@@@std@@@std@@QAEPAUCharStyle@Sprite@@PAU34@0@Z 004ba490 f i UIPart.obj
 0001:000b94d0       ?_Ufill@?$vector@UCharStyle@Sprite@@V?$allocator@UCharStyle@Sprite@@@std@@@std@@IAEXPAUCharStyle@Sprite@@IABU34@@Z 004ba4d0 f i UIPart.obj
 0001:000b94d0       ?_Ufill@?$vector@VVector2D@@V?$allocator@VVector2D@@@std@@@std@@IAEXPAVVector2D@@IABV3@@Z 004ba4d0 f i UIPart.obj
 0001:000b94d0       ?_Ufill@?$vector@UPage@UITextPart@@V?$allocator@UPage@UITextPart@@@std@@@std@@IAEXPAUPage@UITextPart@@IABU34@@Z 004ba4d0 f i UIPart.obj
 0001:000b9500       ?UnClone@Agent@@UAEXH@Z    004ba500 f i UIPart.obj
 0001:000b9500       ?SetDirection@Creature@@UAEXH@Z 004ba500 f i UIPart.obj
 0001:000b9500       ?ChangePhysicalPlane@Agent@@UAEXH@Z 004ba500 f i UIPart.obj
 0001:000b9500       ?SetGait@Creature@@UAEXH@Z 004ba500 f i UIPart.obj
 0001:000b9500       ?SetEyeState@Creature@@UAEXH@Z 004ba500 f i UIPart.obj
 0001:000b9500       ?destroy@?$allocator@M@std@@QAEXPAM@Z 004ba500 f i UIPart.obj
 0001:000b9500       ?ChangeHairStateInSomeWay@Creature@@UAEXH@Z 004ba500 f i UIPart.obj
 0001:000b9510       ?insert@?$vector@VLine@UIGraph@@V?$allocator@VLine@UIGraph@@@std@@@std@@QAEXPAVLine@UIGraph@@IABV34@@Z 004ba510 f i UIPart.obj
 0001:000b9870       ??5@YAAAVCreaturesArchive@@AAV0@AAV?$vector@VLine@UIGraph@@V?$allocator@VLine@UIGraph@@@std@@@std@@@Z 004ba870 f i UIPart.obj
 0001:000b9a80       ?size@?$vector@VLine@UIGraph@@V?$allocator@VLine@UIGraph@@@std@@@std@@QBEIXZ 004baa80 f i UIPart.obj
 0001:000b9a80       ?size@?$vector@VVocab@@V?$allocator@VVocab@@@std@@@std@@QBEIXZ 004baa80 f i UIPart.obj
 0001:000b9ab0       ?copy@std@@YAPAUPage@UITextPart@@PAU23@00@Z 004baab0 f i UIPart.obj
 0001:000b9ae0       ?_Construct@std@@YAXPAEABE@Z 004baae0 f i UIPart.obj
 0001:000b9b00       ?_Construct@std@@YAXPAVLine@UIGraph@@ABV23@@Z 004bab00 f i UIPart.obj
 0001:000b9bc0       ??4Line@UIGraph@@QAEAAV01@ABV01@@Z 004babc0 f i UIPart.obj
 0001:000b9d80       ?resize@?$vector@ULine@UITextPart@@V?$allocator@ULine@UITextPart@@@std@@@std@@QAEXIABULine@UITextPart@@@Z 004bad80 f i UIPart.obj
 0001:000ba030       ?_Ucopy@?$vector@ULine@UITextPart@@V?$allocator@ULine@UITextPart@@@std@@@std@@IAEPAULine@UITextPart@@PBU34@0PAU34@@Z 004bb030 f i UIPart.obj
 0001:000ba080       ?_Ufill@?$vector@ULine@UITextPart@@V?$allocator@ULine@UITextPart@@@std@@@std@@IAEXPAULine@UITextPart@@IABU34@@Z 004bb080 f i UIPart.obj
 0001:000ba0c0       ?resize@?$vector@UPage@UITextPart@@V?$allocator@UPage@UITextPart@@@std@@@std@@QAEXIABUPage@UITextPart@@@Z 004bb0c0 f i UIPart.obj
 0001:000ba2d0       ??4?$vector@MV?$allocator@M@std@@@std@@QAEAAV01@ABV01@@Z 004bb2d0 f i UIPart.obj
 0001:000ba2d0       ??4?$vector@KV?$allocator@K@std@@@std@@QAEAAV01@ABV01@@Z 004bb2d0 f i UIPart.obj
 0001:000ba2d0       ??4?$vector@HV?$allocator@H@std@@@std@@QAEAAV01@ABV01@@Z 004bb2d0 f i UIPart.obj
 0001:000ba2d0       ??4?$vector@JV?$allocator@J@std@@@std@@QAEAAV01@ABV01@@Z 004bb2d0 f i UIPart.obj
 0001:000ba460       ?erase@?$vector@VLine@UIGraph@@V?$allocator@VLine@UIGraph@@@std@@@std@@QAEPAVLine@UIGraph@@PAV34@0@Z 004bb460 f i UIPart.obj
 0001:000ba510       ??_EUIText@@WKI@AEPAXI@Z   004bb510 f i UIPart.obj
 0001:000ba600       ?CreateNewVehicle@@YAPAVPersistentObject@@XZ 004bb600 f   Vehicle.obj
 0001:000ba690       ?GetClassNameX@Vehicle@@UBEPBDXZ 004bb690 f   Vehicle.obj
 0001:000ba6a0       ?ChangeCameraShyStatus@Vehicle@@UAEX_N@Z 004bb6a0 f   Vehicle.obj
 0001:000ba6f0       ?Init@Vehicle@@IAEXXZ      004bb6f0 f   Vehicle.obj
 0001:000ba760       ??0Vehicle@@QAE@XZ         004bb760 f   Vehicle.obj
 0001:000ba7c0       ??_GVehicle@@UAEPAXI@Z     004bb7c0 f i Vehicle.obj
 0001:000ba7c0       ??_EVehicle@@UAEPAXI@Z     004bb7c0 f i Vehicle.obj
 0001:000ba7f0       ??0Vehicle@@QAE@HHHKABVFilePath@@HHH@Z 004bb7f0 f   Vehicle.obj
 0001:000baa40       ??1Vehicle@@UAE@XZ         004bba40 f   Vehicle.obj
 0001:000baae0       ?SetPlane@Vehicle@@UAEXHH@Z 004bbae0 f   Vehicle.obj
 0001:000babe0       ?ChangePhysicalPlane@Vehicle@@UAEXH@Z 004bbbe0 f   Vehicle.obj
 0001:000bace0       ?GetCabinPlane@Vehicle@@QAEHXZ 004bbce0 f   Vehicle.obj
 0001:000bad00       ?GetPassengers@Vehicle@@QAEXHHHH@Z 004bbd00 f   Vehicle.obj
 0001:000baef0       ?GetPassenger@Vehicle@@QAEXAAVAgentHandle@@@Z 004bbef0 f   Vehicle.obj
 0001:000baf60       ?DropPassengers@Vehicle@@QAEXHHH@Z 004bbf60 f   Vehicle.obj
 0001:000bb060       ?DropPassenger@Vehicle@@QAEXAAVAgentHandle@@@Z 004bc060 f   Vehicle.obj
 0001:000bb0e0       ?Write@Vehicle@@UBE_NAAVCreaturesArchive@@@Z 004bc0e0 f   Vehicle.obj
 0001:000bb180       ?Read@Vehicle@@UAE_NAAVCreaturesArchive@@@Z 004bc180 f   Vehicle.obj
 0001:000bb200       ?MoveTo@Vehicle@@UAEXMM@Z  004bc200 f   Vehicle.obj
 0001:000bb280       ?ShiftPassengers@Vehicle@@IAEXABVVector2D@@@Z 004bc280 f   Vehicle.obj
 0001:000bb330       ?CanStartCarrying@Vehicle@@MAE_NAAVAgentHandle@@@Z 004bc330 f   Vehicle.obj
 0001:000bb3d0       ?StartCarrying@Vehicle@@MAEXAAVAgentHandle@@@Z 004bc3d0 f   Vehicle.obj
 0001:000bb6c0       ?StopCarrying@Vehicle@@MAEXAAVAgentHandle@@@Z 004bc6c0 f   Vehicle.obj
 0001:000bb8c0       ?Trash@Vehicle@@UAEXXZ     004bc8c0 f   Vehicle.obj
 0001:000bb8e0       ?GetPlaneForCarriedAgent@Vehicle@@UAEJXZ 004bc8e0 f   Vehicle.obj
 0001:000bb8f0       ?GetCarried@Vehicle@@UAE?AVAgentHandle@@XZ 004bc8f0 f i Vehicle.obj
 0001:000bb980       ?Update@Vehicle@@UAEXXZ    004bc980 f   Vehicle.obj
 0001:000bbaf0       ?BreakLinksToOtherAgents@Vehicle@@UAEXXZ 004bcaf0 f   Vehicle.obj
 0001:000bbcb0       ?CreateNewVoice@@YAPAVPersistentObject@@XZ 004bccb0 f   voice.obj
 0001:000bbd40       ?GetClassNameX@Voice@@UBEPBDXZ 004bcd40 f   voice.obj
 0001:000bbd50       ??0Voice@@QAE@XZ           004bcd50 f   voice.obj
 0001:000bbf00       ??_GVoice@@UAEPAXI@Z       004bcf00 f i voice.obj
 0001:000bbf00       ??_EVoice@@UAEPAXI@Z       004bcf00 f i voice.obj
 0001:000bbf30       ?GetOutput@Voice@@AAEJJJJ@Z 004bcf30 f   voice.obj
 0001:000bbfd0       ?GetSound@Voice@@AAEXDDDAAKAAH@Z 004bcfd0 f   voice.obj
 0001:000bc0b0       ?BeginSentence@Voice@@QAE_NV?$basic_string@DU?$char_traits@D@std@@V?$allocator@D@2@@std@@@Z 004bd0b0 f   voice.obj
 0001:000bc350       ?GetNextSyllable@Voice@@QAE_NAAKAAJ@Z 004bd350 f   voice.obj
 0001:000bc5d0       ?GetSentenceDelay@Voice@@QAEJXZ 004bd5d0 f   voice.obj
 0001:000bc5e0       ?ReadData@Voice@@QAE_NAAV?$basic_string@DU?$char_traits@D@std@@V?$allocator@D@2@@std@@@Z 004bd5e0 f   voice.obj
 0001:000bca60       ?ReadData@Voice@@QAE_NEEE@Z 004bda60 f   voice.obj
 0001:000bd210       ?Write@Voice@@UBE_NAAVCreaturesArchive@@@Z 004be210 f   voice.obj
 0001:000bd280       ?Read@Voice@@UAE_NAAVCreaturesArchive@@@Z 004be280 f   voice.obj
 0001:000bd400       ?RegisterTable@AutoDocumentationTable@@SAHPAVTableSpec@@H@Z 004be400 f   AutoDocumentationTable.obj
 0001:000bd440       ?SortComparison@AutoDocumentationTable@@KA_NU?$pair@PAVTableSpec@@H@std@@0@Z 004be440 f   AutoDocumentationTable.obj
 0001:000bd460       ?SortTablesByTitle@AutoDocumentationTable@@KAXXZ 004be460 f   AutoDocumentationTable.obj
 0001:000bd800       ?StreamTitleLinksAsHTML@AutoDocumentationTable@@SAXAAV?$basic_ostream@DU?$char_traits@D@std@@@std@@@Z 004be800 f   AutoDocumentationTable.obj
 0001:000bd920       ?StreamAllTablesAsHTML@AutoDocumentationTable@@SAXAAV?$basic_ostream@DU?$char_traits@D@std@@@std@@@Z 004be920 f   AutoDocumentationTable.obj
 0001:000bd980       ?StreamTableAsHTML@AutoDocumentationTable@@KAXAAV?$basic_ostream@DU?$char_traits@D@std@@@std@@PAVTableSpec@@H@Z 004be980 f   AutoDocumentationTable.obj
 0001:000bdce0       ?GetOurTables@AutoDocumentationTable@@KAAAV?$vector@U?$pair@PAVTableSpec@@H@std@@V?$allocator@U?$pair@PAVTableSpec@@H@std@@@2@@std@@XZ 004bece0 f   AutoDocumentationTable.obj
 0001:000bdd50       ?insert@?$vector@U?$pair@PAVTableSpec@@H@std@@V?$allocator@U?$pair@PAVTableSpec@@H@std@@@2@@std@@QAEXPAU?$pair@PAVTableSpec@@H@2@IABU32@@Z 004bed50 f i AutoDocumentationTable.obj
 0001:000bdfa0       ?_Sort@std@@YAXPAU?$pair@PAVTableSpec@@H@1@0P6A_NU21@1@Z0@Z 004befa0 f i AutoDocumentationTable.obj
 0001:000be170       ?_Unguarded_partition@std@@YAPAU?$pair@PAVTableSpec@@H@1@PAU21@0U21@P6A_N11@Z@Z 004bf170 f i AutoDocumentationTable.obj
 0001:000be310       ?FindCommand@CAOSDescription@@QAEPBVOpSpec@@PBD@Z 004bf310 f   CAOSDescription.obj
 0001:000be330       ?FindSubCommand@CAOSDescription@@QAEPBVOpSpec@@PBDPBV2@@Z 004bf330 f   CAOSDescription.obj
 0001:000be350       ?FindVariable@CAOSDescription@@QAEPBVOpSpec@@PBD@Z 004bf350 f   CAOSDescription.obj
 0001:000be370       ?FindIntegerRV@CAOSDescription@@QAEPBVOpSpec@@PBD@Z 004bf370 f   CAOSDescription.obj
 0001:000be390       ?FindFloatRV@CAOSDescription@@QAEPBVOpSpec@@PBD@Z 004bf390 f   CAOSDescription.obj
 0001:000be3b0       ?FindStringRV@CAOSDescription@@QAEPBVOpSpec@@PBD@Z 004bf3b0 f   CAOSDescription.obj
 0001:000be3d0       ?FindAgentRV@CAOSDescription@@QAEPBVOpSpec@@PBD@Z 004bf3d0 f   CAOSDescription.obj
 0001:000be3f0       ?FindOp@CAOSDescription@@AAEPAVOpSpec@@PBDH@Z 004bf3f0 f   CAOSDescription.obj
 0001:000be480       ??0CAOSDescription@@QAE@XZ 004bf480 f   CAOSDescription.obj
 0001:000be4d0       ?PushTable@CAOSDescription@@QAEXHPAVOpSpec@@H0@Z 004bf4d0 f   CAOSDescription.obj
 0001:000be6f0       ?PushTable@CAOSDescription@@QAEXVHandlerFunction@@HABV?$basic_string@DU?$char_traits@D@std@@V?$allocator@D@2@@std@@PAVOpSpec@@H@Z 004bf6f0 f   CAOSDescription.obj
 0001:000be940       ??0OpSpec@@QAE@V?$basic_string@DU?$char_traits@D@std@@V?$allocator@D@2@@std@@VHandlerFunction@@H0H0@Z 004bf940 f i CAOSDescription.obj
 0001:000beb30       ?GetTable@CAOSDescription@@QAEAAV?$vector@VOpSpec@@V?$allocator@VOpSpec@@@std@@@std@@H@Z 004bfb30 f   CAOSDescription.obj
 0001:000bec50       ?SaveSyntax@CAOSDescription@@QBE_NABV?$basic_string@DU?$char_traits@D@std@@V?$allocator@D@2@@std@@@Z 004bfc50 f   CAOSDescription.obj
 0001:000bf000       ?LoadSyntax@CAOSDescription@@QAE_NABV?$basic_string@DU?$char_traits@D@std@@V?$allocator@D@2@@std@@@Z 004c0000 f   CAOSDescription.obj
 0001:000bf450       ??0OpSpec@@QAE@XZ          004c0450 f i CAOSDescription.obj
 0001:000bf500       ?HelpOnOneCommand@CAOSDescription@@QAE?AV?$basic_string@DU?$char_traits@D@std@@V?$allocator@D@2@@std@@V23@@Z 004c0500 f   CAOSDescription.obj
 0001:000bf770       ?GetHelpOnOpspec@CAOSDescription@@QAE?AV?$basic_string@DU?$char_traits@D@std@@V?$allocator@D@2@@std@@AAVOpSpec@@@Z 004c0770 f   CAOSDescription.obj
 0001:000bfd80       ?GetHelpParameters@OpSpec@@QBE?AV?$basic_string@DU?$char_traits@D@std@@V?$allocator@D@2@@std@@XZ 004c0d80 f i CAOSDescription.obj
 0001:000bfed0       ?GetHelpGeneral@OpSpec@@QBE?AV?$basic_string@DU?$char_traits@D@std@@V?$allocator@D@2@@std@@XZ 004c0ed0 f i CAOSDescription.obj
 0001:000c0020       ?ListAllCommands@CAOSDescription@@QAE?AV?$basic_string@DU?$char_traits@D@std@@V?$allocator@D@2@@std@@XZ 004c1020 f   CAOSDescription.obj
 0001:000c02b0       ?Apropos@CAOSDescription@@QAE?AV?$basic_string@DU?$char_traits@D@std@@V?$allocator@D@2@@std@@V23@@Z 004c12b0 f   CAOSDescription.obj
 0001:000c04f0       ?StreamHelpAsHTML@CAOSDescription@@QAEXAAV?$basic_ostream@DU?$char_traits@D@std@@@std@@_N@Z 004c14f0 f   CAOSDescription.obj
 0001:000c17b0       ?MakeGrandTable@CAOSDescription@@QAEXAAV?$vector@VOpSpec@@V?$allocator@VOpSpec@@@std@@@std@@@Z 004c27b0 f   CAOSDescription.obj
 0001:000c1d60       ??0HandlerFunction@@QAE@P6AAAVCAOSVar@@AAVCAOSMachine@@@Z@Z 004c2d60 f i CAOSDescription.obj
 0001:000c1d80       ??0OpSpec@@QAE@V?$basic_string@DU?$char_traits@D@std@@V?$allocator@D@2@@std@@VHandlerFunction@@00H0@Z 004c2d80 f i CAOSDescription.obj
 0001:000c1f50       ?HyperlinkAndAnchorise@CAOSDescription@@SAXAAV?$basic_string@DU?$char_traits@D@std@@V?$allocator@D@2@@std@@@Z 004c2f50 f   CAOSDescription.obj
 0001:000c2270       ?GetTypeAsText@CAOSDescription@@QAE?AV?$basic_string@DU?$char_traits@D@std@@V?$allocator@D@2@@std@@D@Z 004c3270 f   CAOSDescription.obj
 0001:000c2630       ?AddTableRegisterFunction@CAOSDescription@@SAHP6AXAAV1@@Z@Z 004c3630 f   CAOSDescription.obj
 0001:000c27f0       ?GetTableRegisterFunctions@CAOSDescription@@CAAAV?$vector@P6AXAAVCAOSDescription@@@ZV?$allocator@P6AXAAVCAOSDescription@@@Z@std@@@std@@XZ 004c37f0 f   CAOSDescription.obj
 0001:000c2860       ?LoadDefaultTables@CAOSDescription@@QAEXXZ 004c3860 f   CAOSDescription.obj
 0001:000c2890       ?SetEngineVersion@CAOSDescription@@QAEXABV?$basic_string@DU?$char_traits@D@std@@V?$allocator@D@2@@std@@@Z 004c3890 f   CAOSDescription.obj
 0001:000c29e0       ?SetCategoryText@CAOSDescription@@QAEXABV?$vector@V?$basic_string@DU?$char_traits@D@std@@V?$allocator@D@2@@std@@V?$allocator@V?$basic_string@DU?$char_traits@D@std@@V?$allocator@D@2@@std@@@2@@std@@@Z 004c39e0 f   CAOSDescription.obj
 0001:000c2bf0       ?SetScriptNames@CAOSDescription@@QAEXABV?$vector@V?$basic_string@DU?$char_traits@D@std@@V?$allocator@D@2@@std@@V?$allocator@V?$basic_string@DU?$char_traits@D@std@@V?$allocator@D@2@@std@@@2@@std@@@Z 004c3bf0 f   CAOSDescription.obj
 0001:000c2e00       ??1?$vector@VOpSpec@@V?$allocator@VOpSpec@@@std@@@std@@QAE@XZ 004c3e00 f i CAOSDescription.obj
 0001:000c2e40       ?size@?$vector@VOpSpec@@V?$allocator@VOpSpec@@@std@@@std@@QBEIXZ 004c3e40 f i CAOSDescription.obj
 0001:000c2e60       ?insert@?$vector@V?$vector@VOpSpec@@V?$allocator@VOpSpec@@@std@@@std@@V?$allocator@V?$vector@VOpSpec@@V?$allocator@VOpSpec@@@std@@@std@@@2@@std@@QAEXPAV?$vector@VOpSpec@@V?$allocator@VOpSpec@@@std@@@2@IABV32@@Z 004c3e60 f i CAOSDescription.obj
 0001:000c3100       ?erase@?$vector@V?$vector@VOpSpec@@V?$allocator@VOpSpec@@@std@@@std@@V?$allocator@V?$vector@VOpSpec@@V?$allocator@VOpSpec@@@std@@@std@@@2@@std@@QAEPAV?$vector@VOpSpec@@V?$allocator@VOpSpec@@@std@@@2@PAV32@0@Z 004c4100 f i CAOSDescription.obj
 0001:000c31b0       ?insert@?$vector@VOpSpec@@V?$allocator@VOpSpec@@@std@@@std@@QAEPAVOpSpec@@PAV3@ABV3@@Z 004c41b0 f i CAOSDescription.obj
 0001:000c3360       ?insert@?$vector@VOpSpec@@V?$allocator@VOpSpec@@@std@@@std@@QAEXPAVOpSpec@@IABV3@@Z 004c4360 f i CAOSDescription.obj
 0001:000c36d0       ?erase@?$vector@VOpSpec@@V?$allocator@VOpSpec@@@std@@@std@@QAEPAVOpSpec@@PAV3@0@Z 004c46d0 f i CAOSDescription.obj
 0001:000c3820       ?_Ufill@?$vector@VOpSpec@@V?$allocator@VOpSpec@@@std@@@std@@IAEXPAVOpSpec@@IABV3@@Z 004c4820 f i CAOSDescription.obj
 0001:000c3850       ?fill@std@@YAXPAVOpSpec@@0ABV2@@Z 004c4850 f i CAOSDescription.obj
 0001:000c3ae0       ?copy_backward@std@@YAPAVOpSpec@@PAV2@00@Z 004c4ae0 f i CAOSDescription.obj
 0001:000c3d70       ?resize@?$vector@V?$basic_string@DU?$char_traits@D@std@@V?$allocator@D@2@@std@@V?$allocator@V?$basic_string@DU?$char_traits@D@std@@V?$allocator@D@2@@std@@@2@@std@@QAEXIABV?$basic_string@DU?$char_traits@D@std@@V?$allocator@D@2@@2@@Z 004c4d70 f i CAOSDescription.obj
 0001:000c3f80       ?_Sort_0@std@@YAXPAVOpSpec@@0P6A_NABV2@1@Z0@Z 004c4f80 f i CAOSDescription.obj
 0001:000c4260       ??0OpSpec@@QAE@ABV0@@Z     004c5260 f i CAOSDescription.obj
 0001:000c4390       ?_Sort@std@@YAXPAVOpSpec@@0P6A_NABV2@1@Z0@Z 004c5390 f i CAOSDescription.obj
 0001:000c44b0       ?_Unguarded_insert@std@@YAXPAVOpSpec@@V2@P6A_NABV2@2@Z@Z 004c54b0 f i CAOSDescription.obj
 0001:000c47b0       ?_Median@std@@YA?AVOpSpec@@V2@00P6A_NABV2@1@Z@Z 004c57b0 f i CAOSDescription.obj
 0001:000c4ad0       ?_Unguarded_partition@std@@YAPAVOpSpec@@PAV2@0V2@P6A_NABV2@2@Z@Z 004c5ad0 f i CAOSDescription.obj
 0001:000c4d80       ?CreateNewCAOSMachine@@YAPAVPersistentObject@@XZ 004c5d80 f   CAOSMachine.obj
 0001:000c4e10       ?GetClassNameX@CAOSMachine@@UBEPBDXZ 004c5e10 f   CAOSMachine.obj
 0001:000c4e20       ??5@YAAAVCreaturesArchive@@AAV0@AAPAVCAOSMachine@@@Z 004c5e20 f   CAOSMachine.obj
 0001:000c52c0       ?InitialiseHandlerTables@CAOSMachine@@SAXXZ 004c62c0 f   CAOSMachine.obj
 0001:000c57a0       ??0CAOSMachine@@QAE@XZ     004c67a0 f   CAOSMachine.obj
 0001:000c5910       ??1CAOSMachine@@UAE@XZ     004c6910 f   CAOSMachine.obj
 0001:000c5b00       ?ThrowRunError@CAOSMachine@@QAEXABVexception@@@Z 004c6b00 f   CAOSMachine.obj
 0001:000c5b30       ??0CAOSMachineRunError@@QAE@PBD@Z 004c6b30 f i CAOSMachine.obj
 0001:000c5c40       ?ThrowRunError@CAOSMachine@@SAXHZZ 004c6c40 f   CAOSMachine.obj
 0001:000c5e60       ?ThrowTagRunError@CAOSMachine@@SAXPBDHZZ 004c6e60 f   CAOSMachine.obj
 0001:000c6080       ?ThrowInvalidAgentHandle@CAOSMachine@@SAXHZZ 004c7080 f   CAOSMachine.obj
 0001:000c6280       ??_ETypeErr@CAOSVar@@UAEPAXI@Z 004c7280 f i CAOSMachine.obj
 0001:000c6280       ??_GEntityImageException@EntityImage@@UAEPAXI@Z 004c7280 f i CAOSMachine.obj
 0001:000c6280       ??_EEntityImageException@EntityImage@@UAEPAXI@Z 004c7280 f i CAOSMachine.obj
 0001:000c6280       ??_GMemoryMappedFileException@MemoryMappedFile@@UAEPAXI@Z 004c7280 f i CAOSMachine.obj
 0001:000c6280       ??_ESoundException@SoundManager@@UAEPAXI@Z 004c7280 f i CAOSMachine.obj
 0001:000c6280       ??_EGalleryException@Gallery@@UAEPAXI@Z 004c7280 f i CAOSMachine.obj
 0001:000c6280       ??_EException@CreaturesArchive@@UAEPAXI@Z 004c7280 f i CAOSMachine.obj
 0001:000c6280       ??_GCStyleException@@UAEPAXI@Z 004c7280 f i CAOSMachine.obj
 0001:000c6280       ??_GCameraException@Camera@@UAEPAXI@Z 004c7280 f i CAOSMachine.obj
 0001:000c6280       ??_ECStyleException@@UAEPAXI@Z 004c7280 f i CAOSMachine.obj
 0001:000c6280       ??_GSoundException@SoundManager@@UAEPAXI@Z 004c7280 f i CAOSMachine.obj
 0001:000c6280       ??_GCreatureGalleryException@CreatureGallery@@UAEPAXI@Z 004c7280 f i CAOSMachine.obj
 0001:000c6280       ??_EInvalidAgentHandle@CAOSMachine@@UAEPAXI@Z 004c7280 f i CAOSMachine.obj
 0001:000c6280       ??_GInvalidAgentHandle@CAOSMachine@@UAEPAXI@Z 004c7280 f i CAOSMachine.obj
 0001:000c6280       ??_GGalleryException@Gallery@@UAEPAXI@Z 004c7280 f i CAOSMachine.obj
 0001:000c6280       ??_GException@CreaturesArchive@@UAEPAXI@Z 004c7280 f i CAOSMachine.obj
 0001:000c6280       ??_ECameraException@Camera@@UAEPAXI@Z 004c7280 f i CAOSMachine.obj
 0001:000c6280       ??_EAgentHandleException@@UAEPAXI@Z 004c7280 f i CAOSMachine.obj
 0001:000c6280       ??_EFileException@File@@UAEPAXI@Z 004c7280 f i CAOSMachine.obj
 0001:000c6280       ??_EMemoryMappedFileException@MemoryMappedFile@@UAEPAXI@Z 004c7280 f i CAOSMachine.obj
 0001:000c6280       ??_ECreatureGalleryException@CreatureGallery@@UAEPAXI@Z 004c7280 f i CAOSMachine.obj
 0001:000c6280       ??_GTypeErr@CAOSVar@@UAEPAXI@Z 004c7280 f i CAOSMachine.obj
 0001:000c6280       ??_GAgentHandleException@@UAEPAXI@Z 004c7280 f i CAOSMachine.obj
 0001:000c6280       ??_GFileException@File@@UAEPAXI@Z 004c7280 f i CAOSMachine.obj
 0001:000c6280       ??_GGenomeException@Genome@@UAEPAXI@Z 004c7280 f i CAOSMachine.obj
 0001:000c6280       ??_EGenomeException@Genome@@UAEPAXI@Z 004c7280 f i CAOSMachine.obj
 0001:000c62b0       ??0InvalidAgentHandle@CAOSMachine@@QAE@ABV01@@Z 004c72b0 f i CAOSMachine.obj
 0001:000c6420       ?GetCreatureTarg@CAOSMachine@@QAEAAVCreature@@XZ 004c7420 f   CAOSMachine.obj
 0001:000c6460       ?GetSkeletalCreatureTarg@CAOSMachine@@QAEAAVSkeletalCreature@@XZ 004c7460 f   CAOSMachine.obj
 0001:000c64a0       ?StartScriptExecuting@CAOSMachine@@QAEXPAVMacroScript@@ABVAgentHandle@@ABVCAOSVar@@22@Z 004c74a0 f   CAOSMachine.obj
 0001:000c6580       ?StopScriptExecuting@CAOSMachine@@QAEXXZ 004c7580 f   CAOSMachine.obj
 0001:000c6700       ?DeleteOutputStreamIfResponsible@CAOSMachine@@AAEXXZ 004c7700 f   CAOSMachine.obj
 0001:000c6730       ?SetOutputStream@CAOSMachine@@QAEXPAV?$basic_ostream@DU?$char_traits@D@std@@@std@@_N@Z 004c7730 f   CAOSMachine.obj
 0001:000c6750       ?SetInputStream@CAOSMachine@@QAEXPAV?$basic_istream@DU?$char_traits@D@std@@@std@@@Z 004c7750 f   CAOSMachine.obj
 0001:000c6790       ?UpdateVM@CAOSMachine@@QAE_NH@Z 004c7790 f   CAOSMachine.obj
 0001:000c6ad0       ?CheckSingleStepAgent@@YA_NVAgentHandle@@@Z 004c7ad0 f i CAOSMachine.obj
 0001:000c6b30       ?GetAgentFromID@CAOSMachine@@QAE?AVAgentHandle@@H@Z 004c7b30 f   CAOSMachine.obj
 0001:000c6b60       ?Block@CAOSMachine@@QAEXXZ 004c7b60 f   CAOSMachine.obj
 0001:000c6b80       ?UnBlock@CAOSMachine@@QAEXXZ 004c7b80 f   CAOSMachine.obj
 0001:000c6b90       ?CopyBasicState@CAOSMachine@@QAEXAAV1@@Z 004c7b90 f   CAOSMachine.obj
 0001:000c6e30       ??0TypeErr@CAOSVar@@QAE@ABV01@@Z 004c7e30 f i CAOSMachine.obj
 0001:000c6fa0       ?FloatCompare@CAOSMachine@@AAE_NMMG@Z 004c7fa0 f   CAOSMachine.obj
 0001:000c7050       ?StringCompare@CAOSMachine@@AAE_NAAV?$basic_string@DU?$char_traits@D@std@@V?$allocator@D@2@@std@@0G@Z 004c8050 f   CAOSMachine.obj
 0001:000c7110       ?AgentCompare@CAOSMachine@@AAE_NABVAgentHandle@@0G@Z 004c8110 f   CAOSMachine.obj
 0001:000c7160       ?EvalNumericRVSingle@CAOSMachine@@AAE_NXZ 004c8160 f i CAOSMachine.obj
 0001:000c71b0       ?EvalAgentRVSingle@CAOSMachine@@AAE_NXZ 004c81b0 f i CAOSMachine.obj
 0001:000c7250       ?EvalStringRVSingle@CAOSMachine@@AAE_NXZ 004c8250 f i CAOSMachine.obj
 0001:000c7350       ?EvalVarSingle@CAOSMachine@@AAE_NXZ 004c8350 f i CAOSMachine.obj
 0001:000c75f0       ?EvaluateSingle@CAOSMachine@@AAE_NXZ 004c85f0 f   CAOSMachine.obj
 0001:000c7690       ?Evaluate@CAOSMachine@@QAE_NXZ 004c8690 f   CAOSMachine.obj
 0001:000c7710       ?FetchIntegerRV@CAOSMachine@@QAEHXZ 004c8710 f   CAOSMachine.obj
 0001:000c7750       ?FetchFloatRV@CAOSMachine@@QAEMXZ 004c8750 f   CAOSMachine.obj
 0001:000c7780       ?FetchStringRV@CAOSMachine@@QAEXAAV?$basic_string@DU?$char_traits@D@std@@V?$allocator@D@2@@std@@@Z 004c8780 f   CAOSMachine.obj
 0001:000c79d0       ?FetchAgentRV@CAOSMachine@@QAE?AVAgentHandle@@XZ 004c89d0 f   CAOSMachine.obj
 0001:000c7af0       ?FetchVariable@CAOSMachine@@QAEAAVCAOSVar@@XZ 004c8af0 f   CAOSMachine.obj
 0001:000c7b20       ?FetchRawData@CAOSMachine@@QAEPBXHH@Z 004c8b20 f   CAOSMachine.obj
 0001:000c7b50       ?FetchNumericRV@CAOSMachine@@QAEXAAHAAMAA_N@Z 004c8b50 f   CAOSMachine.obj
 0001:000c7d00       ?FetchGenericRV@CAOSMachine@@QAE?AVCAOSVar@@XZ 004c8d00 f   CAOSMachine.obj
 0001:000c8060       ?FetchOp@MacroScript@@QBEGAAH@Z 004c9060 f i CAOSMachine.obj
 0001:000c8080       ?FetchString@MacroScript@@QBEXAAHAAV?$basic_string@DU?$char_traits@D@std@@V?$allocator@D@2@@std@@@Z 004c9080 f i CAOSMachine.obj
 0001:000c8150       ?Write@CAOSMachine@@UBE_NAAVCreaturesArchive@@@Z 004c9150 f   CAOSMachine.obj
 0001:000c83a0       ?Read@CAOSMachine@@UAE_NAAVCreaturesArchive@@@Z 004c93a0 f   CAOSMachine.obj
 0001:000c8820       ?Command_TARG@CAOSMachine@@SAXAAV1@@Z 004c9820 f   CAOSMachine.obj
 0001:000c8880       ?Command_LOCK@CAOSMachine@@SAXAAV1@@Z 004c9880 f   CAOSMachine.obj
 0001:000c8890       ?Command_UNLK@CAOSMachine@@SAXAAV1@@Z 004c9890 f   CAOSMachine.obj
 0001:000c88a0       ?IntegerRV_invalid@CAOSMachine@@SAHAAV1@@Z 004c98a0 f   CAOSMachine.obj
 0001:000c88b0       ?StringRV_invalid@CAOSMachine@@SAXAAV1@AAV?$basic_string@DU?$char_traits@D@std@@V?$allocator@D@2@@std@@@Z 004c98b0 f   CAOSMachine.obj
 0001:000c88c0       ?Command_invalid@CAOSMachine@@SAXAAV1@@Z 004c98c0 f   CAOSMachine.obj
 0001:000c88d0       ?AgentRV_TARG@CAOSMachine@@SA?AVAgentHandle@@AAV1@@Z 004c98d0 f   CAOSMachine.obj
 0001:000c88f0       ?AgentRV_OWNR@CAOSMachine@@SA?AVAgentHandle@@AAV1@@Z 004c98f0 f   CAOSMachine.obj
 0001:000c8910       ?Variable_FROM@CAOSMachine@@SAAAVCAOSVar@@AAV1@@Z 004c9910 f   CAOSMachine.obj
 0001:000c8920       ?AgentRV_IT@CAOSMachine@@SA?AVAgentHandle@@AAV1@@Z 004c9920 f   CAOSMachine.obj
 0001:000c8940       ?Variable_VAnn@CAOSMachine@@SAAAVCAOSVar@@AAV1@@Z 004c9940 f   CAOSMachine.obj
 0001:000c8960       ?Variable_P1@CAOSMachine@@SAAAVCAOSVar@@AAV1@@Z 004c9960 f   CAOSMachine.obj
 0001:000c8970       ?Variable_P2@CAOSMachine@@SAAAVCAOSVar@@AAV1@@Z 004c9970 f   CAOSMachine.obj
 0001:000c8980       ?FormatErrorPos@CAOSMachine@@SAXAAV?$basic_ostream@DU?$char_traits@D@std@@@std@@HABV?$basic_string@DU?$char_traits@D@std@@V?$allocator@D@2@@3@@Z 004c9980 f   CAOSMachine.obj
 0001:000c8c30       ?StreamIPLocationInSource@CAOSMachine@@QAEXAAV?$basic_ostream@DU?$char_traits@D@std@@@std@@@Z 004c9c30 f   CAOSMachine.obj
 0001:000c8ce0       ?StreamClassifier@CAOSMachine@@QAEXAAV?$basic_ostream@DU?$char_traits@D@std@@@std@@@Z 004c9ce0 f   CAOSMachine.obj
 0001:000c8d50       ?insert@?$vector@PAVCompoundPart@@V?$allocator@PAVCompoundPart@@@std@@@std@@QAEXPAPAVCompoundPart@@IABQAV3@@Z 004c9d50 f i CAOSMachine.obj
 0001:000c8d50       ?insert@?$vector@MV?$allocator@M@std@@@std@@QAEXPAMIABM@Z 004c9d50 f i CAOSMachine.obj
 0001:000c8d50       ?insert@?$vector@PAEV?$allocator@PAE@std@@@std@@QAEXPAPAEIABQAE@Z 004c9d50 f i CAOSMachine.obj
 0001:000c8d50       ?insert@?$vector@P6AMAAVCAOSMachine@@@ZV?$allocator@P6AMAAVCAOSMachine@@@Z@std@@@std@@QAEXPAP6AMAAVCAOSMachine@@@ZIABQ6AM0@Z@Z 004c9d50 f i CAOSMachine.obj
 0001:000c8d50       ?insert@?$vector@PAVPersistentObject@@V?$allocator@PAVPersistentObject@@@std@@@std@@QAEXPAPAVPersistentObject@@IABQAV3@@Z 004c9d50 f i CAOSMachine.obj
 0001:000c8d50       ?insert@?$vector@KV?$allocator@K@std@@@std@@QAEXPAKIABK@Z 004c9d50 f i CAOSMachine.obj
 0001:000c8d50       ?insert@?$vector@PAVBackground@@V?$allocator@PAVBackground@@@std@@@std@@QAEXPAPAVBackground@@IABQAV3@@Z 004c9d50 f i CAOSMachine.obj
 0001:000c8d50       ?insert@?$vector@PAVCamera@@V?$allocator@PAVCamera@@@std@@@std@@QAEXPAPAVCamera@@IABQAV3@@Z 004c9d50 f i CAOSMachine.obj
 0001:000c8d50       ?insert@?$vector@PAVTract@@V?$allocator@PAVTract@@@std@@@std@@QAEXPAPAVTract@@IABQAV3@@Z 004c9d50 f i CAOSMachine.obj
 0001:000c8d50       ?insert@?$vector@P6AHAAVCAOSMachine@@@ZV?$allocator@P6AHAAVCAOSMachine@@@Z@std@@@std@@QAEXPAP6AHAAVCAOSMachine@@@ZIABQ6AH0@Z@Z 004c9d50 f i CAOSMachine.obj
 0001:000c8d50       ?insert@?$vector@PAVLine@@V?$allocator@PAVLine@@@std@@@std@@QAEXPAPAVLine@@IABQAV3@@Z 004c9d50 f i CAOSMachine.obj
 0001:000c8d50       ?insert@?$vector@PAVBrainComponent@@V?$allocator@PAVBrainComponent@@@std@@@std@@QAEXPAPAVBrainComponent@@IABQAV3@@Z 004c9d50 f i CAOSMachine.obj
 0001:000c8d50       ?insert@?$vector@P6A?AVAgentHandle@@AAVCAOSMachine@@@ZV?$allocator@P6A?AVAgentHandle@@AAVCAOSMachine@@@Z@std@@@std@@QAEXPAP6A?AVAgentHandle@@AAVCAOSMachine@@@ZIABQ6A?AV3@0@Z@Z 004c9d50 f i CAOSMachine.obj
 0001:000c8d50       ?insert@?$vector@PAVMusicLayer@@V?$allocator@PAVMusicLayer@@@std@@@std@@QAEXPAPAVMusicLayer@@IABQAV3@@Z 004c9d50 f i CAOSMachine.obj
 0001:000c8d50       ?insert@?$vector@PAVMusicTrack@@V?$allocator@PAVMusicTrack@@@std@@@std@@QAEXPAPAVMusicTrack@@IABQAV3@@Z 004c9d50 f i CAOSMachine.obj
 0001:000c8d50       ?insert@?$vector@PAVMusicWave@@V?$allocator@PAVMusicWave@@@std@@@std@@QAEXPAPAVMusicWave@@IABQAV3@@Z 004c9d50 f i CAOSMachine.obj
 0001:000c8d50       ?insert@?$vector@PAUDendrite@@V?$allocator@PAUDendrite@@@std@@@std@@QAEXPAPAUDendrite@@IABQAU3@@Z 004c9d50 f i CAOSMachine.obj
 0001:000c8d50       ?insert@?$vector@PAUNeuron@@V?$allocator@PAUNeuron@@@std@@@std@@QAEXPAPAUNeuron@@IABQAU3@@Z 004c9d50 f i CAOSMachine.obj
 0001:000c8d50       ?insert@?$vector@HV?$allocator@H@std@@@std@@QAEXPAHIABH@Z 004c9d50 f i CAOSMachine.obj
 0001:000c8d50       ?insert@?$vector@PAVInputPort@@V?$allocator@PAVInputPort@@@std@@@std@@QAEXPAPAVInputPort@@IABQAV3@@Z 004c9d50 f i CAOSMachine.obj
 0001:000c8d50       ?insert@?$vector@PAVOutputPort@@V?$allocator@PAVOutputPort@@@std@@@std@@QAEXPAPAVOutputPort@@IABQAV3@@Z 004c9d50 f i CAOSMachine.obj
 0001:000c8d50       ?insert@?$vector@PAUReceptor@@V?$allocator@PAUReceptor@@@std@@@std@@QAEXPAPAUReceptor@@IABQAU3@@Z 004c9d50 f i CAOSMachine.obj
 0001:000c8d50       ?insert@?$vector@JV?$allocator@J@std@@@std@@QAEXPAJIABJ@Z 004c9d50 f i CAOSMachine.obj
 0001:000c8f60       ?copy@std@@YAPAV?$basic_string@DU?$char_traits@D@std@@V?$allocator@D@2@@1@PBV21@0PAV21@@Z 004c9f60 f i CAOSMachine.obj
 0001:000c8f60       ?copy@std@@YAPAV?$basic_string@DU?$char_traits@D@std@@V?$allocator@D@2@@1@PAV21@00@Z 004c9f60 f i CAOSMachine.obj
 0001:000c9db0       ??0OpSpec@@QAE@V?$basic_string@DU?$char_traits@D@std@@V?$allocator@D@2@@std@@00H0@Z 004cadb0 f i CAOSTables.obj
 0001:000e17e0       ??0HandlerFunction@@QAE@P6AXAAVCAOSMachine@@@Z@Z 004e27e0 f i CAOSTables.obj
 0001:000e1800       ??0OpSpec@@QAE@V?$basic_string@DU?$char_traits@D@std@@V?$allocator@D@2@@std@@VHandlerFunction@@0H0H0@Z 004e2800 f i CAOSTables.obj
 0001:000e8700       ??0HandlerFunction@@QAE@P6AHAAVCAOSMachine@@@Z@Z 004e9700 f i CAOSTables.obj
 0001:000ec670       ??0HandlerFunction@@QAE@P6AXAAVCAOSMachine@@AAV?$basic_string@DU?$char_traits@D@std@@V?$allocator@D@2@@std@@@Z@Z 004ed670 f i CAOSTables.obj
 0001:000f0a40       ??0HandlerFunction@@QAE@P6AMAAVCAOSMachine@@@Z@Z 004f1a40 f i CAOSTables.obj
 0001:000f2b30       ??0HandlerFunction@@QAE@P6A?AVAgentHandle@@AAVCAOSMachine@@@Z@Z 004f3b30 f i CAOSTables.obj
 0001:00100d00       ?GeneralPushTables@@YAXAAVCAOSDescription@@@Z 00501d00 f   CAOSTables.obj
 0001:00101d30       ?insert@?$vector@V?$basic_string@DU?$char_traits@D@std@@V?$allocator@D@2@@std@@V?$allocator@V?$basic_string@DU?$char_traits@D@std@@V?$allocator@D@2@@std@@@2@@std@@QAEXPAV?$basic_string@DU?$char_traits@D@std@@V?$allocator@D@2@@2@PBV32@1@Z 00502d30 f i CAOSTables.obj
 0001:001020d0       ??6@YAAAVCreaturesArchive@@AAV0@ABVCAOSVar@@@Z 005030d0 f   CAOSVar.obj
 0001:001020f0       ??6@YAAAVCreaturesArchive@@AAV0@ABVTintManager@@@Z 005030f0 f   CAOSVar.obj
 0001:001020f0       ??5@YAAAVCreaturesArchive@@AAV0@AAVCAOSVar@@@Z 005030f0 f   CAOSVar.obj
 0001:00102110       ??MCAOSVar@@QBE_NABV0@@Z   00503110 f   CAOSVar.obj
 0001:00102230       ?Get@CAOSVar@@MBEXHAATPolyVar@1@@Z 00503230 f   CAOSVar.obj
 0001:00102240       ?Set@CAOSVar@@MAEXHABTPolyVar@1@@Z 00503240 f   CAOSVar.obj
 0001:001024b0       ??0CAOSVar@@QAE@ABV0@@Z    005034b0 f   CAOSVar.obj
 0001:00102540       ??4CAOSVar@@QAEAAV0@ABV0@@Z 00503540 f   CAOSVar.obj
 0001:001025a0       ?Write@CAOSVar@@UBE_NAAVCreaturesArchive@@@Z 005035a0 f   CAOSVar.obj
 0001:00102620       ?Read@CAOSVar@@UAE_NAAVCreaturesArchive@@@Z 00503620 f   CAOSVar.obj
 0001:00102770       ?Write@CAOSVar@@UBE_NAAV?$basic_ostream@DU?$char_traits@D@std@@@std@@@Z 00503770 f   CAOSVar.obj
 0001:001027e0       ?Read@CAOSVar@@UAE_NAAV?$basic_istream@DU?$char_traits@D@std@@@std@@@Z 005037e0 f   CAOSVar.obj
 0001:00102970       ?CreateNewDebugInfo@@YAPAVPersistentObject@@XZ 00503970 f   DebugInfo.obj
 0001:00102a50       ??_EDebugInfo@@UAEPAXI@Z   00503a50 f i DebugInfo.obj
 0001:00102a50       ??_GDebugInfo@@UAEPAXI@Z   00503a50 f i DebugInfo.obj
 0001:00102a80       ??1DebugInfo@@UAE@XZ       00503a80 f i DebugInfo.obj
 0001:00102b60       ?GetClassNameX@DebugInfo@@UBEPBDXZ 00503b60 f   DebugInfo.obj
 0001:00102b70       ??5@YAAAVCreaturesArchive@@AAV0@AAPAVDebugInfo@@@Z 00503b70 f   DebugInfo.obj
 0001:00102bd0       ?AddAddressToPositionMapping@DebugInfo@@QAEXHH@Z 00503bd0 f   DebugInfo.obj
 0001:00102d00       ?MapAddressToSource@DebugInfo@@QAEHH@Z 00503d00 f   DebugInfo.obj
 0001:00102d60       ?GetSourceCode@DebugInfo@@QAEXAAV?$basic_string@DU?$char_traits@D@std@@V?$allocator@D@2@@std@@@Z 00503d60 f   DebugInfo.obj
 0001:00102ec0       ?Write@DebugInfo@@UBE_NAAVCreaturesArchive@@@Z 00503ec0 f   DebugInfo.obj
 0001:00102f20       ?Read@DebugInfo@@UAE_NAAVCreaturesArchive@@@Z 00503f20 f   DebugInfo.obj
 0001:001030c0       ?erase@?$_Tree@HU?$pair@$$CBHH@std@@U_Kfn@?$map@HHU?$less@H@std@@V?$allocator@H@2@@2@U?$less@H@2@V?$allocator@H@2@@std@@QAE?AViterator@12@V312@0@Z 005040c0 f i DebugInfo.obj
 0001:00103170       ?_Min@?$_Tree@HU?$pair@$$CBHH@std@@U_Kfn@?$map@HHU?$less@H@std@@V?$allocator@H@2@@2@U?$less@H@2@V?$allocator@H@2@@std@@KAPAU_Node@12@PAU312@@Z 00504170 f i DebugInfo.obj
 0001:00103190       ??0Lexer@@QAE@XZ           00504190 f   Lexer.obj
 0001:001031b0       ?Attach@Lexer@@QAEXPBD@Z   005041b0 f   Lexer.obj
 0001:001031d0       ?SussCharConstant@Lexer@@AAE_NAAD@Z 005041d0 f   Lexer.obj
 0001:00103370       ?NextItem@Lexer@@QAEHXZ    00504370 f   Lexer.obj
 0001:00103450       ?SlurpBinaryConst@Lexer@@AAEHXZ 00504450 f   Lexer.obj
 0001:001034c0       ?SlurpDecimalConst@Lexer@@AAEHXZ 005044c0 f   Lexer.obj
 0001:00103570       ?SlurpCharConst@Lexer@@AAEHXZ 00504570 f   Lexer.obj
 0001:001035e0       ?SlurpString@Lexer@@AAEHXZ 005045e0 f   Lexer.obj
 0001:00103680       ?SlurpSymbol@Lexer@@AAEHXZ 00504680 f   Lexer.obj
 0001:00103810       ?SlurpComparison@Lexer@@AAEHXZ 00504810 f   Lexer.obj
 0001:001039a0       ?BackTrack@Lexer@@QAEXXZ   005049a0 f   Lexer.obj
 0001:001039b0       ?SkipWhiteSpace@Lexer@@AAEXXZ 005049b0 f   Lexer.obj
 0001:00103ac0       ?CreateNewMacroScript@@YAPAVPersistentObject@@XZ 00504ac0 f   MacroScript.obj
 0001:00103b50       ?GetClassNameX@MacroScript@@UBEPBDXZ 00504b50 f   MacroScript.obj
 0001:00103b60       ??5@YAAAVCreaturesArchive@@AAV0@AAPAVMacroScript@@@Z 00504b60 f   MacroScript.obj
 0001:00103bc0       ??0MacroScript@@QAE@PAEHPAVDebugInfo@@@Z 00504bc0 f   MacroScript.obj
 0001:00103c50       ??_GMacroScript@@UAEPAXI@Z 00504c50 f i MacroScript.obj
 0001:00103c50       ??_EMacroScript@@UAEPAXI@Z 00504c50 f i MacroScript.obj
 0001:00103c80       ??0MacroScript@@QAE@XZ     00504c80 f   MacroScript.obj
 0001:00103ce0       ??1MacroScript@@UAE@XZ     00504ce0 f   MacroScript.obj
 0001:00103d60       ?Lock@MacroScript@@QAEXXZ  00504d60 f   MacroScript.obj
 0001:00103d70       ?Unlock@MacroScript@@QAEXXZ 00504d70 f   MacroScript.obj
 0001:00103d80       ?IsLocked@MacroScript@@QAE_NXZ 00504d80 f   MacroScript.obj
 0001:00103d90       ?Write@MacroScript@@UBE_NAAVCreaturesArchive@@@Z 00504d90 f   MacroScript.obj
 0001:00103df0       ?Read@MacroScript@@UAE_NAAVCreaturesArchive@@@Z 00504df0 f   MacroScript.obj
 0001:001042b0       ?Write@OpSpec@@QBE_NAAVCreaturesArchive@@@Z 005052b0 f   OpSpec.obj
 0001:00104330       ?Read@OpSpec@@QAE_NAAVCreaturesArchive@@@Z 00505330 f   OpSpec.obj
 0001:001043c0       ?GetPrettyName@OpSpec@@QBE?AV?$basic_string@DU?$char_traits@D@std@@V?$allocator@D@2@@std@@XZ 005053c0 f   OpSpec.obj
 0001:001045a0       ?GetTableType@OpSpec@@CA?AV?$basic_string@DU?$char_traits@D@std@@V?$allocator@D@2@@std@@H@Z 005055a0 f   OpSpec.obj
 0001:00104810       ?GetPrettyType@OpSpec@@QBE?AV?$basic_string@DU?$char_traits@D@std@@V?$allocator@D@2@@std@@XZ 00505810 f   OpSpec.obj
 0001:00104850       ?IsSubCommand@OpSpec@@QBE_NXZ 00505850 f   OpSpec.obj
 0001:00104860       ?CompareAlphabetic@OpSpec@@SA_NABV1@0@Z 00505860 f   OpSpec.obj
 0001:001049f0       ?CompareTypeFirst@OpSpec@@SA_NABV1@0@Z 005059f0 f   OpSpec.obj
 0001:00104a20       ?CompareCommandsFirst@OpSpec@@SA_NABV1@0@Z 00505a20 f   OpSpec.obj
 0001:00104a60       ?SetSuperCommand@OpSpec@@QAEXABV1@@Z 00505a60 f   OpSpec.obj
 0001:00104c70       ??0Orderiser@@QAE@XZ       00505c70 f   Orderiser.obj
 0001:00104dd0       ??1?$stack@UBlockContext@Orderiser@@V?$deque@UBlockContext@Orderiser@@V?$allocator@UBlockContext@Orderiser@@@std@@@std@@@std@@QAE@XZ 00505dd0 f i Orderiser.obj
 0001:00104f00       ??1?$map@V?$basic_string@DU?$char_traits@D@std@@V?$allocator@D@2@@std@@HU?$less@V?$basic_string@DU?$char_traits@D@std@@V?$allocator@D@2@@std@@@2@V?$allocator@H@2@@std@@QAE@XZ 00505f00 f i Orderiser.obj
 0001:00104fd0       ??1Orderiser@@QAE@XZ       00505fd0 f   Orderiser.obj
 0001:001050f0       ?OrderFromCAOS@Orderiser@@QAEPAVMacroScript@@PBD@Z 005060f0 f   Orderiser.obj
 0001:00105390       ?EncodeOp@Orderiser@@AAE_NPBVOpSpec@@@Z 00506390 f   Orderiser.obj
 0001:00105680       ?ExpectStringRV@Orderiser@@AAE_NXZ 00506680 f   Orderiser.obj
 0001:00105730       ?ExpectAgentRV@Orderiser@@AAE_NXZ 00506730 f   Orderiser.obj
 0001:001057c0       ?ExpectAnyRV@Orderiser@@AAE_NAAH@Z 005067c0 f   Orderiser.obj
 0001:00105990       ?ExpectSubCommand@Orderiser@@AAE_NPBVOpSpec@@@Z 00506990 f   Orderiser.obj
 0001:001059e0       ?ExpectVariable@Orderiser@@AAE_NXZ 005069e0 f   Orderiser.obj
 0001:00105a20       ?ExpectNumericRV@Orderiser@@AAE_NXZ 00506a20 f   Orderiser.obj
 0001:00105b00       ?ExpectGenericRV@Orderiser@@AAE_NXZ 00506b00 f   Orderiser.obj
 0001:00105c50       ?ExpectConditional@Orderiser@@AAE_NXZ 00506c50 f   Orderiser.obj
 0001:00105d40       ?FetchLabel@Orderiser@@AAE_NXZ 00506d40 f   Orderiser.obj
 0001:00105d70       ?ResolveLabels@Orderiser@@AAE_NXZ 00506d70 f   Orderiser.obj
 0001:00105e30       ?GrowOutputBuffer@Orderiser@@AAEXH@Z 00506e30 f   Orderiser.obj
 0001:00105e90       ?PlonkInt@Orderiser@@AAEXHH@Z 00506e90 f   Orderiser.obj
 0001:00105ec0       ?PlonkFloat@Orderiser@@AAEXHM@Z 00506ec0 f   Orderiser.obj
 0001:00105ef0       ?PlonkOp@Orderiser@@AAEXHG@Z 00506ef0 f   Orderiser.obj
 0001:00105f20       ?PlonkByte@Orderiser@@AAEXHE@Z 00506f20 f   Orderiser.obj
 0001:00105f50       ?PeekInt@Orderiser@@AAEHH@Z 00506f50 f   Orderiser.obj
 0001:00105f60       ?EncodeInt@Orderiser@@AAEXH@Z 00506f60 f   Orderiser.obj
 0001:00105f90       ?EncodeFloat@Orderiser@@AAEXM@Z 00506f90 f   Orderiser.obj
 0001:00105fc0       ?EncodeByte@Orderiser@@AAEXE@Z 00506fc0 f   Orderiser.obj
 0001:00105ff0       ?EncodeOpID@Orderiser@@AAEXG@Z 00506ff0 f   Orderiser.obj
 0001:00106020       ?EncodeString@Orderiser@@AAEXPBD@Z 00507020 f   Orderiser.obj
 0001:00106080       ?EnterBlock@Orderiser@@AAEXH_N@Z 00507080 f   Orderiser.obj
 0001:00106230       ??1BlockContext@Orderiser@@QAE@XZ 00507230 f i Orderiser.obj
 0001:00106270       ?LeaveBlock@Orderiser@@AAE_NH@Z 00507270 f   Orderiser.obj
 0001:001064e0       ?SpecialPreProcessing@Orderiser@@AAE_NPBVOpSpec@@@Z 005074e0 f   Orderiser.obj
 0001:00106910       ?SpecialPostProcessing@Orderiser@@AAE_NPBVOpSpec@@@Z 00507910 f   Orderiser.obj
 0001:00106a60       ?DefineLabel@Orderiser@@AAE_NPBD@Z 00507a60 f   Orderiser.obj
 0001:00106c30       ?ExpectByteString@Orderiser@@AAE_NXZ 00507c30 f   Orderiser.obj
 0001:00106cf0       ?ReportError@Orderiser@@AAAXHHZZ 00507cf0 f   Orderiser.obj
 0001:00107030       ??1?$list@ULabelRef@Orderiser@@V?$allocator@ULabelRef@Orderiser@@@std@@@std@@QAE@XZ 00508030 f i Orderiser.obj
 0001:001070a0       ??0?$_Tree@HU?$pair@$$CBHH@std@@U_Kfn@?$map@HHU?$less@H@std@@V?$allocator@H@2@@2@U?$less@H@2@V?$allocator@H@2@@std@@QAE@ABU?$less@H@1@_NABV?$allocator@H@1@@Z 005080a0 f i Orderiser.obj
 0001:00107110       ?insert@?$map@V?$basic_string@DU?$char_traits@D@std@@V?$allocator@D@2@@std@@HU?$less@V?$basic_string@DU?$char_traits@D@std@@V?$allocator@D@2@@std@@@2@V?$allocator@H@2@@std@@QAE?AU?$pair@Viterator@?$_Tree@V?$basic_string@DU?$char_traits@D@std@@V?$allocator@D@2@@std@@U?$pair@$$CBV?$basic_string@DU?$char_traits@D@std@@V?$allocator@D@2@@std@@H@2@U_Kfn@?$map@V?$basic_string@DU?$char_traits@D@std@@V?$allocator@D@2@@std@@HU?$less@V?$basic_string@DU?$char_traits@D@std@@V?$allocator@D@2@@std@@@2@V?$allocator@H@2@@2@U?$less@V?$basic_string@DU?$char_traits@D@std@@V?$allocator@D@2@@std@@@2@V?$allocator@H@2@@std@@_N@2@ABU?$pair@$$CBV?$basic_string@DU?$char_traits@D@std@@V?$allocator@D@2@@std@@H@2@@Z 00508110 f i Orderiser.obj
 0001:00107200       ?erase@?$_Tree@V?$basic_string@DU?$char_traits@D@std@@V?$allocator@D@2@@std@@U?$pair@$$CBV?$basic_string@DU?$char_traits@D@std@@V?$allocator@D@2@@std@@H@2@U_Kfn@?$map@V?$basic_string@DU?$char_traits@D@std@@V?$allocator@D@2@@std@@HU?$less@V?$basic_string@DU?$char_traits@D@std@@V?$allocator@D@2@@std@@@2@V?$allocator@H@2@@2@U?$less@V?$basic_string@DU?$char_traits@D@std@@V?$allocator@D@2@@std@@@2@V?$allocator@H@2@@std@@QAE?AViterator@12@V312@0@Z 00508200 f i Orderiser.obj
 0001:001072b0       ?insert@?$list@ULabelRef@Orderiser@@V?$allocator@ULabelRef@Orderiser@@@std@@@std@@QAE?AViterator@12@V312@ABULabelRef@Orderiser@@@Z 005082b0 f i Orderiser.obj
 0001:00107310       ?_Buyback@?$deque@UBlockContext@Orderiser@@V?$allocator@UBlockContext@Orderiser@@@std@@@std@@IAEXXZ 00508310 f i Orderiser.obj
 0001:00107510       ?_Popback@?$deque@UBlockContext@Orderiser@@V?$allocator@UBlockContext@Orderiser@@@std@@@std@@IAEXXZ 00508510 f i Orderiser.obj
 0001:001075c0       ??0iterator@?$deque@USentenceToSpeak@LinguisticFaculty@@V?$allocator@USentenceToSpeak@LinguisticFaculty@@@std@@@std@@QAE@XZ 005085c0 f i Orderiser.obj
 0001:001075c0       ??0iterator@?$deque@PAVRoom@@V?$allocator@PAVRoom@@@std@@@std@@QAE@XZ 005085c0 f i Orderiser.obj
 0001:001075c0       ??0iterator@?$deque@PAVCAOSMachine@@V?$allocator@PAVCAOSMachine@@@std@@@std@@QAE@XZ 005085c0 f i Orderiser.obj
 0001:001075c0       ??0iterator@?$deque@VMessage@@V?$allocator@VMessage@@@std@@@std@@QAE@XZ 005085c0 f i Orderiser.obj
 0001:001075c0       ??0iterator@?$deque@UBlockContext@Orderiser@@V?$allocator@UBlockContext@Orderiser@@@std@@@std@@QAE@XZ 005085c0 f i Orderiser.obj
 0001:001075d0       ??Eiterator@?$deque@UBlockContext@Orderiser@@V?$allocator@UBlockContext@Orderiser@@@std@@@std@@QAEAAV012@XZ 005085d0 f i Orderiser.obj
 0001:00107610       ??Giterator@?$deque@UBlockContext@Orderiser@@V?$allocator@UBlockContext@Orderiser@@@std@@@std@@QBE?AV012@H@Z 00508610 f i Orderiser.obj
 0001:001076b0       ?_Erase@?$_Tree@V?$basic_string@DU?$char_traits@D@std@@V?$allocator@D@2@@std@@U?$pair@$$CBV?$basic_string@DU?$char_traits@D@std@@V?$allocator@D@2@@std@@H@2@U_Kfn@?$map@V?$basic_string@DU?$char_traits@D@std@@V?$allocator@D@2@@std@@HU?$less@V?$basic_string@DU?$char_traits@D@std@@V?$allocator@D@2@@std@@@2@V?$allocator@H@2@@2@U?$less@V?$basic_string@DU?$char_traits@D@std@@V?$allocator@D@2@@std@@@2@V?$allocator@H@2@@std@@IAEXPAU_Node@12@@Z 005086b0 f i Orderiser.obj
 0001:00107700       ?erase@?$list@ULabelRef@Orderiser@@V?$allocator@ULabelRef@Orderiser@@@std@@@std@@QAE?AViterator@12@V312@@Z 00508700 f i Orderiser.obj
 0001:00107740       ?_Insert@?$_Tree@V?$basic_string@DU?$char_traits@D@std@@V?$allocator@D@2@@std@@U?$pair@$$CBV?$basic_string@DU?$char_traits@D@std@@V?$allocator@D@2@@std@@H@2@U_Kfn@?$map@V?$basic_string@DU?$char_traits@D@std@@V?$allocator@D@2@@std@@HU?$less@V?$basic_string@DU?$char_traits@D@std@@V?$allocator@D@2@@std@@@2@V?$allocator@H@2@@2@U?$less@V?$basic_string@DU?$char_traits@D@std@@V?$allocator@D@2@@std@@@2@V?$allocator@H@2@@std@@IAE?AViterator@12@PAU_Node@12@0ABU?$pair@$$CBV?$basic_string@DU?$char_traits@D@std@@V?$allocator@D@2@@std@@H@2@@Z 00508740 f i Orderiser.obj
 0001:00107990       ?_Add@iterator@?$deque@UBlockContext@Orderiser@@V?$allocator@UBlockContext@Orderiser@@@std@@@std@@IAEXH@Z 00508990 f i Orderiser.obj
 0001:00107a30       ?_Construct@std@@YAXPAULabelRef@Orderiser@@ABU23@@Z 00508a30 f i Orderiser.obj
 0001:00107bb0       ?_Construct@std@@YAXPAU?$pair@$$CBV?$basic_string@DU?$char_traits@D@std@@V?$allocator@D@2@@std@@H@1@ABU21@@Z 00508bb0 f i Orderiser.obj
 0001:00107d20       ??0BlockContext@Orderiser@@QAE@ABU01@@Z 00508d20 f i Orderiser.obj
 0001:00107e80       ??_GBlockContext@Orderiser@@QAEPAXI@Z 00508e80 f i Orderiser.obj
 0001:00107eb0       ??0LabelRef@Orderiser@@QAE@ABU01@@Z 00508eb0 f i Orderiser.obj
 0001:001080b0       ?HandleIncoming@RequestManager@@QAEXAAVServerSide@@@Z 005090b0 f   RequestManager.obj
 0001:00108e30       ??_Dostrstream@std@@QAEXXZ 00509e30 f i RequestManager.obj
 0001:00108f00       ?CreateNewScriptorium@@YAPAVPersistentObject@@XZ 00509f00 f   Scriptorium.obj
 0001:00108f90       ?GetClassNameX@Scriptorium@@UBEPBDXZ 00509f90 f   Scriptorium.obj
 0001:00108fa0       ?InstallScript@Scriptorium@@QAE_NPAVMacroScript@@@Z 00509fa0 f   Scriptorium.obj
 0001:001093d0       ?ZapScript@Scriptorium@@QAE_NABVClassifier@@@Z 0050a3d0 f   Scriptorium.obj
 0001:00109490       ?FindScript@Scriptorium@@QAEPAVMacroScript@@ABVClassifier@@@Z 0050a490 f   Scriptorium.obj
 0001:00109520       ?FindScriptExact@Scriptorium@@QAEPAVMacroScript@@ABVClassifier@@@Z 0050a520 f   Scriptorium.obj
 0001:00109630       ??0Scriptorium@@QAE@XZ     0050a630 f   Scriptorium.obj
 0001:00109660       ??_GScriptorium@@UAEPAXI@Z 0050a660 f i Scriptorium.obj
 0001:00109660       ??_EScriptorium@@UAEPAXI@Z 0050a660 f i Scriptorium.obj
 0001:00109690       ??1Scriptorium@@UAE@XZ     0050a690 f   Scriptorium.obj
 0001:00109730       ?Clear@Scriptorium@@QAEXXZ 0050a730 f   Scriptorium.obj
 0001:001097e0       ?DumpFamilyIDs@Scriptorium@@QAEXAAV?$set@HU?$less@H@std@@V?$allocator@H@2@@std@@@Z 0050a7e0 f   Scriptorium.obj
 0001:00109950       ?DumpGenusIDs@Scriptorium@@QAEXAAV?$set@HU?$less@H@std@@V?$allocator@H@2@@std@@H@Z 0050a950 f   Scriptorium.obj
 0001:00109ad0       ?DumpSpeciesIDs@Scriptorium@@QAEXAAV?$set@HU?$less@H@std@@V?$allocator@H@2@@std@@HH@Z 0050aad0 f   Scriptorium.obj
 0001:00109c60       ?DumpEventIDs@Scriptorium@@QAEXAAV?$set@HU?$less@H@std@@V?$allocator@H@2@@std@@HHH@Z 0050ac60 f   Scriptorium.obj
 0001:00109e00       ?Write@Scriptorium@@UBE_NAAVCreaturesArchive@@@Z 0050ae00 f   Scriptorium.obj
 0001:00109e60       ?Read@Scriptorium@@UAE_NAAVCreaturesArchive@@@Z 0050ae60 f   Scriptorium.obj
