 engine-netbabel

 Timestamp is 3ae9b97a (Fri Apr 27 19:24:58 2001)

 Preferred load address is 10000000

 Start         Length     Name                   Class
 0001:00000000 00030676H .text                   CODE
 0001:00030680 0000395aH .text$x                 CODE
 0002:00000000 00000398H .idata$5                DATA
 0002:00000398 00000348H .rdata                  DATA
 0002:000006e0 000006bcH .rdata$r                DATA
 0002:00000da0 00003d10H .xdata$x                DATA
 0002:00004ab0 00000078H .idata$2                DATA
 0002:00004b28 00000014H .idata$3                DATA
 0002:00004b3c 00000398H .idata$4                DATA
 0002:00004ed4 00002b7eH .idata$6                DATA
 0002:00007a60 00001a00H .edata                  DATA
 0003:00000000 00000004H .CRT$XCA                DATA
 0003:00000004 00000084H .CRT$XCU                DATA
 0003:00000088 00000004H .CRT$XCZ                DATA
 0003:0000008c 00000004H .CRT$XIA                DATA
 0003:00000090 00000004H .CRT$XIZ                DATA
 0003:000000a0 000025a1H .data                   DATA
 0003:00002648 0000101cH .bss                    DATA

  Address         Publics by Value              Rva+Base     Lib:Object

 0001:00000000       ??0Configurator@@QAE@ABV0@@Z 10001000 f i NetHandlers.obj
 0001:00000190       ??4Configurator@@QAEAAV0@ABV0@@Z 10001190 f i NetHandlers.obj
 0001:000003a0       ??1?$map@V?$basic_string@DU?$char_traits@D@std@@V?$allocator@D@2@@std@@V12@U?$less@V?$basic_string@DU?$char_traits@D@std@@V?$allocator@D@2@@std@@@2@V?$allocator@V?$basic_string@DU?$char_traits@D@std@@V?$allocator@D@2@@std@@@2@@std@@QAE@XZ 100013a0 f i NetHandlers.obj
 0001:00000470       ??0Configurator@@QAE@XZ    10001470 f i NetHandlers.obj
 0001:000004f0       ??1Configurator@@QAE@XZ    100014f0 f i NetHandlers.obj
 0001:000005f0       ?Exists@Configurator@@QBE_NABV?$basic_string@DU?$char_traits@D@std@@V?$allocator@D@2@@std@@@Z 100015f0 f i NetHandlers.obj
 0001:00000680       ??4FlightRecorder@@QAEAAV0@ABV0@@Z 10001680 f i NetHandlers.obj
 0001:00000720       ??0DirectoryManager@@QAE@XZ 10001720 f i NetHandlers.obj
 0001:00000740       ??0DirectoryManager@@QAE@ABV0@@Z 10001740 f i NetHandlers.obj
 0001:00000880       ??2@YAPAXIPAX@Z            10001880 f i NetHandlers.obj
 0001:00000890       ?Handle_Close@CBabelAsyncCore@@MAEXXZ 10001890 f i NetHandlers.obj
 0001:00000890       ?WorldEnding@ModuleInterface@@UAEXXZ 10001890 f i NetHandlers.obj
 0001:00000890       ??3@YAXPAX0@Z              10001890 f i NetHandlers.obj
 0001:00000890       ?Accept@CBabelConnection@@UAEXXZ 10001890 f i NetHandlers.obj
 0001:00000890       ?Close@CBabelConnection@@UAEXXZ 10001890 f i NetHandlers.obj
 0001:00000890       ?Handle_Connect@CBabelAsyncCore@@MAEXXZ 10001890 f i NetHandlers.obj
 0001:00000890       ?Write@CBabelConnection@@UAEXXZ 10001890 f i NetHandlers.obj
 0001:00000890       ?WorldLoaded@ModuleInterface@@UAEXXZ 10001890 f i NetHandlers.obj
 0001:00000890       ?Handle_Read@CBabelAsyncCore@@MAEXXZ 10001890 f i NetHandlers.obj
 0001:00000890       ?Close@CBabelSocket@@UAEXXZ 10001890 f i NetHandlers.obj
 0001:00000890       ?Handle_Write@CBabelAsyncCore@@MAEXXZ 10001890 f i NetHandlers.obj
 0001:00000890       ?Read@CBabelConnection@@UAEXXZ 10001890 f i NetHandlers.obj
 0001:000008a0       ??4DirectoryManager@@QAEAAV0@ABV0@@Z 100018a0 f i NetHandlers.obj
 0001:00000a80       ??1DirectoryManager@@QAE@XZ 10001a80 f i NetHandlers.obj
 0001:00000b00       ?IsLoading@CreaturesArchive@@QAE_NXZ 10001b00 f i NetHandlers.obj
 0001:00000b10       ?IsSaving@CreaturesArchive@@QAE_NXZ 10001b10 f i NetHandlers.obj
 0001:00000b20       ?SetCloningASkeletalCreature@CreaturesArchive@@QAEX_N@Z 10001b20 f i NetHandlers.obj
 0001:00000b30       ?GetCloningASkeletalCreature@CreaturesArchive@@QAE_NXZ 10001b30 f i NetHandlers.obj
 0001:00000b40       ??0CreaturesArchive@@QAE@ABV0@@Z 10001b40 f i NetHandlers.obj
 0001:00000da0       ??4CreaturesArchive@@QAEAAV0@ABV0@@Z 10001da0 f i NetHandlers.obj
 0001:000010a0       ??1?$map@PBVPersistentObject@@JU?$less@PBVPersistentObject@@@std@@V?$allocator@J@3@@std@@QAE@XZ 100020a0 f i NetHandlers.obj
 0001:00001160       ??1?$map@PBMJU?$less@PBM@std@@V?$allocator@J@2@@std@@QAE@XZ 10002160 f i NetHandlers.obj
 0001:00001220       ?GetScriptNames@CAOSDescription@@QAEAAV?$vector@V?$basic_string@DU?$char_traits@D@std@@V?$allocator@D@2@@std@@V?$allocator@V?$basic_string@DU?$char_traits@D@std@@V?$allocator@D@2@@std@@@2@@std@@XZ 10002220 f i NetHandlers.obj
 0001:00001230       ??0CAOSDescription@@QAE@ABV0@@Z 10002230 f i NetHandlers.obj
 0001:000013f0       ??4CAOSDescription@@QAEAAV0@ABV0@@Z 100023f0 f i NetHandlers.obj
 0001:00001670       ??1CAOSDescription@@QAE@XZ 10002670 f i NetHandlers.obj
 0001:000017a0       ?BecomeAZeroedIntegerOnYourNextRead@CAOSVar@@QAEXXZ 100027a0 f i NetHandlers.obj
 0001:000017b0       ?GetType@CAOSVar@@QBEHXZ   100027b0 f i NetHandlers.obj
 0001:000017c0       ??0CAOSVar@@QAE@XZ         100027c0 f i NetHandlers.obj
 0001:000017e0       ??1CAOSVar@@QAE@XZ         100027e0 f i NetHandlers.obj
 0001:00001850       ?GetFloat@CAOSVar@@QAEMXZ  10002850 f i NetHandlers.obj
 0001:00001890       ?GetInteger@CAOSVar@@QAEHXZ 10002890 f i NetHandlers.obj
 0001:000018d0       ?GetString@CAOSVar@@QAEXAAV?$basic_string@DU?$char_traits@D@std@@V?$allocator@D@2@@std@@@Z 100028d0 f i NetHandlers.obj
 0001:00001a70       ?GetAgent@CAOSVar@@QAE?AVAgentHandle@@XZ 10002a70 f i NetHandlers.obj
 0001:00001ac0       ?SetInteger@CAOSVar@@QAEXH@Z 10002ac0 f i NetHandlers.obj
 0001:00001ae0       ?SetFloat@CAOSVar@@QAEXM@Z 10002ae0 f i NetHandlers.obj
 0001:00001b00       ?SetString@CAOSVar@@QAEXABV?$basic_string@DU?$char_traits@D@std@@V?$allocator@D@2@@std@@@Z 10002b00 f i NetHandlers.obj
 0001:00001c50       ?SetAgent@CAOSVar@@QAEXVAgentHandle@@@Z 10002c50 f i NetHandlers.obj
 0001:00001cf0       ?GetScript@CAOSMachine@@QAEPAVMacroScript@@XZ 10002cf0 f i NetHandlers.obj
 0001:00001d00       ?FetchOp@CAOSMachine@@QAEGXZ 10002d00 f i NetHandlers.obj
 0001:00001d20       ?PeekOp@CAOSMachine@@QAEGXZ 10002d20 f i NetHandlers.obj
 0001:00001d30       ?FetchInteger@CAOSMachine@@QAEHXZ 10002d30 f i NetHandlers.obj
 0001:00001d50       ?FetchFloat@CAOSMachine@@QAEMXZ 10002d50 f i NetHandlers.obj
 0001:00001d70       ?FetchString@CAOSMachine@@QAEXAAV?$basic_string@DU?$char_traits@D@std@@V?$allocator@D@2@@std@@@Z 10002d70 f i NetHandlers.obj
 0001:00001e50       ?SetIP@CAOSMachine@@QAEXH@Z 10002e50 f i NetHandlers.obj
 0001:00001e60       ?GetIP@CAOSMachine@@QAEHXZ 10002e60 f i NetHandlers.obj
 0001:00001e70       ?Push@CAOSMachine@@QAEXH@Z 10002e70 f i NetHandlers.obj
 0001:00002030       ?PushString@CAOSMachine@@QAEXABV?$basic_string@DU?$char_traits@D@std@@V?$allocator@D@2@@std@@@Z 10003030 f i NetHandlers.obj
 0001:000021e0       ?PushHandle@CAOSMachine@@QAEXAAVAgentHandle@@@Z 100031e0 f i NetHandlers.obj
 0001:00002390       ?Pop@CAOSMachine@@QAEHXZ   10003390 f i NetHandlers.obj
 0001:000023d0       ?PopHandle@CAOSMachine@@QAE?AVAgentHandle@@XZ 100033d0 f i NetHandlers.obj
 0001:00002490       ?PopString@CAOSMachine@@QAE?AV?$basic_string@DU?$char_traits@D@std@@V?$allocator@D@2@@std@@XZ 10003490 f i NetHandlers.obj
 0001:000025a0       ?GetTarg@CAOSMachine@@QAE?AVAgentHandle@@XZ 100035a0 f i NetHandlers.obj
 0001:000025d0       ?GetOwner@CAOSMachine@@QAE?AVAgentHandle@@XZ 100035d0 f i NetHandlers.obj
 0001:00002600       ?GetFrom@CAOSMachine@@QAE?AVCAOSVar@@XZ 10003600 f i NetHandlers.obj
 0001:00002630       ?GetIT@CAOSMachine@@QAE?AVAgentHandle@@XZ 10003630 f i NetHandlers.obj
 0001:00002660       ?GetPart@CAOSMachine@@QAEHXZ 10003660 f i NetHandlers.obj
 0001:00002670       ?GetCamera@CAOSMachine@@QAEPAVCamera@@XZ 10003670 f i NetHandlers.obj
 0001:00002680       ?SetTarg@CAOSMachine@@QAEXAAVAgentHandle@@@Z 10003680 f i NetHandlers.obj
 0001:000026a0       ?SetPart@CAOSMachine@@QAEXH@Z 100036a0 f i NetHandlers.obj
 0001:000026b0       ?SetCamera@CAOSMachine@@QAEXPAVCamera@@@Z 100036b0 f i NetHandlers.obj
 0001:000026c0       ?GetCurrentCmd@CAOSMachine@@QAEGXZ 100036c0 f i NetHandlers.obj
 0001:000026d0       ?IsBlocking@CAOSMachine@@QAE_NXZ 100036d0 f i NetHandlers.obj
 0001:000026e0       ?GetSecondaryOp@CAOSMachine@@QAEGXZ 100036e0 f i NetHandlers.obj
 0001:000026f0       ?SetInstFlag@CAOSMachine@@QAEX_N@Z 100036f0 f i NetHandlers.obj
 0001:00002700       ?GetInstFlag@CAOSMachine@@QAE_NXZ 10003700 f i NetHandlers.obj
 0001:00002710       ?GetOutStream@CAOSMachine@@QAEPAV?$basic_ostream@DU?$char_traits@D@std@@@std@@XZ 10003710 f i NetHandlers.obj
 0001:00002730       ?GetInStream@CAOSMachine@@QAEPAV?$basic_istream@DU?$char_traits@D@std@@@std@@XZ 10003730 f i NetHandlers.obj
 0001:00002750       ?GetUnvalidatedOutStream@CAOSMachine@@QAEPAV?$basic_ostream@DU?$char_traits@D@std@@@std@@XZ 10003750 f i NetHandlers.obj
 0001:00002760       ?IsRunning@CAOSMachine@@QAE_NXZ 10003760 f i NetHandlers.obj
 0001:00002770       ?IsLocked@CAOSMachine@@QAE_NXZ 10003770 f i NetHandlers.obj
 0001:00002780       ?ClearQuanta@CAOSMachine@@QAEXXZ 10003780 f i NetHandlers.obj
 0001:00002790       ??0CAOSMachine@@QAE@ABV0@@Z 10003790 f i NetHandlers.obj
 0001:00002a50       ?GetClassNameX@PersistentObject@@UBEPBDXZ 10003a50 f i NetHandlers.obj
 0001:00002a60       ??1PersistentObject@@UAE@XZ 10003a60 f i NetHandlers.obj
 0001:00002a70       ?Persistent@ModuleInterface@@UAE_NXZ 10003a70 f i NetHandlers.obj
 0001:00002a70       ?IsAgent@PersistentObject@@UBE_NXZ 10003a70 f i NetHandlers.obj
 0001:00002a80       ?Read@ModuleInterface@@UAE_NAAVCreaturesArchive@@@Z 10003a80 f i NetHandlers.obj
 0001:00002a80       ?Write@PersistentObject@@UBE_NAAVCreaturesArchive@@@Z 10003a80 f i NetHandlers.obj
 0001:00002a80       ?Read@PersistentObject@@UAE_NAAVCreaturesArchive@@@Z 10003a80 f i NetHandlers.obj
 0001:00002a80       ?Write@ModuleInterface@@UAE_NAAVCreaturesArchive@@@Z 10003a80 f i NetHandlers.obj
 0001:00002a90       ??_EPersistentObject@@UAEPAXI@Z 10003a90 f i NetHandlers.obj
 0001:00002a90       ??_GPersistentObject@@UAEPAXI@Z 10003a90 f i NetHandlers.obj
 0001:00002ac0       ??4CAOSMachine@@QAEAAV0@ABV0@@Z 10003ac0 f i NetHandlers.obj
 0001:00002e10       ??_ECAOSMachine@@UAEPAXI@Z 10003e10 f i NetHandlers.obj
 0001:00002e70       ?ValidateTarg@CAOSMachine@@QAEXXZ 10003e70 f i NetHandlers.obj
 0001:00002e90       ?ValidateOwner@CAOSMachine@@QAEXXZ 10003e90 f i NetHandlers.obj
 0001:00002eb0       ??0PrayBuilder@@QAE@ABV0@@Z 10003eb0 f i NetHandlers.obj
 0001:00002fe0       ??4PrayBuilder@@QAEAAV0@ABV0@@Z 10003fe0 f i NetHandlers.obj
 0001:000031f0       ??1PrayBuilder@@QAE@XZ     100041f0 f i NetHandlers.obj
 0001:000032a0       ?AddDir@PrayManager@@QAEXV?$basic_string@DU?$char_traits@D@std@@V?$allocator@D@2@@std@@@Z 100042a0 f i NetHandlers.obj
 0001:00003320       ?ClearDirList@PrayManager@@QAEXXZ 10004320 f i NetHandlers.obj
 0001:000033e0       ?SetLanguage@PrayManager@@QAEXV?$basic_string@DU?$char_traits@D@std@@V?$allocator@D@2@@std@@@Z 100043e0 f i NetHandlers.obj
 0001:00003560       ?AddChunkFileExtension@PrayManager@@QAEXABV?$basic_string@DU?$char_traits@D@std@@V?$allocator@D@2@@std@@@Z 10004560 f i NetHandlers.obj
 0001:000035c0       ?ClearChunkFileExtensionList@PrayManager@@QAEXXZ 100045c0 f i NetHandlers.obj
 0001:00003670       ??1PrayManager@@QAE@XZ     10004670 f i NetHandlers.obj
 0001:00003830       ??_G?$basic_string@DU?$char_traits@D@std@@V?$allocator@D@2@@std@@QAEPAXI@Z 10004830 f i NetHandlers.obj
 0001:00003890       ??0PrayManager@@QAE@XZ     10004890 f i NetHandlers.obj
 0001:000039d0       ??0PrayManager@@QAE@ABV0@@Z 100049d0 f i NetHandlers.obj
 0001:00003b90       ??4PrayManager@@QAEAAV0@ABV0@@Z 10004b90 f i NetHandlers.obj
 0001:00003e10       ??1?$map@V?$basic_string@DU?$char_traits@D@std@@V?$allocator@D@2@@std@@VPrayChunkPtr@@U?$less@V?$basic_string@DU?$char_traits@D@std@@V?$allocator@D@2@@std@@@2@V?$allocator@VPrayChunkPtr@@@2@@std@@QAE@XZ 10004e10 f i NetHandlers.obj
 0001:00003ee0       ??1?$map@V?$basic_string@DU?$char_traits@D@std@@V?$allocator@D@2@@std@@U?$pair@V?$basic_string@DU?$char_traits@D@std@@V?$allocator@D@2@@std@@H@2@U?$less@V?$basic_string@DU?$char_traits@D@std@@V?$allocator@D@2@@std@@@2@V?$allocator@U?$pair@V?$basic_string@DU?$char_traits@D@std@@V?$allocator@D@2@@std@@H@std@@@2@@std@@QAE@XZ 10004ee0 f i NetHandlers.obj
 0001:00003fb0       ??1?$map@V?$basic_string@DU?$char_traits@D@std@@V?$allocator@D@2@@std@@U?$pair@HV?$basic_string@DU?$char_traits@D@std@@V?$allocator@D@2@@std@@@2@U?$less@V?$basic_string@DU?$char_traits@D@std@@V?$allocator@D@2@@std@@@2@V?$allocator@U?$pair@HV?$basic_string@DU?$char_traits@D@std@@V?$allocator@D@2@@std@@@std@@@2@@std@@QAE@XZ 10004fb0 f i NetHandlers.obj
 0001:00004080       ??0AgentManager@@QAE@HH@Z  10005080 f i NetHandlers.obj
 0001:000040b0       ?DisplaySettingsErrorNextTick@App@@QAEXXZ 100050b0 f i NetHandlers.obj
 0001:000040c0       ?GetLinePlane@App@@QAEHXZ  100050c0 f i NetHandlers.obj
 0001:000040d0       ?GetCreaturePickupStatus@App@@QAEHXZ 100050d0 f i NetHandlers.obj
 0001:000040e0       ?ShouldSkeletonsAnimateDoubleSpeed@App@@QAE_NXZ 100050e0 f i NetHandlers.obj
 0001:000040f0       ?ShouldSkeletonsAnimateDoubleSpeed@App@@QAEX_N@Z 100050f0 f i NetHandlers.obj
 0001:00004100       ?ShouldHighlightAgentsKnownToCreature@App@@QAE_NXZ 10005100 f i NetHandlers.obj
 0001:00004110       ?SetWhetherWeShouldHighlightAgentsKnownToCreature@App@@QAEX_N@Z 10005110 f i NetHandlers.obj
 0001:00004120       ?SetWhichCreaturePermissionToHighlight@App@@QAEXH@Z 10005120 f i NetHandlers.obj
 0001:00004130       ?GetWhichCreaturePermissionToHighlight@App@@QAEHXZ 10005130 f i NetHandlers.obj
 0001:00004140       ?GetMaximumDistanceBeforePortLineWarns@App@@QAEMXZ 10005140 f i NetHandlers.obj
 0001:00004150       ?GetMaximumDistanceBeforePortLineSnaps@App@@QAEMXZ 10005150 f i NetHandlers.obj
 0001:00004160       ?GetWorld@App@@QAEAAVWorld@@XZ 10005160 f i NetHandlers.obj
 0001:00004170       ?GetInputManager@App@@QAEAAVInputManager@@XZ 10005170 f i NetHandlers.obj
 0001:00004180       ?GetGameName@App@@QAE?AV?$basic_string@DU?$char_traits@D@std@@V?$allocator@D@2@@std@@XZ 10005180 f i NetHandlers.obj
 0001:000042d0       ?SetGameName@App@@QAEXABV?$basic_string@DU?$char_traits@D@std@@V?$allocator@D@2@@std@@@Z 100052d0 f i NetHandlers.obj
 0001:00004430       ?DoYouOnlyPlayMidiMusic@App@@QAE_NXZ 10005430 f i NetHandlers.obj
 0001:00004440       ?PlayAllSoundsAtMaximumLevel@App@@QAE_NXZ 10005440 f i NetHandlers.obj
 0001:00004450       ?ToggleMidi@App@@QAEXXZ    10005450 f i NetHandlers.obj
 0001:00004470       ?GetSystemTick@App@@QBEKXZ 10005470 f i NetHandlers.obj
 0001:00004480       ?GetFastestTicks@App@@QBE_NXZ 10005480 f i NetHandlers.obj
 0001:00004490       ?GetLastTickGap@App@@QBEHXZ 10005490 f i NetHandlers.obj
 0001:000044a0       ?AutoKillAgentsOnError@App@@QBE_NXZ 100054a0 f i NetHandlers.obj
 0001:000044b0       ?UserSettings@App@@QAEAAVConfigurator@@XZ 100054b0 f i NetHandlers.obj
 0001:000044c0       ?MachineSettings@App@@QAEAAVConfigurator@@XZ 100054c0 f i NetHandlers.obj
 0001:000044d0       ??0App@@QAE@ABV0@@Z        100054d0 f i NetHandlers.obj
 0001:00004900       ??4App@@QAEAAV0@ABV0@@Z    10005900 f i NetHandlers.obj
 0001:00004e60       ??1InputManager@@QAE@XZ    10005e60 f i NetHandlers.obj
 0001:00004ec0       ?SetNetManager@NetHandlers@@SAXPAVDSNetManager@@@Z 10005ec0 f   NetHandlers.obj
 0001:00004ed0       ?GetNetManager@NetHandlers@@CAAAVDSNetManager@@XZ 10005ed0 f   NetHandlers.obj
 0001:00004f40       ??1?$map@V?$basic_string@DU?$char_traits@D@std@@V?$allocator@D@2@@std@@V?$set@VAgentHandle@@U?$less@VAgentHandle@@@std@@V?$allocator@VAgentHandle@@@3@@2@U?$less@V?$basic_string@DU?$char_traits@D@std@@V?$allocator@D@2@@std@@@2@V?$allocator@V?$set@VAgentHandle@@U?$less@VAgentHandle@@@std@@V?$allocator@VAgentHandle@@@3@@std@@@2@@std@@QAE@XZ 10005f40 f i NetHandlers.obj
 0001:00005320       ?Command_NET@NetHandlers@@SAXAAVCAOSMachine@@@Z 10006320 f   NetHandlers.obj
 0001:00005500       ?IntegerRV_NET@NetHandlers@@SAHAAVCAOSMachine@@@Z 10006500 f   NetHandlers.obj
 0001:00005530       ?StringRV_NET@NetHandlers@@SAXAAVCAOSMachine@@AAV?$basic_string@DU?$char_traits@D@std@@V?$allocator@D@2@@std@@@Z 10006530 f   NetHandlers.obj
 0001:000067f0       ??0OpSpec@@QAE@V?$basic_string@DU?$char_traits@D@std@@V?$allocator@D@2@@std@@00H0@Z 100077f0 f i NetHandlers.obj
 0001:00006a00       ??1OpSpec@@QAE@XZ          10007a00 f i NetHandlers.obj
 0001:00006b00       ??0OpSpec@@QAE@ABV0@@Z     10007b00 f i NetHandlers.obj
 0001:00007d10       ?PushTables@NetHandlers@@SAXAAVCAOSDescription@@@Z 10008d10 f   NetHandlers.obj
 0001:00007f20       ??0HandlerFunction@@QAE@P6AXAAVCAOSMachine@@@Z@Z 10008f20 f i NetHandlers.obj
 0001:00007f40       ??0HandlerFunction@@QAE@P6AHAAVCAOSMachine@@@Z@Z 10008f40 f i NetHandlers.obj
 0001:00007f60       ??0HandlerFunction@@QAE@P6AXAAVCAOSMachine@@AAV?$basic_string@DU?$char_traits@D@std@@V?$allocator@D@2@@std@@@Z@Z 10008f60 f i NetHandlers.obj
 0001:00007f80       ?SubCommand_NET_LINE@NetHandlers@@CAXAAVCAOSMachine@@@Z 10008f80 f   NetHandlers.obj
 0001:00008290       ?IntegerRV_NET_LINE@NetHandlers@@CAHAAVCAOSMachine@@@Z 10009290 f   NetHandlers.obj
 0001:000082b0       ?GetCachedUserID@NetHandlers@@SA?AV?$basic_string@DU?$char_traits@D@std@@V?$allocator@D@2@@std@@XZ 100092b0 f   NetHandlers.obj
 0001:00008400       ?StringRV_NET_USER@NetHandlers@@CAXAAVCAOSMachine@@AAV?$basic_string@DU?$char_traits@D@std@@V?$allocator@D@2@@std@@@Z 10009400 f   NetHandlers.obj
 0001:00008560       ?SubCommand_NET_PASS@NetHandlers@@CAXAAVCAOSMachine@@@Z 10009560 f   NetHandlers.obj
 0001:000086a0       ?SetNickname@NetHandlers@@SAXV?$basic_string@DU?$char_traits@D@std@@V?$allocator@D@2@@std@@0@Z 100096a0 f   NetHandlers.obj
 0001:000089a0       ?GetNickname@NetHandlers@@SA?AV?$basic_string@DU?$char_traits@D@std@@V?$allocator@D@2@@std@@XZ 100099a0 f   NetHandlers.obj
 0001:00008af0       ?StringRV_NET_PASS@NetHandlers@@CAXAAVCAOSMachine@@AAV?$basic_string@DU?$char_traits@D@std@@V?$allocator@D@2@@std@@@Z 10009af0 f   NetHandlers.obj
 0001:00008c80       ?IntegerRV_NET_ULIN@NetHandlers@@CAHAAVCAOSMachine@@@Z 10009c80 f   NetHandlers.obj
 0001:00008d20       ?SubCommand_NET_UNIK@NetHandlers@@CAXAAVCAOSMachine@@@Z 10009d20 f   NetHandlers.obj
 0001:00008ec0       ?SubCommand_NET_STAT@NetHandlers@@CAXAAVCAOSMachine@@@Z 10009ec0 f   NetHandlers.obj
 0001:00008fa0       ?StringRV_NET_HOST@NetHandlers@@CAXAAVCAOSMachine@@AAV?$basic_string@DU?$char_traits@D@std@@V?$allocator@D@2@@std@@@Z 10009fa0 f   NetHandlers.obj
 0001:00009250       ?IntegerRV_NET_ERRA@NetHandlers@@CAHAAVCAOSMachine@@@Z 1000a250 f   NetHandlers.obj
 0001:00009260       ?IntegerRV_NET_RAWE@NetHandlers@@CAHAAVCAOSMachine@@@Z 1000a260 f   NetHandlers.obj
 0001:00009270       ?StringRV_NET_WHAT@NetHandlers@@CAXAAVCAOSMachine@@AAV?$basic_string@DU?$char_traits@D@std@@V?$allocator@D@2@@std@@@Z 1000a270 f   NetHandlers.obj
 0001:00009400       ?IntegerRV_NET_EXPO@NetHandlers@@CAHAAVCAOSMachine@@@Z 1000a400 f   NetHandlers.obj
 0001:00009720       ??1BasicException@@UAE@XZ  1000a720 f i NetHandlers.obj
 0001:00009770       ??_GBasicException@@UAEPAXI@Z 1000a770 f i NetHandlers.obj
 0001:00009770       ??_EBasicException@@UAEPAXI@Z 1000a770 f i NetHandlers.obj
 0001:000097a0       ?GetMessageA@PrayException@@QAE?AV?$basic_string@DU?$char_traits@D@std@@V?$allocator@D@2@@std@@XZ 1000a7a0 f i NetHandlers.obj
 0001:000098f0       ?IntegerRV_NET_MAKE@NetHandlers@@CAHAAVCAOSMachine@@@Z 1000a8f0 f   NetHandlers.obj
 0001:00009c60       ?StringRV_NET_FROM@NetHandlers@@CAXAAVCAOSMachine@@AAV?$basic_string@DU?$char_traits@D@std@@V?$allocator@D@2@@std@@@Z 1000ac60 f   NetHandlers.obj
 0001:00009ed0       ?SubCommand_NET_WHON@NetHandlers@@CAXAAVCAOSMachine@@@Z 1000aed0 f   NetHandlers.obj
 0001:0000a190       ?SubCommand_NET_WHOF@NetHandlers@@CAXAAVCAOSMachine@@@Z 1000b190 f   NetHandlers.obj
 0001:0000a2b0       ?SubCommand_NET_WHOD@NetHandlers@@CAXAAVCAOSMachine@@@Z 1000b2b0 f   NetHandlers.obj
 0001:0000a400       ?SubCommand_NET_WHOZ@NetHandlers@@CAXAAVCAOSMachine@@@Z 1000b400 f   NetHandlers.obj
 0001:0000a530       ?NotifyUsersOnline@NetHandlers@@SAXH@Z 1000b530 f   NetHandlers.obj
 0001:0000a7d0       ?NotifyAgentsWWR@NetHandlers@@CAXAAV?$set@VAgentHandle@@U?$less@VAgentHandle@@@std@@V?$allocator@VAgentHandle@@@3@@std@@_NAAVCAOSVar@@2@Z 1000b7d0 f   NetHandlers.obj
 0001:0000a980       ??1?$set@VAgentHandle@@U?$less@VAgentHandle@@@std@@V?$allocator@VAgentHandle@@@3@@std@@QAE@XZ 1000b980 f i NetHandlers.obj
 0001:0000aa50       ?NotifyAllWWRState@NetHandlers@@SAXXZ 1000ba50 f   NetHandlers.obj
 0001:0000ac30       ?ClearWWR@NetHandlers@@SAXXZ 1000bc30 f   NetHandlers.obj
 0001:0000ad50       ?Write@NetHandlers@@SA_NAAVCreaturesArchive@@@Z 1000bd50 f   NetHandlers.obj
 0001:0000af10       ?Read@NetHandlers@@SA_NAAVCreaturesArchive@@@Z 1000bf10 f   NetHandlers.obj
 0001:0000b1a0       ?PackCaosVarSize@NetHandlers@@CAHAAVCAOSVar@@@Z 1000c1a0 f   NetHandlers.obj
 0001:0000b2a0       ?PackCaosVar@NetHandlers@@CAXAAVNetMemoryPack@@AAVCAOSVar@@@Z 1000c2a0 f   NetHandlers.obj
 0001:0000b420       ?UnpackCaosVar@NetHandlers@@CA?AVCAOSVar@@AAVNetMemoryUnpack@@@Z 1000c420 f   NetHandlers.obj
 0001:0000b680       ?SubCommand_NET_WRIT@NetHandlers@@CAXAAVCAOSMachine@@@Z 1000c680 f   NetHandlers.obj
 0001:0000b990       ??1NetMemoryPack@@QAE@XZ   1000c990 f i NetHandlers.obj
 0001:0000b9c0       ?SubCommand_NET_HEAR@NetHandlers@@CAXAAVCAOSMachine@@@Z 1000c9c0 f   NetHandlers.obj
 0001:0000bb10       ??0?$set@VAgentHandle@@U?$less@VAgentHandle@@@std@@V?$allocator@VAgentHandle@@@3@@std@@QAE@ABV01@@Z 1000cb10 f i NetHandlers.obj
 0001:0000bc60       ?SubCommand_NET_HEAD@NetHandlers@@CAXAAVCAOSMachine@@@Z 1000cc60 f   NetHandlers.obj
 0001:0000bdb0       ?ReceiveDirectMessages@NetHandlers@@SAXH@Z 1000cdb0 f   NetHandlers.obj
 0001:0000c310       ?Twinned@NetHandlers@@SAXVAgentHandle@@0@Z 1000d310 f   NetHandlers.obj
 0001:0000c510       ?SubCommand_NET_RUSO@NetHandlers@@CAXAAVCAOSMachine@@@Z 1000d510 f   NetHandlers.obj
 0001:0000c610       ?Init@NetHandlers@@SAXXZ   1000d610 f   NetHandlers.obj
 0001:0000cc80       ??1?$pair@$$CBV?$basic_string@DU?$char_traits@D@std@@V?$allocator@D@2@@std@@V12@@std@@QAE@XZ 1000dc80 f i NetHandlers.obj
 0001:0000cc80       ??1?$pair@$$CBV?$basic_string@DU?$char_traits@D@std@@V?$allocator@D@2@@std@@U?$pair@V?$basic_string@DU?$char_traits@D@std@@V?$allocator@D@2@@std@@H@2@@std@@QAE@XZ 1000dc80 f i NetHandlers.obj
 0001:0000cc80       ??1CBabelServerInfo@@QAE@XZ 1000dc80 f i NetHandlers.obj
 0001:0000ccf0       ?SetServer@CBabelServerInfo@@QAEXV?$basic_string@DU?$char_traits@D@std@@V?$allocator@D@2@@std@@0HH@Z 1000dcf0 f i NetHandlers.obj
 0001:0000cdd0       ?SetServer@CBabelServerInfo@@QAEXV?$basic_string@DU?$char_traits@D@std@@V?$allocator@D@2@@std@@0H@Z 1000ddd0 f i NetHandlers.obj
 0001:0000cf50       ?SetServer@CBabelServerInfo@@QAEXV?$basic_string@DU?$char_traits@D@std@@V?$allocator@D@2@@std@@H@Z 1000df50 f i NetHandlers.obj
 0001:0000d0e0       ?WriteServerList@NetHandlers@@CAXXZ 1000e0e0 f   NetHandlers.obj
 0001:0000d5a0       ??0?$_Tree@V?$basic_string@DU?$char_traits@D@std@@V?$allocator@D@2@@std@@U?$pair@$$CBV?$basic_string@DU?$char_traits@D@std@@V?$allocator@D@2@@std@@V12@@2@U_Kfn@?$map@V?$basic_string@DU?$char_traits@D@std@@V?$allocator@D@2@@std@@V12@U?$less@V?$basic_string@DU?$char_traits@D@std@@V?$allocator@D@2@@std@@@2@V?$allocator@V?$basic_string@DU?$char_traits@D@std@@V?$allocator@D@2@@std@@@2@@2@U?$less@V?$basic_string@DU?$char_traits@D@std@@V?$allocator@D@2@@std@@@2@V?$allocator@V?$basic_string@DU?$char_traits@D@std@@V?$allocator@D@2@@std@@@2@@std@@QAE@ABV01@@Z 1000e5a0 f i NetHandlers.obj
 0001:0000d6f0       ??0?$map@V?$basic_string@DU?$char_traits@D@std@@V?$allocator@D@2@@std@@V?$set@VAgentHandle@@U?$less@VAgentHandle@@@std@@V?$allocator@VAgentHandle@@@3@@2@U?$less@V?$basic_string@DU?$char_traits@D@std@@V?$allocator@D@2@@std@@@2@V?$allocator@V?$set@VAgentHandle@@U?$less@VAgentHandle@@@std@@V?$allocator@VAgentHandle@@@3@@std@@@2@@std@@QAE@ABU?$less@V?$basic_string@DU?$char_traits@D@std@@V?$allocator@D@2@@std@@@1@ABV?$allocator@V?$set@VAgentHandle@@U?$less@VAgentHandle@@@std@@V?$allocator@VAgentHandle@@@3@@std@@@1@@Z 1000e6f0 f i NetHandlers.obj
 0001:0000d760       ??A?$map@V?$basic_string@DU?$char_traits@D@std@@V?$allocator@D@2@@std@@V?$set@VAgentHandle@@U?$less@VAgentHandle@@@std@@V?$allocator@VAgentHandle@@@3@@2@U?$less@V?$basic_string@DU?$char_traits@D@std@@V?$allocator@D@2@@std@@@2@V?$allocator@V?$set@VAgentHandle@@U?$less@VAgentHandle@@@std@@V?$allocator@VAgentHandle@@@3@@std@@@2@@std@@QAEAAV?$set@VAgentHandle@@U?$less@VAgentHandle@@@std@@V?$allocator@VAgentHandle@@@3@@1@ABV?$basic_string@DU?$char_traits@D@std@@V?$allocator@D@2@@1@@Z 1000e760 f i NetHandlers.obj
 0001:0000d870       ??0?$_Tree@VAgentHandle@@V1@U_Kfn@?$set@VAgentHandle@@U?$less@VAgentHandle@@@std@@V?$allocator@VAgentHandle@@@3@@std@@U?$less@VAgentHandle@@@4@V?$allocator@VAgentHandle@@@4@@std@@QAE@ABV01@@Z 1000e870 f i NetHandlers.obj
 0001:0000d9c0       ??1?$_Tree@VAgentHandle@@V1@U_Kfn@?$set@VAgentHandle@@U?$less@VAgentHandle@@@std@@V?$allocator@VAgentHandle@@@3@@std@@U?$less@VAgentHandle@@@4@V?$allocator@VAgentHandle@@@4@@std@@QAE@XZ 1000e9c0 f i NetHandlers.obj
 0001:0000da80       ??Diterator@?$_Tree@VAgentHandle@@V1@U_Kfn@?$set@VAgentHandle@@U?$less@VAgentHandle@@@std@@V?$allocator@VAgentHandle@@@3@@std@@U?$less@VAgentHandle@@@4@V?$allocator@VAgentHandle@@@4@@std@@QBEAAVAgentHandle@@XZ 1000ea80 f i NetHandlers.obj
 0001:0000da90       ??1?$vector@V?$basic_string@DU?$char_traits@D@std@@V?$allocator@D@2@@std@@V?$allocator@V?$basic_string@DU?$char_traits@D@std@@V?$allocator@D@2@@std@@@2@@std@@QAE@XZ 1000ea90 f i NetHandlers.obj
 0001:0000db00       ??4?$vector@V?$basic_string@DU?$char_traits@D@std@@V?$allocator@D@2@@std@@V?$allocator@V?$basic_string@DU?$char_traits@D@std@@V?$allocator@D@2@@std@@@2@@std@@QAEAAV01@ABV01@@Z 1000eb00 f i NetHandlers.obj
 0001:0000dcf0       ?size@?$vector@V?$basic_string@DU?$char_traits@D@std@@V?$allocator@D@2@@std@@V?$allocator@V?$basic_string@DU?$char_traits@D@std@@V?$allocator@D@2@@std@@@2@@std@@QBEIXZ 1000ecf0 f i NetHandlers.obj
 0001:0000dcf0       ?size@?$vector@V?$vector@VOpSpec@@V?$allocator@VOpSpec@@@std@@@std@@V?$allocator@V?$vector@VOpSpec@@V?$allocator@VOpSpec@@@std@@@std@@@2@@std@@QBEIXZ 1000ecf0 f i NetHandlers.obj
 0001:0000dd10       ??0?$_Tree@V?$basic_string@DU?$char_traits@D@std@@V?$allocator@D@2@@std@@U?$pair@$$CBV?$basic_string@DU?$char_traits@D@std@@V?$allocator@D@2@@std@@J@2@U_Kfn@?$map@V?$basic_string@DU?$char_traits@D@std@@V?$allocator@D@2@@std@@JU?$less@V?$basic_string@DU?$char_traits@D@std@@V?$allocator@D@2@@std@@@2@V?$allocator@J@2@@2@U?$less@V?$basic_string@DU?$char_traits@D@std@@V?$allocator@D@2@@std@@@2@V?$allocator@J@2@@std@@QAE@ABV01@@Z 1000ed10 f i NetHandlers.obj
 0001:0000de60       ??1?$vector@V?$vector@VOpSpec@@V?$allocator@VOpSpec@@@std@@@std@@V?$allocator@V?$vector@VOpSpec@@V?$allocator@VOpSpec@@@std@@@std@@@2@@std@@QAE@XZ 1000ee60 f i NetHandlers.obj
 0001:0000dee0       ??0?$vector@HV?$allocator@H@std@@@std@@QAE@ABV01@@Z 1000eee0 f i NetHandlers.obj
 0001:0000df50       ??1?$vector@VAgentHandle@@V?$allocator@VAgentHandle@@@std@@@std@@QAE@XZ 1000ef50 f i NetHandlers.obj
 0001:0000df90       ??1?$vector@VCBabelServerInfo@@V?$allocator@VCBabelServerInfo@@@std@@@std@@QAE@XZ 1000ef90 f i NetHandlers.obj
 0001:0000dfd0       ?size@?$vector@VCBabelServerInfo@@V?$allocator@VCBabelServerInfo@@@std@@@std@@QBEIXZ 1000efd0 f i NetHandlers.obj
 0001:0000e000       ??A?$vector@VCBabelServerInfo@@V?$allocator@VCBabelServerInfo@@@std@@@std@@QAEAAVCBabelServerInfo@@I@Z 1000f000 f i NetHandlers.obj
 0001:0000e020       ??1?$_Tree@V?$basic_string@DU?$char_traits@D@std@@V?$allocator@D@2@@std@@U?$pair@$$CBV?$basic_string@DU?$char_traits@D@std@@V?$allocator@D@2@@std@@U?$pair@V?$basic_string@DU?$char_traits@D@std@@V?$allocator@D@2@@std@@H@2@@2@U_Kfn@?$map@V?$basic_string@DU?$char_traits@D@std@@V?$allocator@D@2@@std@@U?$pair@V?$basic_string@DU?$char_traits@D@std@@V?$allocator@D@2@@std@@H@2@U?$less@V?$basic_string@DU?$char_traits@D@std@@V?$allocator@D@2@@std@@@2@V?$allocator@U?$pair@V?$basic_string@DU?$char_traits@D@std@@V?$allocator@D@2@@std@@H@std@@@2@@2@U?$less@V?$basic_string@DU?$char_traits@D@std@@V?$allocator@D@2@@std@@@2@V?$allocator@U?$pair@V?$basic_string@DU?$char_traits@D@std@@V?$allocator@D@2@@std@@H@std@@@2@@std@@QAE@XZ 1000f020 f i NetHandlers.obj
 0001:0000e0e0       ??1?$_Tree@V?$basic_string@DU?$char_traits@D@std@@V?$allocator@D@2@@std@@U?$pair@$$CBV?$basic_string@DU?$char_traits@D@std@@V?$allocator@D@2@@std@@U?$pair@HV?$basic_string@DU?$char_traits@D@std@@V?$allocator@D@2@@std@@@2@@2@U_Kfn@?$map@V?$basic_string@DU?$char_traits@D@std@@V?$allocator@D@2@@std@@U?$pair@HV?$basic_string@DU?$char_traits@D@std@@V?$allocator@D@2@@std@@@2@U?$less@V?$basic_string@DU?$char_traits@D@std@@V?$allocator@D@2@@std@@@2@V?$allocator@U?$pair@HV?$basic_string@DU?$char_traits@D@std@@V?$allocator@D@2@@std@@@std@@@2@@2@U?$less@V?$basic_string@DU?$char_traits@D@std@@V?$allocator@D@2@@std@@@2@V?$allocator@U?$pair@HV?$basic_string@DU?$char_traits@D@std@@V?$allocator@D@2@@std@@@std@@@2@@std@@QAE@XZ 1000f0e0 f i NetHandlers.obj
 0001:0000e1a0       ??0?$list@V?$basic_string@DU?$char_traits@D@std@@V?$allocator@D@2@@std@@V?$allocator@V?$basic_string@DU?$char_traits@D@std@@V?$allocator@D@2@@std@@@2@@std@@QAE@ABV01@@Z 1000f1a0 f i NetHandlers.obj
 0001:0000e230       ??1?$list@V?$basic_string@DU?$char_traits@D@std@@V?$allocator@D@2@@std@@V?$allocator@V?$basic_string@DU?$char_traits@D@std@@V?$allocator@D@2@@std@@@2@@std@@QAE@XZ 1000f230 f i NetHandlers.obj
 0001:0000e2a0       ??4?$list@V?$basic_string@DU?$char_traits@D@std@@V?$allocator@D@2@@std@@V?$allocator@V?$basic_string@DU?$char_traits@D@std@@V?$allocator@D@2@@std@@@2@@std@@QAEAAV01@ABV01@@Z 1000f2a0 f i NetHandlers.obj
 0001:0000e3b0       ??0?$vector@UInputEvent@@V?$allocator@UInputEvent@@@std@@@std@@QAE@ABV01@@Z 1000f3b0 f i NetHandlers.obj
 0001:0000e440       ??4?$vector@UInputEvent@@V?$allocator@UInputEvent@@@std@@@std@@QAEAAV01@ABV01@@Z 1000f440 f i NetHandlers.obj
 0001:0000e640       ??4?$vector@KV?$allocator@K@std@@@std@@QAEAAV01@ABV01@@Z 1000f640 f i NetHandlers.obj
 0001:0000e640       ??4?$vector@HV?$allocator@H@std@@@std@@QAEAAV01@ABV01@@Z 1000f640 f i NetHandlers.obj
 0001:0000e7d0       ??1?$pair@$$CBV?$basic_string@DU?$char_traits@D@std@@V?$allocator@D@2@@std@@V?$set@VAgentHandle@@U?$less@VAgentHandle@@@std@@V?$allocator@VAgentHandle@@@3@@2@@std@@QAE@XZ 1000f7d0 f i NetHandlers.obj
 0001:0000e8e0       ?deallocate@?$allocator@D@std@@QAEXPAXI@Z 1000f8e0 f i NetHandlers.obj
 0001:0000e900       ??4?$_Tree@V?$basic_string@DU?$char_traits@D@std@@V?$allocator@D@2@@std@@U?$pair@$$CBV?$basic_string@DU?$char_traits@D@std@@V?$allocator@D@2@@std@@V12@@2@U_Kfn@?$map@V?$basic_string@DU?$char_traits@D@std@@V?$allocator@D@2@@std@@V12@U?$less@V?$basic_string@DU?$char_traits@D@std@@V?$allocator@D@2@@std@@@2@V?$allocator@V?$basic_string@DU?$char_traits@D@std@@V?$allocator@D@2@@std@@@2@@2@U?$less@V?$basic_string@DU?$char_traits@D@std@@V?$allocator@D@2@@std@@@2@V?$allocator@V?$basic_string@DU?$char_traits@D@std@@V?$allocator@D@2@@std@@@2@@std@@QAEAAV01@ABV01@@Z 1000f900 f i NetHandlers.obj
 0001:0000ea90       ?_Copy@?$_Tree@V?$basic_string@DU?$char_traits@D@std@@V?$allocator@D@2@@std@@U?$pair@$$CBV?$basic_string@DU?$char_traits@D@std@@V?$allocator@D@2@@std@@V12@@2@U_Kfn@?$map@V?$basic_string@DU?$char_traits@D@std@@V?$allocator@D@2@@std@@V12@U?$less@V?$basic_string@DU?$char_traits@D@std@@V?$allocator@D@2@@std@@@2@V?$allocator@V?$basic_string@DU?$char_traits@D@std@@V?$allocator@D@2@@std@@@2@@2@U?$less@V?$basic_string@DU?$char_traits@D@std@@V?$allocator@D@2@@std@@@2@V?$allocator@V?$basic_string@DU?$char_traits@D@std@@V?$allocator@D@2@@std@@@2@@std@@IAEXABV12@@Z 1000fa90 f i NetHandlers.obj
 0001:0000eb90       ?insert@?$map@V?$basic_string@DU?$char_traits@D@std@@V?$allocator@D@2@@std@@V?$set@VAgentHandle@@U?$less@VAgentHandle@@@std@@V?$allocator@VAgentHandle@@@3@@2@U?$less@V?$basic_string@DU?$char_traits@D@std@@V?$allocator@D@2@@std@@@2@V?$allocator@V?$set@VAgentHandle@@U?$less@VAgentHandle@@@std@@V?$allocator@VAgentHandle@@@3@@std@@@2@@std@@QAE?AU?$pair@Viterator@?$_Tree@V?$basic_string@DU?$char_traits@D@std@@V?$allocator@D@2@@std@@U?$pair@$$CBV?$basic_string@DU?$char_traits@D@std@@V?$allocator@D@2@@std@@V?$set@VAgentHandle@@U?$less@VAgentHandle@@@std@@V?$allocator@VAgentHandle@@@3@@2@@2@U_Kfn@?$map@V?$basic_string@DU?$char_traits@D@std@@V?$allocator@D@2@@std@@V?$set@VAgentHandle@@U?$less@VAgentHandle@@@std@@V?$allocator@VAgentHandle@@@3@@2@U?$less@V?$basic_string@DU?$char_traits@D@std@@V?$allocator@D@2@@std@@@2@V?$allocator@V?$set@VAgentHandle@@U?$less@VAgentHandle@@@std@@V?$allocator@VAgentHandle@@@3@@std@@@2@@2@U?$less@V?$basic_string@DU?$char_traits@D@std@@V?$allocator@D@2@@std@@@2@V?$allocator@V?$set@VAgentHandle@@U?$less@VAgentHandle@@@std@@V?$allocator@VAgentHandle@@@3@@std@@@2@@std@@_N@2@ABU?$pair@$$CBV?$basic_string@DU?$char_traits@D@std@@V?$allocator@D@2@@std@@V?$set@VAgentHandle@@U?$less@VAgentHandle@@@std@@V?$allocator@VAgentHandle@@@3@@2@@2@@Z 1000fb90 f i NetHandlers.obj
 0001:0000ec80       ?begin@?$_Tree@V?$basic_string@DU?$char_traits@D@std@@V?$allocator@D@2@@std@@U?$pair@$$CBV?$basic_string@DU?$char_traits@D@std@@V?$allocator@D@2@@std@@V12@@2@U_Kfn@?$map@V?$basic_string@DU?$char_traits@D@std@@V?$allocator@D@2@@std@@V12@U?$less@V?$basic_string@DU?$char_traits@D@std@@V?$allocator@D@2@@std@@@2@V?$allocator@V?$basic_string@DU?$char_traits@D@std@@V?$allocator@D@2@@std@@@2@@2@U?$less@V?$basic_string@DU?$char_traits@D@std@@V?$allocator@D@2@@std@@@2@V?$allocator@V?$basic_string@DU?$char_traits@D@std@@V?$allocator@D@2@@std@@@2@@std@@QAE?AViterator@12@XZ 1000fc80 f i NetHandlers.obj
 0001:0000ec80       ?begin@?$_Tree@V?$basic_string@DU?$char_traits@D@std@@V?$allocator@D@2@@std@@U?$pair@$$CBV?$basic_string@DU?$char_traits@D@std@@V?$allocator@D@2@@std@@U?$pair@V?$basic_string@DU?$char_traits@D@std@@V?$allocator@D@2@@std@@H@2@@2@U_Kfn@?$map@V?$basic_string@DU?$char_traits@D@std@@V?$allocator@D@2@@std@@U?$pair@V?$basic_string@DU?$char_traits@D@std@@V?$allocator@D@2@@std@@H@2@U?$less@V?$basic_string@DU?$char_traits@D@std@@V?$allocator@D@2@@std@@@2@V?$allocator@U?$pair@V?$basic_string@DU?$char_traits@D@std@@V?$allocator@D@2@@std@@H@std@@@2@@2@U?$less@V?$basic_string@DU?$char_traits@D@std@@V?$allocator@D@2@@std@@@2@V?$allocator@U?$pair@V?$basic_string@DU?$char_traits@D@std@@V?$allocator@D@2@@std@@H@std@@@2@@std@@QAE?AViterator@12@XZ 1000fc80 f i NetHandlers.obj
 0001:0000ec80       ?begin@?$_Tree@V?$basic_string@DU?$char_traits@D@std@@V?$allocator@D@2@@std@@U?$pair@$$CBV?$basic_string@DU?$char_traits@D@std@@V?$allocator@D@2@@std@@V?$set@VAgentHandle@@U?$less@VAgentHandle@@@std@@V?$allocator@VAgentHandle@@@3@@2@@2@U_Kfn@?$map@V?$basic_string@DU?$char_traits@D@std@@V?$allocator@D@2@@std@@V?$set@VAgentHandle@@U?$less@VAgentHandle@@@std@@V?$allocator@VAgentHandle@@@3@@2@U?$less@V?$basic_string@DU?$char_traits@D@std@@V?$allocator@D@2@@std@@@2@V?$allocator@V?$set@VAgentHandle@@U?$less@VAgentHandle@@@std@@V?$allocator@VAgentHandle@@@3@@std@@@2@@2@U?$less@V?$basic_string@DU?$char_traits@D@std@@V?$allocator@D@2@@std@@@2@V?$allocator@V?$set@VAgentHandle@@U?$less@VAgentHandle@@@std@@V?$allocator@VAgentHandle@@@3@@std@@@2@@std@@QBE?AVconst_iterator@12@XZ 1000fc80 f i NetHandlers.obj
 0001:0000ec80       ?begin@?$_Tree@V?$basic_string@DU?$char_traits@D@std@@V?$allocator@D@2@@std@@U?$pair@$$CBV?$basic_string@DU?$char_traits@D@std@@V?$allocator@D@2@@std@@VPrayChunkPtr@@@2@U_Kfn@?$map@V?$basic_string@DU?$char_traits@D@std@@V?$allocator@D@2@@std@@VPrayChunkPtr@@U?$less@V?$basic_string@DU?$char_traits@D@std@@V?$allocator@D@2@@std@@@2@V?$allocator@VPrayChunkPtr@@@2@@2@U?$less@V?$basic_string@DU?$char_traits@D@std@@V?$allocator@D@2@@std@@@2@V?$allocator@VPrayChunkPtr@@@2@@std@@QAE?AViterator@12@XZ 1000fc80 f i NetHandlers.obj
 0001:0000ec80       ?begin@?$_Tree@PBVPersistentObject@@U?$pair@QBVPersistentObject@@J@std@@U_Kfn@?$map@PBVPersistentObject@@JU?$less@PBVPersistentObject@@@std@@V?$allocator@J@3@@3@U?$less@PBVPersistentObject@@@3@V?$allocator@J@3@@std@@QAE?AViterator@12@XZ 1000fc80 f i NetHandlers.obj
 0001:0000ec80       ?begin@?$_Tree@V?$basic_string@DU?$char_traits@D@std@@V?$allocator@D@2@@std@@U?$pair@$$CBV?$basic_string@DU?$char_traits@D@std@@V?$allocator@D@2@@std@@PAVNetDirectLink@@@2@U_Kfn@?$multimap@V?$basic_string@DU?$char_traits@D@std@@V?$allocator@D@2@@std@@PAVNetDirectLink@@U?$less@V?$basic_string@DU?$char_traits@D@std@@V?$allocator@D@2@@std@@@2@V?$allocator@PAVNetDirectLink@@@2@@2@U?$less@V?$basic_string@DU?$char_traits@D@std@@V?$allocator@D@2@@std@@@2@V?$allocator@PAVNetDirectLink@@@2@@std@@QAE?AViterator@12@XZ 1000fc80 f i NetHandlers.obj
 0001:0000ec80       ?begin@?$list@PBVQueuedMessage@@V?$allocator@PBVQueuedMessage@@@std@@@std@@QAE?AViterator@12@XZ 1000fc80 f i NetHandlers.obj
 0001:0000ec80       ?begin@?$_Tree@V?$basic_string@DU?$char_traits@D@std@@V?$allocator@D@2@@std@@U?$pair@$$CBV?$basic_string@DU?$char_traits@D@std@@V?$allocator@D@2@@std@@_N@2@U_Kfn@?$map@V?$basic_string@DU?$char_traits@D@std@@V?$allocator@D@2@@std@@_NU?$less@V?$basic_string@DU?$char_traits@D@std@@V?$allocator@D@2@@std@@@2@V?$allocator@_N@2@@2@U?$less@V?$basic_string@DU?$char_traits@D@std@@V?$allocator@D@2@@std@@@2@V?$allocator@_N@2@@std@@QAE?AViterator@12@XZ 1000fc80 f i NetHandlers.obj
 0001:0000ec80       ?begin@?$_Tree@V?$basic_string@DU?$char_traits@D@std@@V?$allocator@D@2@@std@@U?$pair@$$CBV?$basic_string@DU?$char_traits@D@std@@V?$allocator@D@2@@std@@VCAOSVar@@@2@U_Kfn@?$map@V?$basic_string@DU?$char_traits@D@std@@V?$allocator@D@2@@std@@VCAOSVar@@U?$less@V?$basic_string@DU?$char_traits@D@std@@V?$allocator@D@2@@std@@@2@V?$allocator@VCAOSVar@@@2@@2@U?$less@V?$basic_string@DU?$char_traits@D@std@@V?$allocator@D@2@@std@@@2@V?$allocator@VCAOSVar@@@2@@std@@QAE?AViterator@12@XZ 1000fc80 f i NetHandlers.obj
 0001:0000ec80       ?begin@?$_Tree@V?$basic_string@DU?$char_traits@D@std@@V?$allocator@D@2@@std@@U?$pair@$$CBV?$basic_string@DU?$char_traits@D@std@@V?$allocator@D@2@@std@@U?$pair@HV?$basic_string@DU?$char_traits@D@std@@V?$allocator@D@2@@std@@@2@@2@U_Kfn@?$map@V?$basic_string@DU?$char_traits@D@std@@V?$allocator@D@2@@std@@U?$pair@HV?$basic_string@DU?$char_traits@D@std@@V?$allocator@D@2@@std@@@2@U?$less@V?$basic_string@DU?$char_traits@D@std@@V?$allocator@D@2@@std@@@2@V?$allocator@U?$pair@HV?$basic_string@DU?$char_traits@D@std@@V?$allocator@D@2@@std@@@std@@@2@@2@U?$less@V?$basic_string@DU?$char_traits@D@std@@V?$allocator@D@2@@std@@@2@V?$allocator@U?$pair@HV?$basic_string@DU?$char_traits@D@std@@V?$allocator@D@2@@std@@@std@@@2@@std@@QAE?AViterator@12@XZ 1000fc80 f i NetHandlers.obj
 0001:0000ec80       ?begin@?$_Tree@PAVCBabelClient@@U?$pair@QAVCBabelClient@@PAVNetManager@@@std@@U_Kfn@?$map@PAVCBabelClient@@PAVNetManager@@U?$less@PAVCBabelClient@@@std@@V?$allocator@PAVNetManager@@@4@@3@U?$less@PAVCBabelClient@@@3@V?$allocator@PAVNetManager@@@3@@std@@QAE?AViterator@12@XZ 1000fc80 f i NetHandlers.obj
 0001:0000ec80       ?begin@?$_Tree@V?$basic_string@DU?$char_traits@D@std@@V?$allocator@D@2@@std@@U?$pair@$$CBV?$basic_string@DU?$char_traits@D@std@@V?$allocator@D@2@@std@@VCreatureHistory@@@2@U_Kfn@?$map@V?$basic_string@DU?$char_traits@D@std@@V?$allocator@D@2@@std@@VCreatureHistory@@U?$less@V?$basic_string@DU?$char_traits@D@std@@V?$allocator@D@2@@std@@@2@V?$allocator@VCreatureHistory@@@2@@2@U?$less@V?$basic_string@DU?$char_traits@D@std@@V?$allocator@D@2@@std@@@2@V?$allocator@VCreatureHistory@@@2@@std@@QAE?AViterator@12@XZ 1000fc80 f i NetHandlers.obj
 0001:0000ec80       ?begin@?$_Tree@V?$basic_string@DU?$char_traits@D@std@@V?$allocator@D@2@@std@@U?$pair@$$CBV?$basic_string@DU?$char_traits@D@std@@V?$allocator@D@2@@std@@V?$set@VAgentHandle@@U?$less@VAgentHandle@@@std@@V?$allocator@VAgentHandle@@@3@@2@@2@U_Kfn@?$map@V?$basic_string@DU?$char_traits@D@std@@V?$allocator@D@2@@std@@V?$set@VAgentHandle@@U?$less@VAgentHandle@@@std@@V?$allocator@VAgentHandle@@@3@@2@U?$less@V?$basic_string@DU?$char_traits@D@std@@V?$allocator@D@2@@std@@@2@V?$allocator@V?$set@VAgentHandle@@U?$less@VAgentHandle@@@std@@V?$allocator@VAgentHandle@@@3@@std@@@2@@2@U?$less@V?$basic_string@DU?$char_traits@D@std@@V?$allocator@D@2@@std@@@2@V?$allocator@V?$set@VAgentHandle@@U?$less@VAgentHandle@@@std@@V?$allocator@VAgentHandle@@@3@@std@@@2@@std@@QAE?AViterator@12@XZ 1000fc80 f i NetHandlers.obj
 0001:0000ec80       ?begin@?$_Tree@V?$basic_string@DU?$char_traits@D@std@@V?$allocator@D@2@@std@@V12@U_Kfn@?$set@V?$basic_string@DU?$char_traits@D@std@@V?$allocator@D@2@@std@@U?$less@V?$basic_string@DU?$char_traits@D@std@@V?$allocator@D@2@@std@@@2@V?$allocator@V?$basic_string@DU?$char_traits@D@std@@V?$allocator@D@2@@std@@@2@@2@U?$less@V?$basic_string@DU?$char_traits@D@std@@V?$allocator@D@2@@std@@@2@V?$allocator@V?$basic_string@DU?$char_traits@D@std@@V?$allocator@D@2@@std@@@2@@std@@QAE?AViterator@12@XZ 1000fc80 f i NetHandlers.obj
 0001:0000ec80       ?begin@?$_Tree@VAgentHandle@@V1@U_Kfn@?$set@VAgentHandle@@U?$less@VAgentHandle@@@std@@V?$allocator@VAgentHandle@@@3@@std@@U?$less@VAgentHandle@@@4@V?$allocator@VAgentHandle@@@4@@std@@QAE?AViterator@12@XZ 1000fc80 f i NetHandlers.obj
 0001:0000ec80       ?begin@?$_Tree@PBMU?$pair@QBMJ@std@@U_Kfn@?$map@PBMJU?$less@PBM@std@@V?$allocator@J@2@@2@U?$less@PBM@2@V?$allocator@J@2@@std@@QAE?AViterator@12@XZ 1000fc80 f i NetHandlers.obj
 0001:0000ec80       ?begin@?$_Tree@VAgentHandle@@V1@U_Kfn@?$set@VAgentHandle@@U?$less@VAgentHandle@@@std@@V?$allocator@VAgentHandle@@@3@@std@@U?$less@VAgentHandle@@@4@V?$allocator@VAgentHandle@@@4@@std@@QBE?AVconst_iterator@12@XZ 1000fc80 f i NetHandlers.obj
 0001:0000ec80       ?begin@?$_Tree@HU?$pair@$$CBHPAVCBabelAsyncCore@@@std@@U_Kfn@?$map@HPAVCBabelAsyncCore@@U?$less@H@std@@V?$allocator@PAVCBabelAsyncCore@@@3@@2@U?$less@H@2@V?$allocator@PAVCBabelAsyncCore@@@2@@std@@QAE?AViterator@12@XZ 1000fc80 f i NetHandlers.obj
 0001:0000eca0       ?erase@?$_Tree@V?$basic_string@DU?$char_traits@D@std@@V?$allocator@D@2@@std@@U?$pair@$$CBV?$basic_string@DU?$char_traits@D@std@@V?$allocator@D@2@@std@@V?$set@VAgentHandle@@U?$less@VAgentHandle@@@std@@V?$allocator@VAgentHandle@@@3@@2@@2@U_Kfn@?$map@V?$basic_string@DU?$char_traits@D@std@@V?$allocator@D@2@@std@@V?$set@VAgentHandle@@U?$less@VAgentHandle@@@std@@V?$allocator@VAgentHandle@@@3@@2@U?$less@V?$basic_string@DU?$char_traits@D@std@@V?$allocator@D@2@@std@@@2@V?$allocator@V?$set@VAgentHandle@@U?$less@VAgentHandle@@@std@@V?$allocator@VAgentHandle@@@3@@std@@@2@@2@U?$less@V?$basic_string@DU?$char_traits@D@std@@V?$allocator@D@2@@std@@@2@V?$allocator@V?$set@VAgentHandle@@U?$less@VAgentHandle@@@std@@V?$allocator@VAgentHandle@@@3@@std@@@2@@std@@QAE?AViterator@12@V312@@Z 1000fca0 f i NetHandlers.obj
 0001:0000f070       ?find@?$_Tree@V?$basic_string@DU?$char_traits@D@std@@V?$allocator@D@2@@std@@U?$pair@$$CBV?$basic_string@DU?$char_traits@D@std@@V?$allocator@D@2@@std@@V?$set@VAgentHandle@@U?$less@VAgentHandle@@@std@@V?$allocator@VAgentHandle@@@3@@2@@2@U_Kfn@?$map@V?$basic_string@DU?$char_traits@D@std@@V?$allocator@D@2@@std@@V?$set@VAgentHandle@@U?$less@VAgentHandle@@@std@@V?$allocator@VAgentHandle@@@3@@2@U?$less@V?$basic_string@DU?$char_traits@D@std@@V?$allocator@D@2@@std@@@2@V?$allocator@V?$set@VAgentHandle@@U?$less@VAgentHandle@@@std@@V?$allocator@VAgentHandle@@@3@@std@@@2@@2@U?$less@V?$basic_string@DU?$char_traits@D@std@@V?$allocator@D@2@@std@@@2@V?$allocator@V?$set@VAgentHandle@@U?$less@VAgentHandle@@@std@@V?$allocator@VAgentHandle@@@3@@std@@@2@@std@@QAE?AViterator@12@ABV?$basic_string@DU?$char_traits@D@std@@V?$allocator@D@2@@2@@Z 10010070 f i NetHandlers.obj
 0001:0000f070       ?find@?$_Tree@V?$basic_string@DU?$char_traits@D@std@@V?$allocator@D@2@@std@@U?$pair@$$CBV?$basic_string@DU?$char_traits@D@std@@V?$allocator@D@2@@std@@PAVNetDirectLink@@@2@U_Kfn@?$multimap@V?$basic_string@DU?$char_traits@D@std@@V?$allocator@D@2@@std@@PAVNetDirectLink@@U?$less@V?$basic_string@DU?$char_traits@D@std@@V?$allocator@D@2@@std@@@2@V?$allocator@PAVNetDirectLink@@@2@@2@U?$less@V?$basic_string@DU?$char_traits@D@std@@V?$allocator@D@2@@std@@@2@V?$allocator@PAVNetDirectLink@@@2@@std@@QAE?AViterator@12@ABV?$basic_string@DU?$char_traits@D@std@@V?$allocator@D@2@@2@@Z 10010070 f i NetHandlers.obj
 0001:0000f070       ?find@?$_Tree@V?$basic_string@DU?$char_traits@D@std@@V?$allocator@D@2@@std@@V12@U_Kfn@?$set@V?$basic_string@DU?$char_traits@D@std@@V?$allocator@D@2@@std@@U?$less@V?$basic_string@DU?$char_traits@D@std@@V?$allocator@D@2@@std@@@2@V?$allocator@V?$basic_string@DU?$char_traits@D@std@@V?$allocator@D@2@@std@@@2@@2@U?$less@V?$basic_string@DU?$char_traits@D@std@@V?$allocator@D@2@@std@@@2@V?$allocator@V?$basic_string@DU?$char_traits@D@std@@V?$allocator@D@2@@std@@@2@@std@@QAE?AViterator@12@ABV?$basic_string@DU?$char_traits@D@std@@V?$allocator@D@2@@2@@Z 10010070 f i NetHandlers.obj
 0001:0000f070       ?find@?$_Tree@V?$basic_string@DU?$char_traits@D@std@@V?$allocator@D@2@@std@@U?$pair@$$CBV?$basic_string@DU?$char_traits@D@std@@V?$allocator@D@2@@std@@_N@2@U_Kfn@?$map@V?$basic_string@DU?$char_traits@D@std@@V?$allocator@D@2@@std@@_NU?$less@V?$basic_string@DU?$char_traits@D@std@@V?$allocator@D@2@@std@@@2@V?$allocator@_N@2@@2@U?$less@V?$basic_string@DU?$char_traits@D@std@@V?$allocator@D@2@@std@@@2@V?$allocator@_N@2@@std@@QAE?AViterator@12@ABV?$basic_string@DU?$char_traits@D@std@@V?$allocator@D@2@@2@@Z 10010070 f i NetHandlers.obj
 0001:0000f100       ??0?$pair@$$CBV?$basic_string@DU?$char_traits@D@std@@V?$allocator@D@2@@std@@V?$set@VAgentHandle@@U?$less@VAgentHandle@@@std@@V?$allocator@VAgentHandle@@@3@@2@@std@@QAE@ABV?$basic_string@DU?$char_traits@D@std@@V?$allocator@D@2@@1@ABV?$set@VAgentHandle@@U?$less@VAgentHandle@@@std@@V?$allocator@VAgentHandle@@@3@@1@@Z 10010100 f i NetHandlers.obj
 0001:0000f280       ??0?$set@VAgentHandle@@U?$less@VAgentHandle@@@std@@V?$allocator@VAgentHandle@@@3@@std@@QAE@ABU?$less@VAgentHandle@@@1@ABV?$allocator@VAgentHandle@@@1@@Z 10010280 f i NetHandlers.obj
 0001:0000f2f0       ?insert@?$_Tree@VAgentHandle@@V1@U_Kfn@?$set@VAgentHandle@@U?$less@VAgentHandle@@@std@@V?$allocator@VAgentHandle@@@3@@std@@U?$less@VAgentHandle@@@4@V?$allocator@VAgentHandle@@@4@@std@@QAE?AU?$pair@Viterator@?$_Tree@VAgentHandle@@V1@U_Kfn@?$set@VAgentHandle@@U?$less@VAgentHandle@@@std@@V?$allocator@VAgentHandle@@@3@@std@@U?$less@VAgentHandle@@@4@V?$allocator@VAgentHandle@@@4@@std@@_N@2@ABVAgentHandle@@@Z 100102f0 f i NetHandlers.obj
 0001:0000f550       ?erase@?$_Tree@VAgentHandle@@V1@U_Kfn@?$set@VAgentHandle@@U?$less@VAgentHandle@@@std@@V?$allocator@VAgentHandle@@@3@@std@@U?$less@VAgentHandle@@@4@V?$allocator@VAgentHandle@@@4@@std@@QAE?AViterator@12@V312@@Z 10010550 f i NetHandlers.obj
 0001:0000f920       ?erase@?$_Tree@VAgentHandle@@V1@U_Kfn@?$set@VAgentHandle@@U?$less@VAgentHandle@@@std@@V?$allocator@VAgentHandle@@@3@@std@@U?$less@VAgentHandle@@@4@V?$allocator@VAgentHandle@@@4@@std@@QAE?AViterator@12@V312@0@Z 10010920 f i NetHandlers.obj
 0001:0000f9d0       ?find@?$_Tree@VAgentHandle@@V1@U_Kfn@?$set@VAgentHandle@@U?$less@VAgentHandle@@@std@@V?$allocator@VAgentHandle@@@3@@std@@U?$less@VAgentHandle@@@4@V?$allocator@VAgentHandle@@@4@@std@@QAE?AViterator@12@ABVAgentHandle@@@Z 100109d0 f i NetHandlers.obj
 0001:0000fa50       ?_Copy@?$_Tree@VAgentHandle@@V1@U_Kfn@?$set@VAgentHandle@@U?$less@VAgentHandle@@@std@@V?$allocator@VAgentHandle@@@3@@std@@U?$less@VAgentHandle@@@4@V?$allocator@VAgentHandle@@@4@@std@@IAEXABV12@@Z 10010a50 f i NetHandlers.obj
 0001:0000fb50       ?_Init@?$_Tree@VAgentHandle@@V1@U_Kfn@?$set@VAgentHandle@@U?$less@VAgentHandle@@@std@@V?$allocator@VAgentHandle@@@3@@std@@U?$less@VAgentHandle@@@4@V?$allocator@VAgentHandle@@@4@@std@@IAEXXZ 10010b50 f i NetHandlers.obj
 0001:0000fbb0       ?_Inc@iterator@?$_Tree@VAgentHandle@@V1@U_Kfn@?$set@VAgentHandle@@U?$less@VAgentHandle@@@std@@V?$allocator@VAgentHandle@@@3@@std@@U?$less@VAgentHandle@@@4@V?$allocator@VAgentHandle@@@4@@std@@QAEXXZ 10010bb0 f i NetHandlers.obj
 0001:0000fc00       ?_Ucopy@?$vector@V?$vector@V?$basic_string@DU?$char_traits@D@std@@V?$allocator@D@2@@std@@V?$allocator@V?$basic_string@DU?$char_traits@D@std@@V?$allocator@D@2@@std@@@2@@std@@V?$allocator@V?$vector@V?$basic_string@DU?$char_traits@D@std@@V?$allocator@D@2@@std@@V?$allocator@V?$basic_string@DU?$char_traits@D@std@@V?$allocator@D@2@@std@@@2@@std@@@2@@std@@IAEPAV?$vector@V?$basic_string@DU?$char_traits@D@std@@V?$allocator@D@2@@std@@V?$allocator@V?$basic_string@DU?$char_traits@D@std@@V?$allocator@D@2@@std@@@2@@2@PBV32@0PAV32@@Z 10010c00 f i NetHandlers.obj
 0001:0000fc40       ?capacity@?$vector@HV?$allocator@H@std@@@std@@QBEIXZ 10010c40 f i NetHandlers.obj
 0001:0000fc40       ?capacity@?$vector@PAMV?$allocator@PAM@std@@@std@@QBEIXZ 10010c40 f i NetHandlers.obj
 0001:0000fc40       ?capacity@?$vector@VAgentHandle@@V?$allocator@VAgentHandle@@@std@@@std@@QBEIXZ 10010c40 f i NetHandlers.obj
 0001:0000fc40       ?capacity@?$vector@W4MessageType@NetMessages@@V?$allocator@W4MessageType@NetMessages@@@std@@@std@@QBEIXZ 10010c40 f i NetHandlers.obj
 0001:0000fc40       ?capacity@?$vector@PAVPersistentObject@@V?$allocator@PAVPersistentObject@@@std@@@std@@QBEIXZ 10010c40 f i NetHandlers.obj
 0001:0000fc60       ?size@?$vector@VAgentHandle@@V?$allocator@VAgentHandle@@@std@@@std@@QBEIXZ 10010c60 f i NetHandlers.obj
 0001:0000fc60       ?size@?$vector@PAMV?$allocator@PAM@std@@@std@@QBEIXZ 10010c60 f i NetHandlers.obj
 0001:0000fc60       ?size@?$vector@W4MessageType@NetMessages@@V?$allocator@W4MessageType@NetMessages@@@std@@@std@@QBEIXZ 10010c60 f i NetHandlers.obj
 0001:0000fc60       ?size@?$vector@HV?$allocator@H@std@@@std@@QBEIXZ 10010c60 f i NetHandlers.obj
 0001:0000fc60       ?size@?$vector@PAVPersistentObject@@V?$allocator@PAVPersistentObject@@@std@@@std@@QBEIXZ 10010c60 f i NetHandlers.obj
 0001:0000fc60       ?size@?$vector@PAVCBabelVirtualSocket@@V?$allocator@PAVCBabelVirtualSocket@@@std@@@std@@QBEIXZ 10010c60 f i NetHandlers.obj
 0001:0000fc80       ?erase@?$_Tree@PBVPersistentObject@@U?$pair@QBVPersistentObject@@J@std@@U_Kfn@?$map@PBVPersistentObject@@JU?$less@PBVPersistentObject@@@std@@V?$allocator@J@3@@3@U?$less@PBVPersistentObject@@@3@V?$allocator@J@3@@std@@QAE?AViterator@12@V312@0@Z 10010c80 f i NetHandlers.obj
 0001:0000fd30       ?_Copy@?$_Tree@PBVPersistentObject@@U?$pair@QBVPersistentObject@@J@std@@U_Kfn@?$map@PBVPersistentObject@@JU?$less@PBVPersistentObject@@@std@@V?$allocator@J@3@@3@U?$less@PBVPersistentObject@@@3@V?$allocator@J@3@@std@@IAEXABV12@@Z 10010d30 f i NetHandlers.obj
 0001:0000fe30       ?_Init@?$_Tree@PBVPersistentObject@@U?$pair@QBVPersistentObject@@J@std@@U_Kfn@?$map@PBVPersistentObject@@JU?$less@PBVPersistentObject@@@std@@V?$allocator@J@3@@3@U?$less@PBVPersistentObject@@@3@V?$allocator@J@3@@std@@IAEXXZ 10010e30 f i NetHandlers.obj
 0001:0000fe30       ?_Init@?$_Tree@PBMU?$pair@QBMJ@std@@U_Kfn@?$map@PBMJU?$less@PBM@std@@V?$allocator@J@2@@2@U?$less@PBM@2@V?$allocator@J@2@@std@@IAEXXZ 10010e30 f i NetHandlers.obj
 0001:0000fe90       ?_Ucopy@?$vector@PAMV?$allocator@PAM@std@@@std@@IAEPAPAMPBQAM0PAPAM@Z 10010e90 f i NetHandlers.obj
 0001:0000fe90       ?_Ucopy@?$vector@PAVCBabelAsyncCoreChild@@V?$allocator@PAVCBabelAsyncCoreChild@@@std@@@std@@IAEPAPAVCBabelAsyncCoreChild@@PBQAV3@0PAPAV3@@Z 10010e90 f i NetHandlers.obj
 0001:0000fe90       ?_Ucopy@?$vector@PAVPersistentObject@@V?$allocator@PAVPersistentObject@@@std@@@std@@IAEPAPAVPersistentObject@@PBQAV3@0PAPAV3@@Z 10010e90 f i NetHandlers.obj
 0001:0000fe90       ?_Ucopy@?$vector@HV?$allocator@H@std@@@std@@IAEPAHPBH0PAH@Z 10010e90 f i NetHandlers.obj
 0001:0000fe90       ?_Ucopy@?$vector@KV?$allocator@K@std@@@std@@IAEPAKPBK0PAK@Z 10010e90 f i NetHandlers.obj
 0001:0000fe90       ?_Ucopy@?$vector@PAVCBabelRemoteSwitch@@V?$allocator@PAVCBabelRemoteSwitch@@@std@@@std@@IAEPAPAVCBabelRemoteSwitch@@PBQAV3@0PAPAV3@@Z 10010e90 f i NetHandlers.obj
 0001:0000fe90       ?_Ucopy@?$vector@W4MessageType@NetMessages@@V?$allocator@W4MessageType@NetMessages@@@std@@@std@@IAEPAW4MessageType@NetMessages@@PBW434@0PAW434@@Z 10010e90 f i NetHandlers.obj
 0001:0000fe90       ?_Ucopy@?$vector@PAVCBabelVirtualSocket@@V?$allocator@PAVCBabelVirtualSocket@@@std@@@std@@IAEPAPAVCBabelVirtualSocket@@PBQAV3@0PAPAV3@@Z 10010e90 f i NetHandlers.obj
 0001:0000fec0       ??4?$_Tree@PBMU?$pair@QBMJ@std@@U_Kfn@?$map@PBMJU?$less@PBM@std@@V?$allocator@J@2@@2@U?$less@PBM@2@V?$allocator@J@2@@std@@QAEAAV01@ABV01@@Z 10010ec0 f i NetHandlers.obj
 0001:00010040       ?_Copy@?$_Tree@PBMU?$pair@QBMJ@std@@U_Kfn@?$map@PBMJU?$less@PBM@std@@V?$allocator@J@2@@2@U?$less@PBM@2@V?$allocator@J@2@@std@@IAEXABV12@@Z 10011040 f i NetHandlers.obj
 0001:00010140       ?capacity@?$vector@V?$vector@VOpSpec@@V?$allocator@VOpSpec@@@std@@@std@@V?$allocator@V?$vector@VOpSpec@@V?$allocator@VOpSpec@@@std@@@std@@@2@@std@@QBEIXZ 10011140 f i NetHandlers.obj
 0001:00010140       ?capacity@?$vector@V?$basic_string@DU?$char_traits@D@std@@V?$allocator@D@2@@std@@V?$allocator@V?$basic_string@DU?$char_traits@D@std@@V?$allocator@D@2@@std@@@2@@std@@QBEIXZ 10011140 f i NetHandlers.obj
 0001:00010160       ?_Destroy@?$vector@V?$basic_string@DU?$char_traits@D@std@@V?$allocator@D@2@@std@@V?$allocator@V?$basic_string@DU?$char_traits@D@std@@V?$allocator@D@2@@std@@@2@@std@@IAEXPAV?$basic_string@DU?$char_traits@D@std@@V?$allocator@D@2@@2@0@Z 10011160 f i NetHandlers.obj
 0001:000101b0       ?_Ucopy@?$vector@V?$basic_string@DU?$char_traits@D@std@@V?$allocator@D@2@@std@@V?$allocator@V?$basic_string@DU?$char_traits@D@std@@V?$allocator@D@2@@std@@@2@@std@@IAEPAV?$basic_string@DU?$char_traits@D@std@@V?$allocator@D@2@@2@PBV32@0PAV32@@Z 100111b0 f i NetHandlers.obj
 0001:000101f0       ??4?$_Tree@V?$basic_string@DU?$char_traits@D@std@@V?$allocator@D@2@@std@@U?$pair@$$CBV?$basic_string@DU?$char_traits@D@std@@V?$allocator@D@2@@std@@J@2@U_Kfn@?$map@V?$basic_string@DU?$char_traits@D@std@@V?$allocator@D@2@@std@@JU?$less@V?$basic_string@DU?$char_traits@D@std@@V?$allocator@D@2@@std@@@2@V?$allocator@J@2@@2@U?$less@V?$basic_string@DU?$char_traits@D@std@@V?$allocator@D@2@@std@@@2@V?$allocator@J@2@@std@@QAEAAV01@ABV01@@Z 100111f0 f i NetHandlers.obj
 0001:00010380       ?_Destroy@?$vector@V?$vector@VOpSpec@@V?$allocator@VOpSpec@@@std@@@std@@V?$allocator@V?$vector@VOpSpec@@V?$allocator@VOpSpec@@@std@@@std@@@2@@std@@IAEXPAV?$vector@VOpSpec@@V?$allocator@VOpSpec@@@std@@@2@0@Z 10011380 f i NetHandlers.obj
 0001:000103e0       ?_Ucopy@?$vector@V?$vector@VOpSpec@@V?$allocator@VOpSpec@@@std@@@std@@V?$allocator@V?$vector@VOpSpec@@V?$allocator@VOpSpec@@@std@@@std@@@2@@std@@IAEPAV?$vector@VOpSpec@@V?$allocator@VOpSpec@@@std@@@2@PBV32@0PAV32@@Z 100113e0 f i NetHandlers.obj
 0001:00010420       ?erase@?$vector@HV?$allocator@H@std@@@std@@QAEPAHPAH@Z 10011420 f i NetHandlers.obj
 0001:00010460       ?_Destroy@?$vector@VAgentHandle@@V?$allocator@VAgentHandle@@@std@@@std@@IAEXPAVAgentHandle@@0@Z 10011460 f i NetHandlers.obj
 0001:00010490       ?_Ucopy@?$vector@VAgentHandle@@V?$allocator@VAgentHandle@@@std@@@std@@IAEPAVAgentHandle@@PBV3@0PAV3@@Z 10011490 f i NetHandlers.obj
 0001:000104d0       ?insert@?$vector@VCBabelServerInfo@@V?$allocator@VCBabelServerInfo@@@std@@@std@@QAEXPAVCBabelServerInfo@@IABV3@@Z 100114d0 f i NetHandlers.obj
 0001:00010870       ?erase@?$vector@VCBabelServerInfo@@V?$allocator@VCBabelServerInfo@@@std@@@std@@QAEPAVCBabelServerInfo@@PAV3@0@Z 10011870 f i NetHandlers.obj
 0001:00010920       ??4?$_Tree@V?$basic_string@DU?$char_traits@D@std@@V?$allocator@D@2@@std@@U?$pair@$$CBV?$basic_string@DU?$char_traits@D@std@@V?$allocator@D@2@@std@@VPrayChunkPtr@@@2@U_Kfn@?$map@V?$basic_string@DU?$char_traits@D@std@@V?$allocator@D@2@@std@@VPrayChunkPtr@@U?$less@V?$basic_string@DU?$char_traits@D@std@@V?$allocator@D@2@@std@@@2@V?$allocator@VPrayChunkPtr@@@2@@2@U?$less@V?$basic_string@DU?$char_traits@D@std@@V?$allocator@D@2@@std@@@2@V?$allocator@VPrayChunkPtr@@@2@@std@@QAEAAV01@ABV01@@Z 10011920 f i NetHandlers.obj
 0001:00010ab0       ?erase@?$_Tree@V?$basic_string@DU?$char_traits@D@std@@V?$allocator@D@2@@std@@U?$pair@$$CBV?$basic_string@DU?$char_traits@D@std@@V?$allocator@D@2@@std@@VPrayChunkPtr@@@2@U_Kfn@?$map@V?$basic_string@DU?$char_traits@D@std@@V?$allocator@D@2@@std@@VPrayChunkPtr@@U?$less@V?$basic_string@DU?$char_traits@D@std@@V?$allocator@D@2@@std@@@2@V?$allocator@VPrayChunkPtr@@@2@@2@U?$less@V?$basic_string@DU?$char_traits@D@std@@V?$allocator@D@2@@std@@@2@V?$allocator@VPrayChunkPtr@@@2@@std@@QAE?AViterator@12@V312@0@Z 10011ab0 f i NetHandlers.obj
 0001:00010b60       ?_Copy@?$_Tree@V?$basic_string@DU?$char_traits@D@std@@V?$allocator@D@2@@std@@U?$pair@$$CBV?$basic_string@DU?$char_traits@D@std@@V?$allocator@D@2@@std@@VPrayChunkPtr@@@2@U_Kfn@?$map@V?$basic_string@DU?$char_traits@D@std@@V?$allocator@D@2@@std@@VPrayChunkPtr@@U?$less@V?$basic_string@DU?$char_traits@D@std@@V?$allocator@D@2@@std@@@2@V?$allocator@VPrayChunkPtr@@@2@@2@U?$less@V?$basic_string@DU?$char_traits@D@std@@V?$allocator@D@2@@std@@@2@V?$allocator@VPrayChunkPtr@@@2@@std@@IAEXABV12@@Z 10011b60 f i NetHandlers.obj
 0001:00010c60       ?_Init@?$_Tree@V?$basic_string@DU?$char_traits@D@std@@V?$allocator@D@2@@std@@U?$pair@$$CBV?$basic_string@DU?$char_traits@D@std@@V?$allocator@D@2@@std@@_N@2@U_Kfn@?$map@V?$basic_string@DU?$char_traits@D@std@@V?$allocator@D@2@@std@@_NU?$less@V?$basic_string@DU?$char_traits@D@std@@V?$allocator@D@2@@std@@@2@V?$allocator@_N@2@@2@U?$less@V?$basic_string@DU?$char_traits@D@std@@V?$allocator@D@2@@std@@@2@V?$allocator@_N@2@@std@@IAEXXZ 10011c60 f i NetHandlers.obj
 0001:00010c60       ?_Init@?$_Tree@V?$basic_string@DU?$char_traits@D@std@@V?$allocator@D@2@@std@@U?$pair@$$CBV?$basic_string@DU?$char_traits@D@std@@V?$allocator@D@2@@std@@VPrayChunkPtr@@@2@U_Kfn@?$map@V?$basic_string@DU?$char_traits@D@std@@V?$allocator@D@2@@std@@VPrayChunkPtr@@U?$less@V?$basic_string@DU?$char_traits@D@std@@V?$allocator@D@2@@std@@@2@V?$allocator@VPrayChunkPtr@@@2@@2@U?$less@V?$basic_string@DU?$char_traits@D@std@@V?$allocator@D@2@@std@@@2@V?$allocator@VPrayChunkPtr@@@2@@std@@IAEXXZ 10011c60 f i NetHandlers.obj
 0001:00010c60       ?_Init@?$_Tree@V?$basic_string@DU?$char_traits@D@std@@V?$allocator@D@2@@std@@U?$pair@$$CBV?$basic_string@DU?$char_traits@D@std@@V?$allocator@D@2@@std@@PAVNetDirectLink@@@2@U_Kfn@?$multimap@V?$basic_string@DU?$char_traits@D@std@@V?$allocator@D@2@@std@@PAVNetDirectLink@@U?$less@V?$basic_string@DU?$char_traits@D@std@@V?$allocator@D@2@@std@@@2@V?$allocator@PAVNetDirectLink@@@2@@2@U?$less@V?$basic_string@DU?$char_traits@D@std@@V?$allocator@D@2@@std@@@2@V?$allocator@PAVNetDirectLink@@@2@@std@@IAEXXZ 10011c60 f i NetHandlers.obj
 0001:00010cc0       ??4?$_Tree@V?$basic_string@DU?$char_traits@D@std@@V?$allocator@D@2@@std@@U?$pair@$$CBV?$basic_string@DU?$char_traits@D@std@@V?$allocator@D@2@@std@@U?$pair@V?$basic_string@DU?$char_traits@D@std@@V?$allocator@D@2@@std@@H@2@@2@U_Kfn@?$map@V?$basic_string@DU?$char_traits@D@std@@V?$allocator@D@2@@std@@U?$pair@V?$basic_string@DU?$char_traits@D@std@@V?$allocator@D@2@@std@@H@2@U?$less@V?$basic_string@DU?$char_traits@D@std@@V?$allocator@D@2@@std@@@2@V?$allocator@U?$pair@V?$basic_string@DU?$char_traits@D@std@@V?$allocator@D@2@@std@@H@std@@@2@@2@U?$less@V?$basic_string@DU?$char_traits@D@std@@V?$allocator@D@2@@std@@@2@V?$allocator@U?$pair@V?$basic_string@DU?$char_traits@D@std@@V?$allocator@D@2@@std@@H@std@@@2@@std@@QAEAAV01@ABV01@@Z 10011cc0 f i NetHandlers.obj
 0001:00010e50       ?erase@?$_Tree@V?$basic_string@DU?$char_traits@D@std@@V?$allocator@D@2@@std@@U?$pair@$$CBV?$basic_string@DU?$char_traits@D@std@@V?$allocator@D@2@@std@@U?$pair@V?$basic_string@DU?$char_traits@D@std@@V?$allocator@D@2@@std@@H@2@@2@U_Kfn@?$map@V?$basic_string@DU?$char_traits@D@std@@V?$allocator@D@2@@std@@U?$pair@V?$basic_string@DU?$char_traits@D@std@@V?$allocator@D@2@@std@@H@2@U?$less@V?$basic_string@DU?$char_traits@D@std@@V?$allocator@D@2@@std@@@2@V?$allocator@U?$pair@V?$basic_string@DU?$char_traits@D@std@@V?$allocator@D@2@@std@@H@std@@@2@@2@U?$less@V?$basic_string@DU?$char_traits@D@std@@V?$allocator@D@2@@std@@@2@V?$allocator@U?$pair@V?$basic_string@DU?$char_traits@D@std@@V?$allocator@D@2@@std@@H@std@@@2@@std@@QAE?AViterator@12@V312@0@Z 10011e50 f i NetHandlers.obj
 0001:00010f00       ?_Copy@?$_Tree@V?$basic_string@DU?$char_traits@D@std@@V?$allocator@D@2@@std@@U?$pair@$$CBV?$basic_string@DU?$char_traits@D@std@@V?$allocator@D@2@@std@@U?$pair@V?$basic_string@DU?$char_traits@D@std@@V?$allocator@D@2@@std@@H@2@@2@U_Kfn@?$map@V?$basic_string@DU?$char_traits@D@std@@V?$allocator@D@2@@std@@U?$pair@V?$basic_string@DU?$char_traits@D@std@@V?$allocator@D@2@@std@@H@2@U?$less@V?$basic_string@DU?$char_traits@D@std@@V?$allocator@D@2@@std@@@2@V?$allocator@U?$pair@V?$basic_string@DU?$char_traits@D@std@@V?$allocator@D@2@@std@@H@std@@@2@@2@U?$less@V?$basic_string@DU?$char_traits@D@std@@V?$allocator@D@2@@std@@@2@V?$allocator@U?$pair@V?$basic_string@DU?$char_traits@D@std@@V?$allocator@D@2@@std@@H@std@@@2@@std@@IAEXABV12@@Z 10011f00 f i NetHandlers.obj
 0001:00011000       ??4?$_Tree@V?$basic_string@DU?$char_traits@D@std@@V?$allocator@D@2@@std@@U?$pair@$$CBV?$basic_string@DU?$char_traits@D@std@@V?$allocator@D@2@@std@@U?$pair@HV?$basic_string@DU?$char_traits@D@std@@V?$allocator@D@2@@std@@@2@@2@U_Kfn@?$map@V?$basic_string@DU?$char_traits@D@std@@V?$allocator@D@2@@std@@U?$pair@HV?$basic_string@DU?$char_traits@D@std@@V?$allocator@D@2@@std@@@2@U?$less@V?$basic_string@DU?$char_traits@D@std@@V?$allocator@D@2@@std@@@2@V?$allocator@U?$pair@HV?$basic_string@DU?$char_traits@D@std@@V?$allocator@D@2@@std@@@std@@@2@@2@U?$less@V?$basic_string@DU?$char_traits@D@std@@V?$allocator@D@2@@std@@@2@V?$allocator@U?$pair@HV?$basic_string@DU?$char_traits@D@std@@V?$allocator@D@2@@std@@@std@@@2@@std@@QAEAAV01@ABV01@@Z 10012000 f i NetHandlers.obj
 0001:00011190       ?erase@?$_Tree@V?$basic_string@DU?$char_traits@D@std@@V?$allocator@D@2@@std@@U?$pair@$$CBV?$basic_string@DU?$char_traits@D@std@@V?$allocator@D@2@@std@@U?$pair@HV?$basic_string@DU?$char_traits@D@std@@V?$allocator@D@2@@std@@@2@@2@U_Kfn@?$map@V?$basic_string@DU?$char_traits@D@std@@V?$allocator@D@2@@std@@U?$pair@HV?$basic_string@DU?$char_traits@D@std@@V?$allocator@D@2@@std@@@2@U?$less@V?$basic_string@DU?$char_traits@D@std@@V?$allocator@D@2@@std@@@2@V?$allocator@U?$pair@HV?$basic_string@DU?$char_traits@D@std@@V?$allocator@D@2@@std@@@std@@@2@@2@U?$less@V?$basic_string@DU?$char_traits@D@std@@V?$allocator@D@2@@std@@@2@V?$allocator@U?$pair@HV?$basic_string@DU?$char_traits@D@std@@V?$allocator@D@2@@std@@@std@@@2@@std@@QAE?AViterator@12@V312@0@Z 10012190 f i NetHandlers.obj
 0001:00011240       ?_Copy@?$_Tree@V?$basic_string@DU?$char_traits@D@std@@V?$allocator@D@2@@std@@U?$pair@$$CBV?$basic_string@DU?$char_traits@D@std@@V?$allocator@D@2@@std@@U?$pair@HV?$basic_string@DU?$char_traits@D@std@@V?$allocator@D@2@@std@@@2@@2@U_Kfn@?$map@V?$basic_string@DU?$char_traits@D@std@@V?$allocator@D@2@@std@@U?$pair@HV?$basic_string@DU?$char_traits@D@std@@V?$allocator@D@2@@std@@@2@U?$less@V?$basic_string@DU?$char_traits@D@std@@V?$allocator@D@2@@std@@@2@V?$allocator@U?$pair@HV?$basic_string@DU?$char_traits@D@std@@V?$allocator@D@2@@std@@@std@@@2@@2@U?$less@V?$basic_string@DU?$char_traits@D@std@@V?$allocator@D@2@@std@@@2@V?$allocator@U?$pair@HV?$basic_string@DU?$char_traits@D@std@@V?$allocator@D@2@@std@@@std@@@2@@std@@IAEXABV12@@Z 10012240 f i NetHandlers.obj
 0001:00011340       ?_Init@?$_Tree@V?$basic_string@DU?$char_traits@D@std@@V?$allocator@D@2@@std@@U?$pair@$$CBV?$basic_string@DU?$char_traits@D@std@@V?$allocator@D@2@@std@@VCAOSVar@@@2@U_Kfn@?$map@V?$basic_string@DU?$char_traits@D@std@@V?$allocator@D@2@@std@@VCAOSVar@@U?$less@V?$basic_string@DU?$char_traits@D@std@@V?$allocator@D@2@@std@@@2@V?$allocator@VCAOSVar@@@2@@2@U?$less@V?$basic_string@DU?$char_traits@D@std@@V?$allocator@D@2@@std@@@2@V?$allocator@VCAOSVar@@@2@@std@@IAEXXZ 10012340 f i NetHandlers.obj
 0001:00011340       ?_Init@?$_Tree@V?$basic_string@DU?$char_traits@D@std@@V?$allocator@D@2@@std@@U?$pair@$$CBV?$basic_string@DU?$char_traits@D@std@@V?$allocator@D@2@@std@@U?$pair@HV?$basic_string@DU?$char_traits@D@std@@V?$allocator@D@2@@std@@@2@@2@U_Kfn@?$map@V?$basic_string@DU?$char_traits@D@std@@V?$allocator@D@2@@std@@U?$pair@HV?$basic_string@DU?$char_traits@D@std@@V?$allocator@D@2@@std@@@2@U?$less@V?$basic_string@DU?$char_traits@D@std@@V?$allocator@D@2@@std@@@2@V?$allocator@U?$pair@HV?$basic_string@DU?$char_traits@D@std@@V?$allocator@D@2@@std@@@std@@@2@@2@U?$less@V?$basic_string@DU?$char_traits@D@std@@V?$allocator@D@2@@std@@@2@V?$allocator@U?$pair@HV?$basic_string@DU?$char_traits@D@std@@V?$allocator@D@2@@std@@@std@@@2@@std@@IAEXXZ 10012340 f i NetHandlers.obj
 0001:00011340       ?_Init@?$_Tree@V?$basic_string@DU?$char_traits@D@std@@V?$allocator@D@2@@std@@U?$pair@$$CBV?$basic_string@DU?$char_traits@D@std@@V?$allocator@D@2@@std@@U?$pair@V?$basic_string@DU?$char_traits@D@std@@V?$allocator@D@2@@std@@H@2@@2@U_Kfn@?$map@V?$basic_string@DU?$char_traits@D@std@@V?$allocator@D@2@@std@@U?$pair@V?$basic_string@DU?$char_traits@D@std@@V?$allocator@D@2@@std@@H@2@U?$less@V?$basic_string@DU?$char_traits@D@std@@V?$allocator@D@2@@std@@@2@V?$allocator@U?$pair@V?$basic_string@DU?$char_traits@D@std@@V?$allocator@D@2@@std@@H@std@@@2@@2@U?$less@V?$basic_string@DU?$char_traits@D@std@@V?$allocator@D@2@@std@@@2@V?$allocator@U?$pair@V?$basic_string@DU?$char_traits@D@std@@V?$allocator@D@2@@std@@H@std@@@2@@std@@IAEXXZ 10012340 f i NetHandlers.obj
 0001:000113a0       ?erase@?$list@V?$basic_string@DU?$char_traits@D@std@@V?$allocator@D@2@@std@@V?$allocator@V?$basic_string@DU?$char_traits@D@std@@V?$allocator@D@2@@std@@@2@@std@@QAE?AViterator@12@V312@0@Z 100123a0 f i NetHandlers.obj
 0001:00011430       ?_Ucopy@?$vector@EV?$allocator@E@std@@@std@@IAEPAEPBE0PAE@Z 10012430 f i NetHandlers.obj
 0001:00011430       ?_Ucopy@?$vector@DV?$allocator@D@std@@@std@@IAEPADPBD0PAD@Z 10012430 f i NetHandlers.obj
 0001:00011460       ?erase@?$_Tree@V?$basic_string@DU?$char_traits@D@std@@V?$allocator@D@2@@std@@U?$pair@$$CBV?$basic_string@DU?$char_traits@D@std@@V?$allocator@D@2@@std@@VCAOSVar@@@2@U_Kfn@?$map@V?$basic_string@DU?$char_traits@D@std@@V?$allocator@D@2@@std@@VCAOSVar@@U?$less@V?$basic_string@DU?$char_traits@D@std@@V?$allocator@D@2@@std@@@2@V?$allocator@VCAOSVar@@@2@@2@U?$less@V?$basic_string@DU?$char_traits@D@std@@V?$allocator@D@2@@std@@@2@V?$allocator@VCAOSVar@@@2@@std@@QAE?AViterator@12@V312@0@Z 10012460 f i NetHandlers.obj
 0001:00011510       ?_Copy@?$_Tree@V?$basic_string@DU?$char_traits@D@std@@V?$allocator@D@2@@std@@U?$pair@$$CBV?$basic_string@DU?$char_traits@D@std@@V?$allocator@D@2@@std@@VCAOSVar@@@2@U_Kfn@?$map@V?$basic_string@DU?$char_traits@D@std@@V?$allocator@D@2@@std@@VCAOSVar@@U?$less@V?$basic_string@DU?$char_traits@D@std@@V?$allocator@D@2@@std@@@2@V?$allocator@VCAOSVar@@@2@@2@U?$less@V?$basic_string@DU?$char_traits@D@std@@V?$allocator@D@2@@std@@@2@V?$allocator@VCAOSVar@@@2@@std@@IAEXABV12@@Z 10012510 f i NetHandlers.obj
 0001:00011610       ?erase@?$_Tree@V?$basic_string@DU?$char_traits@D@std@@V?$allocator@D@2@@std@@U?$pair@$$CBV?$basic_string@DU?$char_traits@D@std@@V?$allocator@D@2@@std@@V12@@2@U_Kfn@?$map@V?$basic_string@DU?$char_traits@D@std@@V?$allocator@D@2@@std@@V12@U?$less@V?$basic_string@DU?$char_traits@D@std@@V?$allocator@D@2@@std@@@2@V?$allocator@V?$basic_string@DU?$char_traits@D@std@@V?$allocator@D@2@@std@@@2@@2@U?$less@V?$basic_string@DU?$char_traits@D@std@@V?$allocator@D@2@@std@@@2@V?$allocator@V?$basic_string@DU?$char_traits@D@std@@V?$allocator@D@2@@std@@@2@@std@@QAE?AViterator@12@V312@@Z 10012610 f i NetHandlers.obj
 0001:000119e0       ?_Copy@?$_Tree@V?$basic_string@DU?$char_traits@D@std@@V?$allocator@D@2@@std@@U?$pair@$$CBV?$basic_string@DU?$char_traits@D@std@@V?$allocator@D@2@@std@@V12@@2@U_Kfn@?$map@V?$basic_string@DU?$char_traits@D@std@@V?$allocator@D@2@@std@@V12@U?$less@V?$basic_string@DU?$char_traits@D@std@@V?$allocator@D@2@@std@@@2@V?$allocator@V?$basic_string@DU?$char_traits@D@std@@V?$allocator@D@2@@std@@@2@@2@U?$less@V?$basic_string@DU?$char_traits@D@std@@V?$allocator@D@2@@std@@@2@V?$allocator@V?$basic_string@DU?$char_traits@D@std@@V?$allocator@D@2@@std@@@2@@std@@IAEPAU_Node@12@PAU312@0@Z 100129e0 f i NetHandlers.obj
 0001:00011a70       ?_Erase@?$_Tree@V?$basic_string@DU?$char_traits@D@std@@V?$allocator@D@2@@std@@U?$pair@$$CBV?$basic_string@DU?$char_traits@D@std@@V?$allocator@D@2@@std@@V12@@2@U_Kfn@?$map@V?$basic_string@DU?$char_traits@D@std@@V?$allocator@D@2@@std@@V12@U?$less@V?$basic_string@DU?$char_traits@D@std@@V?$allocator@D@2@@std@@@2@V?$allocator@V?$basic_string@DU?$char_traits@D@std@@V?$allocator@D@2@@std@@@2@@2@U?$less@V?$basic_string@DU?$char_traits@D@std@@V?$allocator@D@2@@std@@@2@V?$allocator@V?$basic_string@DU?$char_traits@D@std@@V?$allocator@D@2@@std@@@2@@std@@IAEXPAU_Node@12@@Z 10012a70 f i NetHandlers.obj
 0001:00011ac0       ?_Buynode@?$_Tree@V?$basic_string@DU?$char_traits@D@std@@V?$allocator@D@2@@std@@U?$pair@$$CBV?$basic_string@DU?$char_traits@D@std@@V?$allocator@D@2@@std@@V12@@2@U_Kfn@?$map@V?$basic_string@DU?$char_traits@D@std@@V?$allocator@D@2@@std@@V12@U?$less@V?$basic_string@DU?$char_traits@D@std@@V?$allocator@D@2@@std@@@2@V?$allocator@V?$basic_string@DU?$char_traits@D@std@@V?$allocator@D@2@@std@@@2@@2@U?$less@V?$basic_string@DU?$char_traits@D@std@@V?$allocator@D@2@@std@@@2@V?$allocator@V?$basic_string@DU?$char_traits@D@std@@V?$allocator@D@2@@std@@@2@@std@@IAEPAU_Node@12@PAU312@D@Z 10012ac0 f i NetHandlers.obj
 0001:00011af0       ??Eiterator@?$_Tree@V?$basic_string@DU?$char_traits@D@std@@V?$allocator@D@2@@std@@U?$pair@$$CBV?$basic_string@DU?$char_traits@D@std@@V?$allocator@D@2@@std@@V12@@2@U_Kfn@?$map@V?$basic_string@DU?$char_traits@D@std@@V?$allocator@D@2@@std@@V12@U?$less@V?$basic_string@DU?$char_traits@D@std@@V?$allocator@D@2@@std@@@2@V?$allocator@V?$basic_string@DU?$char_traits@D@std@@V?$allocator@D@2@@std@@@2@@2@U?$less@V?$basic_string@DU?$char_traits@D@std@@V?$allocator@D@2@@std@@@2@V?$allocator@V?$basic_string@DU?$char_traits@D@std@@V?$allocator@D@2@@std@@@2@@std@@QAE?AV012@H@Z 10012af0 f i NetHandlers.obj
 0001:00011b50       ?insert@?$_Tree@V?$basic_string@DU?$char_traits@D@std@@V?$allocator@D@2@@std@@U?$pair@$$CBV?$basic_string@DU?$char_traits@D@std@@V?$allocator@D@2@@std@@V?$set@VAgentHandle@@U?$less@VAgentHandle@@@std@@V?$allocator@VAgentHandle@@@3@@2@@2@U_Kfn@?$map@V?$basic_string@DU?$char_traits@D@std@@V?$allocator@D@2@@std@@V?$set@VAgentHandle@@U?$less@VAgentHandle@@@std@@V?$allocator@VAgentHandle@@@3@@2@U?$less@V?$basic_string@DU?$char_traits@D@std@@V?$allocator@D@2@@std@@@2@V?$allocator@V?$set@VAgentHandle@@U?$less@VAgentHandle@@@std@@V?$allocator@VAgentHandle@@@3@@std@@@2@@2@U?$less@V?$basic_string@DU?$char_traits@D@std@@V?$allocator@D@2@@std@@@2@V?$allocator@V?$set@VAgentHandle@@U?$less@VAgentHandle@@@std@@V?$allocator@VAgentHandle@@@3@@std@@@2@@std@@QAE?AU?$pair@Viterator@?$_Tree@V?$basic_string@DU?$char_traits@D@std@@V?$allocator@D@2@@std@@U?$pair@$$CBV?$basic_string@DU?$char_traits@D@std@@V?$allocator@D@2@@std@@V?$set@VAgentHandle@@U?$less@VAgentHandle@@@std@@V?$allocator@VAgentHandle@@@3@@2@@2@U_Kfn@?$map@V?$basic_string@DU?$char_traits@D@std@@V?$allocator@D@2@@std@@V?$set@VAgentHandle@@U?$less@VAgentHandle@@@std@@V?$allocator@VAgentHandle@@@3@@2@U?$less@V?$basic_string@DU?$char_traits@D@std@@V?$allocator@D@2@@std@@@2@V?$allocator@V?$set@VAgentHandle@@U?$less@VAgentHandle@@@std@@V?$allocator@VAgentHandle@@@3@@std@@@2@@2@U?$less@V?$basic_string@DU?$char_traits@D@std@@V?$allocator@D@2@@std@@@2@V?$allocator@V?$set@VAgentHandle@@U?$less@VAgentHandle@@@std@@V?$allocator@VAgentHandle@@@3@@std@@@2@@std@@_N@2@ABU?$pair@$$CBV?$basic_string@DU?$char_traits@D@std@@V?$allocator@D@2@@std@@V?$set@VAgentHandle@@U?$less@VAgentHandle@@@std@@V?$allocator@VAgentHandle@@@3@@2@@2@@Z 10012b50 f i NetHandlers.obj
 0001:00011dc0       ?_Erase@?$_Tree@V?$basic_string@DU?$char_traits@D@std@@V?$allocator@D@2@@std@@U?$pair@$$CBV?$basic_string@DU?$char_traits@D@std@@V?$allocator@D@2@@std@@V?$set@VAgentHandle@@U?$less@VAgentHandle@@@std@@V?$allocator@VAgentHandle@@@3@@2@@2@U_Kfn@?$map@V?$basic_string@DU?$char_traits@D@std@@V?$allocator@D@2@@std@@V?$set@VAgentHandle@@U?$less@VAgentHandle@@@std@@V?$allocator@VAgentHandle@@@3@@2@U?$less@V?$basic_string@DU?$char_traits@D@std@@V?$allocator@D@2@@std@@@2@V?$allocator@V?$set@VAgentHandle@@U?$less@VAgentHandle@@@std@@V?$allocator@VAgentHandle@@@3@@std@@@2@@2@U?$less@V?$basic_string@DU?$char_traits@D@std@@V?$allocator@D@2@@std@@@2@V?$allocator@V?$set@VAgentHandle@@U?$less@VAgentHandle@@@std@@V?$allocator@VAgentHandle@@@3@@std@@@2@@std@@IAEXPAU_Node@12@@Z 10012dc0 f i NetHandlers.obj
 0001:00011e10       ?_Min@?$_Tree@V?$basic_string@DU?$char_traits@D@std@@V?$allocator@D@2@@std@@U?$pair@$$CBV?$basic_string@DU?$char_traits@D@std@@V?$allocator@D@2@@std@@V?$set@VAgentHandle@@U?$less@VAgentHandle@@@std@@V?$allocator@VAgentHandle@@@3@@2@@2@U_Kfn@?$map@V?$basic_string@DU?$char_traits@D@std@@V?$allocator@D@2@@std@@V?$set@VAgentHandle@@U?$less@VAgentHandle@@@std@@V?$allocator@VAgentHandle@@@3@@2@U?$less@V?$basic_string@DU?$char_traits@D@std@@V?$allocator@D@2@@std@@@2@V?$allocator@V?$set@VAgentHandle@@U?$less@VAgentHandle@@@std@@V?$allocator@VAgentHandle@@@3@@std@@@2@@2@U?$less@V?$basic_string@DU?$char_traits@D@std@@V?$allocator@D@2@@std@@@2@V?$allocator@V?$set@VAgentHandle@@U?$less@VAgentHandle@@@std@@V?$allocator@VAgentHandle@@@3@@std@@@2@@std@@KAPAU_Node@12@PAU312@@Z 10012e10 f i NetHandlers.obj
 0001:00011e30       ??0?$_Tree@VAgentHandle@@V1@U_Kfn@?$set@VAgentHandle@@U?$less@VAgentHandle@@@std@@V?$allocator@VAgentHandle@@@3@@std@@U?$less@VAgentHandle@@@4@V?$allocator@VAgentHandle@@@4@@std@@QAE@ABU?$less@VAgentHandle@@@1@_NABV?$allocator@VAgentHandle@@@1@@Z 10012e30 f i NetHandlers.obj
 0001:00011ea0       ?lower_bound@?$_Tree@VAgentHandle@@V1@U_Kfn@?$set@VAgentHandle@@U?$less@VAgentHandle@@@std@@V?$allocator@VAgentHandle@@@3@@std@@U?$less@VAgentHandle@@@4@V?$allocator@VAgentHandle@@@4@@std@@QAE?AViterator@12@ABVAgentHandle@@@Z 10012ea0 f i NetHandlers.obj
 0001:00011ef0       ?_Copy@?$_Tree@VAgentHandle@@V1@U_Kfn@?$set@VAgentHandle@@U?$less@VAgentHandle@@@std@@V?$allocator@VAgentHandle@@@3@@std@@U?$less@VAgentHandle@@@4@V?$allocator@VAgentHandle@@@4@@std@@IAEPAU_Node@12@PAU312@0@Z 10012ef0 f i NetHandlers.obj
 0001:00011f80       ?_Erase@?$_Tree@VAgentHandle@@V1@U_Kfn@?$set@VAgentHandle@@U?$less@VAgentHandle@@@std@@V?$allocator@VAgentHandle@@@3@@std@@U?$less@VAgentHandle@@@4@V?$allocator@VAgentHandle@@@4@@std@@IAEXPAU_Node@12@@Z 10012f80 f i NetHandlers.obj
 0001:00011fd0       ?_Insert@?$_Tree@VAgentHandle@@V1@U_Kfn@?$set@VAgentHandle@@U?$less@VAgentHandle@@@std@@V?$allocator@VAgentHandle@@@3@@std@@U?$less@VAgentHandle@@@4@V?$allocator@VAgentHandle@@@4@@std@@IAE?AViterator@12@PAU_Node@12@0ABVAgentHandle@@@Z 10012fd0 f i NetHandlers.obj
 0001:00012220       ?_Lrotate@?$_Tree@V?$basic_string@DU?$char_traits@D@std@@V?$allocator@D@2@@std@@U?$pair@$$CBV?$basic_string@DU?$char_traits@D@std@@V?$allocator@D@2@@std@@V?$set@VAgentHandle@@U?$less@VAgentHandle@@@std@@V?$allocator@VAgentHandle@@@3@@2@@2@U_Kfn@?$map@V?$basic_string@DU?$char_traits@D@std@@V?$allocator@D@2@@std@@V?$set@VAgentHandle@@U?$less@VAgentHandle@@@std@@V?$allocator@VAgentHandle@@@3@@2@U?$less@V?$basic_string@DU?$char_traits@D@std@@V?$allocator@D@2@@std@@@2@V?$allocator@V?$set@VAgentHandle@@U?$less@VAgentHandle@@@std@@V?$allocator@VAgentHandle@@@3@@std@@@2@@2@U?$less@V?$basic_string@DU?$char_traits@D@std@@V?$allocator@D@2@@std@@@2@V?$allocator@V?$set@VAgentHandle@@U?$less@VAgentHandle@@@std@@V?$allocator@VAgentHandle@@@3@@std@@@2@@std@@IAEXPAU_Node@12@@Z 10013220 f i NetHandlers.obj
 0001:00012220       ?_Lrotate@?$_Tree@V?$basic_string@DU?$char_traits@D@std@@V?$allocator@D@2@@std@@V12@U_Kfn@?$set@V?$basic_string@DU?$char_traits@D@std@@V?$allocator@D@2@@std@@U?$less@V?$basic_string@DU?$char_traits@D@std@@V?$allocator@D@2@@std@@@2@V?$allocator@V?$basic_string@DU?$char_traits@D@std@@V?$allocator@D@2@@std@@@2@@2@U?$less@V?$basic_string@DU?$char_traits@D@std@@V?$allocator@D@2@@std@@@2@V?$allocator@V?$basic_string@DU?$char_traits@D@std@@V?$allocator@D@2@@std@@@2@@std@@IAEXPAU_Node@12@@Z 10013220 f i NetHandlers.obj
 0001:00012220       ?_Lrotate@?$_Tree@V?$basic_string@DU?$char_traits@D@std@@V?$allocator@D@2@@std@@U?$pair@$$CBV?$basic_string@DU?$char_traits@D@std@@V?$allocator@D@2@@std@@_N@2@U_Kfn@?$map@V?$basic_string@DU?$char_traits@D@std@@V?$allocator@D@2@@std@@_NU?$less@V?$basic_string@DU?$char_traits@D@std@@V?$allocator@D@2@@std@@@2@V?$allocator@_N@2@@2@U?$less@V?$basic_string@DU?$char_traits@D@std@@V?$allocator@D@2@@std@@@2@V?$allocator@_N@2@@std@@IAEXPAU_Node@12@@Z 10013220 f i NetHandlers.obj
 0001:00012220       ?_Lrotate@?$_Tree@V?$basic_string@DU?$char_traits@D@std@@V?$allocator@D@2@@std@@U?$pair@$$CBV?$basic_string@DU?$char_traits@D@std@@V?$allocator@D@2@@std@@PAVNetDirectLink@@@2@U_Kfn@?$multimap@V?$basic_string@DU?$char_traits@D@std@@V?$allocator@D@2@@std@@PAVNetDirectLink@@U?$less@V?$basic_string@DU?$char_traits@D@std@@V?$allocator@D@2@@std@@@2@V?$allocator@PAVNetDirectLink@@@2@@2@U?$less@V?$basic_string@DU?$char_traits@D@std@@V?$allocator@D@2@@std@@@2@V?$allocator@PAVNetDirectLink@@@2@@std@@IAEXPAU_Node@12@@Z 10013220 f i NetHandlers.obj
 0001:00012220       ?_Lrotate@?$_Tree@HU?$pair@$$CBHPAVCBabelAsyncCore@@@std@@U_Kfn@?$map@HPAVCBabelAsyncCore@@U?$less@H@std@@V?$allocator@PAVCBabelAsyncCore@@@3@@2@U?$less@H@2@V?$allocator@PAVCBabelAsyncCore@@@2@@std@@IAEXPAU_Node@12@@Z 10013220 f i NetHandlers.obj
 0001:00012220       ?_Lrotate@?$_Tree@VAgentHandle@@V1@U_Kfn@?$set@VAgentHandle@@U?$less@VAgentHandle@@@std@@V?$allocator@VAgentHandle@@@3@@std@@U?$less@VAgentHandle@@@4@V?$allocator@VAgentHandle@@@4@@std@@IAEXPAU_Node@12@@Z 10013220 f i NetHandlers.obj
 0001:00012280       ?_Min@?$_Tree@VAgentHandle@@V1@U_Kfn@?$set@VAgentHandle@@U?$less@VAgentHandle@@@std@@V?$allocator@VAgentHandle@@@3@@std@@U?$less@VAgentHandle@@@4@V?$allocator@VAgentHandle@@@4@@std@@KAPAU_Node@12@PAU312@@Z 10013280 f i NetHandlers.obj
 0001:000122a0       ?_Buynode@?$_Tree@VAgentHandle@@V1@U_Kfn@?$set@VAgentHandle@@U?$less@VAgentHandle@@@std@@V?$allocator@VAgentHandle@@@3@@std@@U?$less@VAgentHandle@@@4@V?$allocator@VAgentHandle@@@4@@std@@IAEPAU_Node@12@PAU312@D@Z 100132a0 f i NetHandlers.obj
 0001:000122d0       ??Eiterator@?$_Tree@VAgentHandle@@V1@U_Kfn@?$set@VAgentHandle@@U?$less@VAgentHandle@@@std@@V?$allocator@VAgentHandle@@@3@@std@@U?$less@VAgentHandle@@@4@V?$allocator@VAgentHandle@@@4@@std@@QAE?AV012@H@Z 100132d0 f i NetHandlers.obj
 0001:00012330       ?erase@?$_Tree@HU?$pair@$$CBHPAVCBabelAsyncCore@@@std@@U_Kfn@?$map@HPAVCBabelAsyncCore@@U?$less@H@std@@V?$allocator@PAVCBabelAsyncCore@@@3@@2@U?$less@H@2@V?$allocator@PAVCBabelAsyncCore@@@2@@std@@QAE?AViterator@12@V312@@Z 10013330 f i NetHandlers.obj
 0001:00012330       ?erase@?$_Tree@PBMU?$pair@QBMJ@std@@U_Kfn@?$map@PBMJU?$less@PBM@std@@V?$allocator@J@2@@2@U?$less@PBM@2@V?$allocator@J@2@@std@@QAE?AViterator@12@V312@@Z 10013330 f i NetHandlers.obj
 0001:00012330       ?erase@?$_Tree@PBVPersistentObject@@U?$pair@QBVPersistentObject@@J@std@@U_Kfn@?$map@PBVPersistentObject@@JU?$less@PBVPersistentObject@@@std@@V?$allocator@J@3@@3@U?$less@PBVPersistentObject@@@3@V?$allocator@J@3@@std@@QAE?AViterator@12@V312@@Z 10013330 f i NetHandlers.obj
 0001:00012330       ?erase@?$_Tree@PAVCBabelClient@@U?$pair@QAVCBabelClient@@PAVNetManager@@@std@@U_Kfn@?$map@PAVCBabelClient@@PAVNetManager@@U?$less@PAVCBabelClient@@@std@@V?$allocator@PAVNetManager@@@4@@3@U?$less@PAVCBabelClient@@@3@V?$allocator@PAVNetManager@@@3@@std@@QAE?AViterator@12@V312@@Z 10013330 f i NetHandlers.obj
 0001:000126f0       ?_Copy@?$_Tree@PBVPersistentObject@@U?$pair@QBVPersistentObject@@J@std@@U_Kfn@?$map@PBVPersistentObject@@JU?$less@PBVPersistentObject@@@std@@V?$allocator@J@3@@3@U?$less@PBVPersistentObject@@@3@V?$allocator@J@3@@std@@IAEPAU_Node@12@PAU312@0@Z 100136f0 f i NetHandlers.obj
 0001:00012780       ?_Erase@?$_Tree@PBVPersistentObject@@U?$pair@QBVPersistentObject@@J@std@@U_Kfn@?$map@PBVPersistentObject@@JU?$less@PBVPersistentObject@@@std@@V?$allocator@J@3@@3@U?$less@PBVPersistentObject@@@3@V?$allocator@J@3@@std@@IAEXPAU_Node@12@@Z 10013780 f i NetHandlers.obj
 0001:000127c0       ?_Copy@?$_Tree@PBMU?$pair@QBMJ@std@@U_Kfn@?$map@PBMJU?$less@PBM@std@@V?$allocator@J@2@@2@U?$less@PBM@2@V?$allocator@J@2@@std@@IAEPAU_Node@12@PAU312@0@Z 100137c0 f i NetHandlers.obj
 0001:00012850       ?_Erase@?$_Tree@PBMU?$pair@QBMJ@std@@U_Kfn@?$map@PBMJU?$less@PBM@std@@V?$allocator@J@2@@2@U?$less@PBM@2@V?$allocator@J@2@@std@@IAEXPAU_Node@12@@Z 10013850 f i NetHandlers.obj
 0001:00012890       ?_Buynode@?$_Tree@HU?$pair@$$CBHPAVCBabelAsyncCore@@@std@@U_Kfn@?$map@HPAVCBabelAsyncCore@@U?$less@H@std@@V?$allocator@PAVCBabelAsyncCore@@@3@@2@U?$less@H@2@V?$allocator@PAVCBabelAsyncCore@@@2@@std@@IAEPAU_Node@12@PAU312@D@Z 10013890 f i NetHandlers.obj
 0001:00012890       ?_Buynode@?$_Tree@PBMU?$pair@QBMJ@std@@U_Kfn@?$map@PBMJU?$less@PBM@std@@V?$allocator@J@2@@2@U?$less@PBM@2@V?$allocator@J@2@@std@@IAEPAU_Node@12@PAU312@D@Z 10013890 f i NetHandlers.obj
 0001:000128c0       ?insert@?$vector@V?$basic_string@DU?$char_traits@D@std@@V?$allocator@D@2@@std@@V?$allocator@V?$basic_string@DU?$char_traits@D@std@@V?$allocator@D@2@@std@@@2@@std@@QAEXPAV?$basic_string@DU?$char_traits@D@std@@V?$allocator@D@2@@2@IABV32@@Z 100138c0 f i NetHandlers.obj
 0001:00012b80       ?erase@?$_Tree@V?$basic_string@DU?$char_traits@D@std@@V?$allocator@D@2@@std@@U?$pair@$$CBV?$basic_string@DU?$char_traits@D@std@@V?$allocator@D@2@@std@@PAVNetDirectLink@@@2@U_Kfn@?$multimap@V?$basic_string@DU?$char_traits@D@std@@V?$allocator@D@2@@std@@PAVNetDirectLink@@U?$less@V?$basic_string@DU?$char_traits@D@std@@V?$allocator@D@2@@std@@@2@V?$allocator@PAVNetDirectLink@@@2@@2@U?$less@V?$basic_string@DU?$char_traits@D@std@@V?$allocator@D@2@@std@@@2@V?$allocator@PAVNetDirectLink@@@2@@std@@QAE?AViterator@12@V312@@Z 10013b80 f i NetHandlers.obj
 0001:00012b80       ?erase@?$_Tree@V?$basic_string@DU?$char_traits@D@std@@V?$allocator@D@2@@std@@U?$pair@$$CBV?$basic_string@DU?$char_traits@D@std@@V?$allocator@D@2@@std@@_N@2@U_Kfn@?$map@V?$basic_string@DU?$char_traits@D@std@@V?$allocator@D@2@@std@@_NU?$less@V?$basic_string@DU?$char_traits@D@std@@V?$allocator@D@2@@std@@@2@V?$allocator@_N@2@@2@U?$less@V?$basic_string@DU?$char_traits@D@std@@V?$allocator@D@2@@std@@@2@V?$allocator@_N@2@@std@@QAE?AViterator@12@V312@@Z 10013b80 f i NetHandlers.obj
 0001:00012b80       ?erase@?$_Tree@V?$basic_string@DU?$char_traits@D@std@@V?$allocator@D@2@@std@@U?$pair@$$CBV?$basic_string@DU?$char_traits@D@std@@V?$allocator@D@2@@std@@J@2@U_Kfn@?$map@V?$basic_string@DU?$char_traits@D@std@@V?$allocator@D@2@@std@@JU?$less@V?$basic_string@DU?$char_traits@D@std@@V?$allocator@D@2@@std@@@2@V?$allocator@J@2@@2@U?$less@V?$basic_string@DU?$char_traits@D@std@@V?$allocator@D@2@@std@@@2@V?$allocator@J@2@@std@@QAE?AViterator@12@V312@@Z 10013b80 f i NetHandlers.obj
 0001:00012f50       ?_Copy@?$_Tree@V?$basic_string@DU?$char_traits@D@std@@V?$allocator@D@2@@std@@U?$pair@$$CBV?$basic_string@DU?$char_traits@D@std@@V?$allocator@D@2@@std@@J@2@U_Kfn@?$map@V?$basic_string@DU?$char_traits@D@std@@V?$allocator@D@2@@std@@JU?$less@V?$basic_string@DU?$char_traits@D@std@@V?$allocator@D@2@@std@@@2@V?$allocator@J@2@@2@U?$less@V?$basic_string@DU?$char_traits@D@std@@V?$allocator@D@2@@std@@@2@V?$allocator@J@2@@std@@IAEPAU_Node@12@PAU312@0@Z 10013f50 f i NetHandlers.obj
 0001:00012fe0       ?_Erase@?$_Tree@V?$basic_string@DU?$char_traits@D@std@@V?$allocator@D@2@@std@@U?$pair@$$CBV?$basic_string@DU?$char_traits@D@std@@V?$allocator@D@2@@std@@J@2@U_Kfn@?$map@V?$basic_string@DU?$char_traits@D@std@@V?$allocator@D@2@@std@@JU?$less@V?$basic_string@DU?$char_traits@D@std@@V?$allocator@D@2@@std@@@2@V?$allocator@J@2@@2@U?$less@V?$basic_string@DU?$char_traits@D@std@@V?$allocator@D@2@@std@@@2@V?$allocator@J@2@@std@@IAEXPAU_Node@12@@Z 10013fe0 f i NetHandlers.obj
 0001:00013030       ?_Buynode@?$_Tree@V?$basic_string@DU?$char_traits@D@std@@V?$allocator@D@2@@std@@U?$pair@$$CBV?$basic_string@DU?$char_traits@D@std@@V?$allocator@D@2@@std@@_N@2@U_Kfn@?$map@V?$basic_string@DU?$char_traits@D@std@@V?$allocator@D@2@@std@@_NU?$less@V?$basic_string@DU?$char_traits@D@std@@V?$allocator@D@2@@std@@@2@V?$allocator@_N@2@@2@U?$less@V?$basic_string@DU?$char_traits@D@std@@V?$allocator@D@2@@std@@@2@V?$allocator@_N@2@@std@@IAEPAU_Node@12@PAU312@D@Z 10014030 f i NetHandlers.obj
 0001:00013030       ?_Buynode@?$_Tree@V?$basic_string@DU?$char_traits@D@std@@V?$allocator@D@2@@std@@U?$pair@$$CBV?$basic_string@DU?$char_traits@D@std@@V?$allocator@D@2@@std@@VPrayChunkPtr@@@2@U_Kfn@?$map@V?$basic_string@DU?$char_traits@D@std@@V?$allocator@D@2@@std@@VPrayChunkPtr@@U?$less@V?$basic_string@DU?$char_traits@D@std@@V?$allocator@D@2@@std@@@2@V?$allocator@VPrayChunkPtr@@@2@@2@U?$less@V?$basic_string@DU?$char_traits@D@std@@V?$allocator@D@2@@std@@@2@V?$allocator@VPrayChunkPtr@@@2@@std@@IAEPAU_Node@12@PAU312@D@Z 10014030 f i NetHandlers.obj
 0001:00013030       ?_Buynode@?$_Tree@V?$basic_string@DU?$char_traits@D@std@@V?$allocator@D@2@@std@@U?$pair@$$CBV?$basic_string@DU?$char_traits@D@std@@V?$allocator@D@2@@std@@J@2@U_Kfn@?$map@V?$basic_string@DU?$char_traits@D@std@@V?$allocator@D@2@@std@@JU?$less@V?$basic_string@DU?$char_traits@D@std@@V?$allocator@D@2@@std@@@2@V?$allocator@J@2@@2@U?$less@V?$basic_string@DU?$char_traits@D@std@@V?$allocator@D@2@@std@@@2@V?$allocator@J@2@@std@@IAEPAU_Node@12@PAU312@D@Z 10014030 f i NetHandlers.obj
 0001:00013030       ?_Buynode@?$_Tree@V?$basic_string@DU?$char_traits@D@std@@V?$allocator@D@2@@std@@U?$pair@$$CBV?$basic_string@DU?$char_traits@D@std@@V?$allocator@D@2@@std@@PAVNetDirectLink@@@2@U_Kfn@?$multimap@V?$basic_string@DU?$char_traits@D@std@@V?$allocator@D@2@@std@@PAVNetDirectLink@@U?$less@V?$basic_string@DU?$char_traits@D@std@@V?$allocator@D@2@@std@@@2@V?$allocator@PAVNetDirectLink@@@2@@2@U?$less@V?$basic_string@DU?$char_traits@D@std@@V?$allocator@D@2@@std@@@2@V?$allocator@PAVNetDirectLink@@@2@@std@@IAEPAU_Node@12@PAU312@D@Z 10014030 f i NetHandlers.obj
 0001:00013060       ?insert@?$vector@VAgentHandle@@V?$allocator@VAgentHandle@@@std@@@std@@QAEXPAVAgentHandle@@IABV3@@Z 10014060 f i NetHandlers.obj
 0001:000132e0       ?erase@?$_Tree@V?$basic_string@DU?$char_traits@D@std@@V?$allocator@D@2@@std@@U?$pair@$$CBV?$basic_string@DU?$char_traits@D@std@@V?$allocator@D@2@@std@@VPrayChunkPtr@@@2@U_Kfn@?$map@V?$basic_string@DU?$char_traits@D@std@@V?$allocator@D@2@@std@@VPrayChunkPtr@@U?$less@V?$basic_string@DU?$char_traits@D@std@@V?$allocator@D@2@@std@@@2@V?$allocator@VPrayChunkPtr@@@2@@2@U?$less@V?$basic_string@DU?$char_traits@D@std@@V?$allocator@D@2@@std@@@2@V?$allocator@VPrayChunkPtr@@@2@@std@@QAE?AViterator@12@V312@@Z 100142e0 f i NetHandlers.obj
 0001:000136b0       ?_Copy@?$_Tree@V?$basic_string@DU?$char_traits@D@std@@V?$allocator@D@2@@std@@U?$pair@$$CBV?$basic_string@DU?$char_traits@D@std@@V?$allocator@D@2@@std@@VPrayChunkPtr@@@2@U_Kfn@?$map@V?$basic_string@DU?$char_traits@D@std@@V?$allocator@D@2@@std@@VPrayChunkPtr@@U?$less@V?$basic_string@DU?$char_traits@D@std@@V?$allocator@D@2@@std@@@2@V?$allocator@VPrayChunkPtr@@@2@@2@U?$less@V?$basic_string@DU?$char_traits@D@std@@V?$allocator@D@2@@std@@@2@V?$allocator@VPrayChunkPtr@@@2@@std@@IAEPAU_Node@12@PAU312@0@Z 100146b0 f i NetHandlers.obj
 0001:00013740       ?_Erase@?$_Tree@V?$basic_string@DU?$char_traits@D@std@@V?$allocator@D@2@@std@@U?$pair@$$CBV?$basic_string@DU?$char_traits@D@std@@V?$allocator@D@2@@std@@VPrayChunkPtr@@@2@U_Kfn@?$map@V?$basic_string@DU?$char_traits@D@std@@V?$allocator@D@2@@std@@VPrayChunkPtr@@U?$less@V?$basic_string@DU?$char_traits@D@std@@V?$allocator@D@2@@std@@@2@V?$allocator@VPrayChunkPtr@@@2@@2@U?$less@V?$basic_string@DU?$char_traits@D@std@@V?$allocator@D@2@@std@@@2@V?$allocator@VPrayChunkPtr@@@2@@std@@IAEXPAU_Node@12@@Z 10014740 f i NetHandlers.obj
 0001:00013790       ?erase@?$_Tree@V?$basic_string@DU?$char_traits@D@std@@V?$allocator@D@2@@std@@U?$pair@$$CBV?$basic_string@DU?$char_traits@D@std@@V?$allocator@D@2@@std@@U?$pair@V?$basic_string@DU?$char_traits@D@std@@V?$allocator@D@2@@std@@H@2@@2@U_Kfn@?$map@V?$basic_string@DU?$char_traits@D@std@@V?$allocator@D@2@@std@@U?$pair@V?$basic_string@DU?$char_traits@D@std@@V?$allocator@D@2@@std@@H@2@U?$less@V?$basic_string@DU?$char_traits@D@std@@V?$allocator@D@2@@std@@@2@V?$allocator@U?$pair@V?$basic_string@DU?$char_traits@D@std@@V?$allocator@D@2@@std@@H@std@@@2@@2@U?$less@V?$basic_string@DU?$char_traits@D@std@@V?$allocator@D@2@@std@@@2@V?$allocator@U?$pair@V?$basic_string@DU?$char_traits@D@std@@V?$allocator@D@2@@std@@H@std@@@2@@std@@QAE?AViterator@12@V312@@Z 10014790 f i NetHandlers.obj
 0001:00013b60       ?_Copy@?$_Tree@V?$basic_string@DU?$char_traits@D@std@@V?$allocator@D@2@@std@@U?$pair@$$CBV?$basic_string@DU?$char_traits@D@std@@V?$allocator@D@2@@std@@U?$pair@V?$basic_string@DU?$char_traits@D@std@@V?$allocator@D@2@@std@@H@2@@2@U_Kfn@?$map@V?$basic_string@DU?$char_traits@D@std@@V?$allocator@D@2@@std@@U?$pair@V?$basic_string@DU?$char_traits@D@std@@V?$allocator@D@2@@std@@H@2@U?$less@V?$basic_string@DU?$char_traits@D@std@@V?$allocator@D@2@@std@@@2@V?$allocator@U?$pair@V?$basic_string@DU?$char_traits@D@std@@V?$allocator@D@2@@std@@H@std@@@2@@2@U?$less@V?$basic_string@DU?$char_traits@D@std@@V?$allocator@D@2@@std@@@2@V?$allocator@U?$pair@V?$basic_string@DU?$char_traits@D@std@@V?$allocator@D@2@@std@@H@std@@@2@@std@@IAEPAU_Node@12@PAU312@0@Z 10014b60 f i NetHandlers.obj
 0001:00013bf0       ?_Erase@?$_Tree@V?$basic_string@DU?$char_traits@D@std@@V?$allocator@D@2@@std@@U?$pair@$$CBV?$basic_string@DU?$char_traits@D@std@@V?$allocator@D@2@@std@@U?$pair@V?$basic_string@DU?$char_traits@D@std@@V?$allocator@D@2@@std@@H@2@@2@U_Kfn@?$map@V?$basic_string@DU?$char_traits@D@std@@V?$allocator@D@2@@std@@U?$pair@V?$basic_string@DU?$char_traits@D@std@@V?$allocator@D@2@@std@@H@2@U?$less@V?$basic_string@DU?$char_traits@D@std@@V?$allocator@D@2@@std@@@2@V?$allocator@U?$pair@V?$basic_string@DU?$char_traits@D@std@@V?$allocator@D@2@@std@@H@std@@@2@@2@U?$less@V?$basic_string@DU?$char_traits@D@std@@V?$allocator@D@2@@std@@@2@V?$allocator@U?$pair@V?$basic_string@DU?$char_traits@D@std@@V?$allocator@D@2@@std@@H@std@@@2@@std@@IAEXPAU_Node@12@@Z 10014bf0 f i NetHandlers.obj
 0001:00013c40       ?_Buynode@?$_Tree@V?$basic_string@DU?$char_traits@D@std@@V?$allocator@D@2@@std@@U?$pair@$$CBV?$basic_string@DU?$char_traits@D@std@@V?$allocator@D@2@@std@@U?$pair@HV?$basic_string@DU?$char_traits@D@std@@V?$allocator@D@2@@std@@@2@@2@U_Kfn@?$map@V?$basic_string@DU?$char_traits@D@std@@V?$allocator@D@2@@std@@U?$pair@HV?$basic_string@DU?$char_traits@D@std@@V?$allocator@D@2@@std@@@2@U?$less@V?$basic_string@DU?$char_traits@D@std@@V?$allocator@D@2@@std@@@2@V?$allocator@U?$pair@HV?$basic_string@DU?$char_traits@D@std@@V?$allocator@D@2@@std@@@std@@@2@@2@U?$less@V?$basic_string@DU?$char_traits@D@std@@V?$allocator@D@2@@std@@@2@V?$allocator@U?$pair@HV?$basic_string@DU?$char_traits@D@std@@V?$allocator@D@2@@std@@@std@@@2@@std@@IAEPAU_Node@12@PAU312@D@Z 10014c40 f i NetHandlers.obj
 0001:00013c40       ?_Buynode@?$_Tree@V?$basic_string@DU?$char_traits@D@std@@V?$allocator@D@2@@std@@U?$pair@$$CBV?$basic_string@DU?$char_traits@D@std@@V?$allocator@D@2@@std@@U?$pair@V?$basic_string@DU?$char_traits@D@std@@V?$allocator@D@2@@std@@H@2@@2@U_Kfn@?$map@V?$basic_string@DU?$char_traits@D@std@@V?$allocator@D@2@@std@@U?$pair@V?$basic_string@DU?$char_traits@D@std@@V?$allocator@D@2@@std@@H@2@U?$less@V?$basic_string@DU?$char_traits@D@std@@V?$allocator@D@2@@std@@@2@V?$allocator@U?$pair@V?$basic_string@DU?$char_traits@D@std@@V?$allocator@D@2@@std@@H@std@@@2@@2@U?$less@V?$basic_string@DU?$char_traits@D@std@@V?$allocator@D@2@@std@@@2@V?$allocator@U?$pair@V?$basic_string@DU?$char_traits@D@std@@V?$allocator@D@2@@std@@H@std@@@2@@std@@IAEPAU_Node@12@PAU312@D@Z 10014c40 f i NetHandlers.obj
 0001:00013c40       ?_Buynode@?$_Tree@V?$basic_string@DU?$char_traits@D@std@@V?$allocator@D@2@@std@@U?$pair@$$CBV?$basic_string@DU?$char_traits@D@std@@V?$allocator@D@2@@std@@V?$set@VAgentHandle@@U?$less@VAgentHandle@@@std@@V?$allocator@VAgentHandle@@@3@@2@@2@U_Kfn@?$map@V?$basic_string@DU?$char_traits@D@std@@V?$allocator@D@2@@std@@V?$set@VAgentHandle@@U?$less@VAgentHandle@@@std@@V?$allocator@VAgentHandle@@@3@@2@U?$less@V?$basic_string@DU?$char_traits@D@std@@V?$allocator@D@2@@std@@@2@V?$allocator@V?$set@VAgentHandle@@U?$less@VAgentHandle@@@std@@V?$allocator@VAgentHandle@@@3@@std@@@2@@2@U?$less@V?$basic_string@DU?$char_traits@D@std@@V?$allocator@D@2@@std@@@2@V?$allocator@V?$set@VAgentHandle@@U?$less@VAgentHandle@@@std@@V?$allocator@VAgentHandle@@@3@@std@@@2@@std@@IAEPAU_Node@12@PAU312@D@Z 10014c40 f i NetHandlers.obj
 0001:00013c70       ?erase@?$_Tree@V?$basic_string@DU?$char_traits@D@std@@V?$allocator@D@2@@std@@U?$pair@$$CBV?$basic_string@DU?$char_traits@D@std@@V?$allocator@D@2@@std@@U?$pair@HV?$basic_string@DU?$char_traits@D@std@@V?$allocator@D@2@@std@@@2@@2@U_Kfn@?$map@V?$basic_string@DU?$char_traits@D@std@@V?$allocator@D@2@@std@@U?$pair@HV?$basic_string@DU?$char_traits@D@std@@V?$allocator@D@2@@std@@@2@U?$less@V?$basic_string@DU?$char_traits@D@std@@V?$allocator@D@2@@std@@@2@V?$allocator@U?$pair@HV?$basic_string@DU?$char_traits@D@std@@V?$allocator@D@2@@std@@@std@@@2@@2@U?$less@V?$basic_string@DU?$char_traits@D@std@@V?$allocator@D@2@@std@@@2@V?$allocator@U?$pair@HV?$basic_string@DU?$char_traits@D@std@@V?$allocator@D@2@@std@@@std@@@2@@std@@QAE?AViterator@12@V312@@Z 10014c70 f i NetHandlers.obj
 0001:00014040       ?_Copy@?$_Tree@V?$basic_string@DU?$char_traits@D@std@@V?$allocator@D@2@@std@@U?$pair@$$CBV?$basic_string@DU?$char_traits@D@std@@V?$allocator@D@2@@std@@U?$pair@HV?$basic_string@DU?$char_traits@D@std@@V?$allocator@D@2@@std@@@2@@2@U_Kfn@?$map@V?$basic_string@DU?$char_traits@D@std@@V?$allocator@D@2@@std@@U?$pair@HV?$basic_string@DU?$char_traits@D@std@@V?$allocator@D@2@@std@@@2@U?$less@V?$basic_string@DU?$char_traits@D@std@@V?$allocator@D@2@@std@@@2@V?$allocator@U?$pair@HV?$basic_string@DU?$char_traits@D@std@@V?$allocator@D@2@@std@@@std@@@2@@2@U?$less@V?$basic_string@DU?$char_traits@D@std@@V?$allocator@D@2@@std@@@2@V?$allocator@U?$pair@HV?$basic_string@DU?$char_traits@D@std@@V?$allocator@D@2@@std@@@std@@@2@@std@@IAEPAU_Node@12@PAU312@0@Z 10015040 f i NetHandlers.obj
 0001:000140d0       ?_Erase@?$_Tree@V?$basic_string@DU?$char_traits@D@std@@V?$allocator@D@2@@std@@U?$pair@$$CBV?$basic_string@DU?$char_traits@D@std@@V?$allocator@D@2@@std@@U?$pair@HV?$basic_string@DU?$char_traits@D@std@@V?$allocator@D@2@@std@@@2@@2@U_Kfn@?$map@V?$basic_string@DU?$char_traits@D@std@@V?$allocator@D@2@@std@@U?$pair@HV?$basic_string@DU?$char_traits@D@std@@V?$allocator@D@2@@std@@@2@U?$less@V?$basic_string@DU?$char_traits@D@std@@V?$allocator@D@2@@std@@@2@V?$allocator@U?$pair@HV?$basic_string@DU?$char_traits@D@std@@V?$allocator@D@2@@std@@@std@@@2@@2@U?$less@V?$basic_string@DU?$char_traits@D@std@@V?$allocator@D@2@@std@@@2@V?$allocator@U?$pair@HV?$basic_string@DU?$char_traits@D@std@@V?$allocator@D@2@@std@@@std@@@2@@std@@IAEXPAU_Node@12@@Z 100150d0 f i NetHandlers.obj
 0001:00014120       ?erase@?$_Tree@V?$basic_string@DU?$char_traits@D@std@@V?$allocator@D@2@@std@@U?$pair@$$CBV?$basic_string@DU?$char_traits@D@std@@V?$allocator@D@2@@std@@VCAOSVar@@@2@U_Kfn@?$map@V?$basic_string@DU?$char_traits@D@std@@V?$allocator@D@2@@std@@VCAOSVar@@U?$less@V?$basic_string@DU?$char_traits@D@std@@V?$allocator@D@2@@std@@@2@V?$allocator@VCAOSVar@@@2@@2@U?$less@V?$basic_string@DU?$char_traits@D@std@@V?$allocator@D@2@@std@@@2@V?$allocator@VCAOSVar@@@2@@std@@QAE?AViterator@12@V312@@Z 10015120 f i NetHandlers.obj
 0001:000144f0       ?_Copy@?$_Tree@V?$basic_string@DU?$char_traits@D@std@@V?$allocator@D@2@@std@@U?$pair@$$CBV?$basic_string@DU?$char_traits@D@std@@V?$allocator@D@2@@std@@VCAOSVar@@@2@U_Kfn@?$map@V?$basic_string@DU?$char_traits@D@std@@V?$allocator@D@2@@std@@VCAOSVar@@U?$less@V?$basic_string@DU?$char_traits@D@std@@V?$allocator@D@2@@std@@@2@V?$allocator@VCAOSVar@@@2@@2@U?$less@V?$basic_string@DU?$char_traits@D@std@@V?$allocator@D@2@@std@@@2@V?$allocator@VCAOSVar@@@2@@std@@IAEPAU_Node@12@PAU312@0@Z 100154f0 f i NetHandlers.obj
 0001:00014580       ?_Erase@?$_Tree@V?$basic_string@DU?$char_traits@D@std@@V?$allocator@D@2@@std@@U?$pair@$$CBV?$basic_string@DU?$char_traits@D@std@@V?$allocator@D@2@@std@@VCAOSVar@@@2@U_Kfn@?$map@V?$basic_string@DU?$char_traits@D@std@@V?$allocator@D@2@@std@@VCAOSVar@@U?$less@V?$basic_string@DU?$char_traits@D@std@@V?$allocator@D@2@@std@@@2@V?$allocator@VCAOSVar@@@2@@2@U?$less@V?$basic_string@DU?$char_traits@D@std@@V?$allocator@D@2@@std@@@2@V?$allocator@VCAOSVar@@@2@@std@@IAEXPAU_Node@12@@Z 10015580 f i NetHandlers.obj
 0001:000145d0       ?_Insert@?$_Tree@V?$basic_string@DU?$char_traits@D@std@@V?$allocator@D@2@@std@@U?$pair@$$CBV?$basic_string@DU?$char_traits@D@std@@V?$allocator@D@2@@std@@V?$set@VAgentHandle@@U?$less@VAgentHandle@@@std@@V?$allocator@VAgentHandle@@@3@@2@@2@U_Kfn@?$map@V?$basic_string@DU?$char_traits@D@std@@V?$allocator@D@2@@std@@V?$set@VAgentHandle@@U?$less@VAgentHandle@@@std@@V?$allocator@VAgentHandle@@@3@@2@U?$less@V?$basic_string@DU?$char_traits@D@std@@V?$allocator@D@2@@std@@@2@V?$allocator@V?$set@VAgentHandle@@U?$less@VAgentHandle@@@std@@V?$allocator@VAgentHandle@@@3@@std@@@2@@2@U?$less@V?$basic_string@DU?$char_traits@D@std@@V?$allocator@D@2@@std@@@2@V?$allocator@V?$set@VAgentHandle@@U?$less@VAgentHandle@@@std@@V?$allocator@VAgentHandle@@@3@@std@@@2@@std@@IAE?AViterator@12@PAU_Node@12@0ABU?$pair@$$CBV?$basic_string@DU?$char_traits@D@std@@V?$allocator@D@2@@std@@V?$set@VAgentHandle@@U?$less@VAgentHandle@@@std@@V?$allocator@VAgentHandle@@@3@@2@@2@@Z 100155d0 f i NetHandlers.obj
 0001:00014820       ?upper_bound@?$_Tree@VAgentHandle@@V1@U_Kfn@?$set@VAgentHandle@@U?$less@VAgentHandle@@@std@@V?$allocator@VAgentHandle@@@3@@std@@U?$less@VAgentHandle@@@4@V?$allocator@VAgentHandle@@@4@@std@@QAE?AViterator@12@ABVAgentHandle@@@Z 10015820 f i NetHandlers.obj
 0001:00014870       ?_Lbound@?$_Tree@VAgentHandle@@V1@U_Kfn@?$set@VAgentHandle@@U?$less@VAgentHandle@@@std@@V?$allocator@VAgentHandle@@@3@@std@@U?$less@VAgentHandle@@@4@V?$allocator@VAgentHandle@@@4@@std@@IBEPAU_Node@12@ABVAgentHandle@@@Z 10015870 f i NetHandlers.obj
 0001:000148b0       ?_Dec@iterator@?$_Tree@VAgentHandle@@V1@U_Kfn@?$set@VAgentHandle@@U?$less@VAgentHandle@@@std@@V?$allocator@VAgentHandle@@@3@@std@@U?$less@VAgentHandle@@@4@V?$allocator@VAgentHandle@@@4@@std@@QAEXXZ 100158b0 f i NetHandlers.obj
 0001:00014910       ?_Ufill@?$vector@V?$basic_string@DU?$char_traits@D@std@@V?$allocator@D@2@@std@@V?$allocator@V?$basic_string@DU?$char_traits@D@std@@V?$allocator@D@2@@std@@@2@@std@@IAEXPAV?$basic_string@DU?$char_traits@D@std@@V?$allocator@D@2@@2@IABV32@@Z 10015910 f i NetHandlers.obj
 0001:00014940       ?_Ufill@?$vector@PAVCBabelAsyncCoreChild@@V?$allocator@PAVCBabelAsyncCoreChild@@@std@@@std@@IAEXPAPAVCBabelAsyncCoreChild@@IABQAV3@@Z 10015940 f i NetHandlers.obj
 0001:00014940       ?_Ufill@?$vector@PAVCBabelRemoteSwitch@@V?$allocator@PAVCBabelRemoteSwitch@@@std@@@std@@IAEXPAPAVCBabelRemoteSwitch@@IABQAV3@@Z 10015940 f i NetHandlers.obj
 0001:00014940       ?_Ufill@?$vector@PAVCBabelVirtualSocket@@V?$allocator@PAVCBabelVirtualSocket@@@std@@@std@@IAEXPAPAVCBabelVirtualSocket@@IABQAV3@@Z 10015940 f i NetHandlers.obj
 0001:00014940       ?_Ufill@?$vector@HV?$allocator@H@std@@@std@@IAEXPAHIABH@Z 10015940 f i NetHandlers.obj
 0001:00014970       ?_Ufill@?$vector@VAgentHandle@@V?$allocator@VAgentHandle@@@std@@@std@@IAEXPAVAgentHandle@@IABV3@@Z 10015970 f i NetHandlers.obj
 0001:000149a0       ?_Inc@iterator@?$_Tree@V?$basic_string@DU?$char_traits@D@std@@V?$allocator@D@2@@std@@U?$pair@$$CBV?$basic_string@DU?$char_traits@D@std@@V?$allocator@D@2@@std@@V12@@2@U_Kfn@?$map@V?$basic_string@DU?$char_traits@D@std@@V?$allocator@D@2@@std@@V12@U?$less@V?$basic_string@DU?$char_traits@D@std@@V?$allocator@D@2@@std@@@2@V?$allocator@V?$basic_string@DU?$char_traits@D@std@@V?$allocator@D@2@@std@@@2@@2@U?$less@V?$basic_string@DU?$char_traits@D@std@@V?$allocator@D@2@@std@@@2@V?$allocator@V?$basic_string@DU?$char_traits@D@std@@V?$allocator@D@2@@std@@@2@@std@@QAEXXZ 100159a0 f i NetHandlers.obj
 0001:000149f0       ?_Dec@iterator@?$_Tree@V?$basic_string@DU?$char_traits@D@std@@V?$allocator@D@2@@std@@U?$pair@$$CBV?$basic_string@DU?$char_traits@D@std@@V?$allocator@D@2@@std@@V?$set@VAgentHandle@@U?$less@VAgentHandle@@@std@@V?$allocator@VAgentHandle@@@3@@2@@2@U_Kfn@?$map@V?$basic_string@DU?$char_traits@D@std@@V?$allocator@D@2@@std@@V?$set@VAgentHandle@@U?$less@VAgentHandle@@@std@@V?$allocator@VAgentHandle@@@3@@2@U?$less@V?$basic_string@DU?$char_traits@D@std@@V?$allocator@D@2@@std@@@2@V?$allocator@V?$set@VAgentHandle@@U?$less@VAgentHandle@@@std@@V?$allocator@VAgentHandle@@@3@@std@@@2@@2@U?$less@V?$basic_string@DU?$char_traits@D@std@@V?$allocator@D@2@@std@@@2@V?$allocator@V?$set@VAgentHandle@@U?$less@VAgentHandle@@@std@@V?$allocator@VAgentHandle@@@3@@std@@@2@@std@@QAEXXZ 100159f0 f i NetHandlers.obj
 0001:00014a50       ?_Inc@iterator@?$_Tree@HU?$pair@$$CBHPAVCBabelAsyncCore@@@std@@U_Kfn@?$map@HPAVCBabelAsyncCore@@U?$less@H@std@@V?$allocator@PAVCBabelAsyncCore@@@3@@2@U?$less@H@2@V?$allocator@PAVCBabelAsyncCore@@@2@@std@@QAEXXZ 10015a50 f i NetHandlers.obj
 0001:00014a50       ?_Inc@iterator@?$_Tree@PAVCBabelClient@@U?$pair@QAVCBabelClient@@PAVNetManager@@@std@@U_Kfn@?$map@PAVCBabelClient@@PAVNetManager@@U?$less@PAVCBabelClient@@@std@@V?$allocator@PAVNetManager@@@4@@3@U?$less@PAVCBabelClient@@@3@V?$allocator@PAVNetManager@@@3@@std@@QAEXXZ 10015a50 f i NetHandlers.obj
 0001:00014a50       ?_Inc@iterator@?$_Tree@PBMU?$pair@QBMJ@std@@U_Kfn@?$map@PBMJU?$less@PBM@std@@V?$allocator@J@2@@2@U?$less@PBM@2@V?$allocator@J@2@@std@@QAEXXZ 10015a50 f i NetHandlers.obj
 0001:00014a50       ?_Inc@iterator@?$_Tree@PBVPersistentObject@@U?$pair@QBVPersistentObject@@J@std@@U_Kfn@?$map@PBVPersistentObject@@JU?$less@PBVPersistentObject@@@std@@V?$allocator@J@3@@3@U?$less@PBVPersistentObject@@@3@V?$allocator@J@3@@std@@QAEXXZ 10015a50 f i NetHandlers.obj
 0001:00014aa0       ?_Inc@iterator@?$_Tree@V?$basic_string@DU?$char_traits@D@std@@V?$allocator@D@2@@std@@U?$pair@$$CBV?$basic_string@DU?$char_traits@D@std@@V?$allocator@D@2@@std@@J@2@U_Kfn@?$map@V?$basic_string@DU?$char_traits@D@std@@V?$allocator@D@2@@std@@JU?$less@V?$basic_string@DU?$char_traits@D@std@@V?$allocator@D@2@@std@@@2@V?$allocator@J@2@@2@U?$less@V?$basic_string@DU?$char_traits@D@std@@V?$allocator@D@2@@std@@@2@V?$allocator@J@2@@std@@QAEXXZ 10015aa0 f i NetHandlers.obj
 0001:00014aa0       ?_Inc@iterator@?$_Tree@V?$basic_string@DU?$char_traits@D@std@@V?$allocator@D@2@@std@@U?$pair@$$CBV?$basic_string@DU?$char_traits@D@std@@V?$allocator@D@2@@std@@_N@2@U_Kfn@?$map@V?$basic_string@DU?$char_traits@D@std@@V?$allocator@D@2@@std@@_NU?$less@V?$basic_string@DU?$char_traits@D@std@@V?$allocator@D@2@@std@@@2@V?$allocator@_N@2@@2@U?$less@V?$basic_string@DU?$char_traits@D@std@@V?$allocator@D@2@@std@@@2@V?$allocator@_N@2@@std@@QAEXXZ 10015aa0 f i NetHandlers.obj
 0001:00014aa0       ?_Inc@iterator@?$_Tree@V?$basic_string@DU?$char_traits@D@std@@V?$allocator@D@2@@std@@U?$pair@$$CBV?$basic_string@DU?$char_traits@D@std@@V?$allocator@D@2@@std@@PAVNetDirectLink@@@2@U_Kfn@?$multimap@V?$basic_string@DU?$char_traits@D@std@@V?$allocator@D@2@@std@@PAVNetDirectLink@@U?$less@V?$basic_string@DU?$char_traits@D@std@@V?$allocator@D@2@@std@@@2@V?$allocator@PAVNetDirectLink@@@2@@2@U?$less@V?$basic_string@DU?$char_traits@D@std@@V?$allocator@D@2@@std@@@2@V?$allocator@PAVNetDirectLink@@@2@@std@@QAEXXZ 10015aa0 f i NetHandlers.obj
 0001:00014aa0       ?_Inc@iterator@?$_Tree@V?$basic_string@DU?$char_traits@D@std@@V?$allocator@D@2@@std@@U?$pair@$$CBV?$basic_string@DU?$char_traits@D@std@@V?$allocator@D@2@@std@@VPrayChunkPtr@@@2@U_Kfn@?$map@V?$basic_string@DU?$char_traits@D@std@@V?$allocator@D@2@@std@@VPrayChunkPtr@@U?$less@V?$basic_string@DU?$char_traits@D@std@@V?$allocator@D@2@@std@@@2@V?$allocator@VPrayChunkPtr@@@2@@2@U?$less@V?$basic_string@DU?$char_traits@D@std@@V?$allocator@D@2@@std@@@2@V?$allocator@VPrayChunkPtr@@@2@@std@@QAEXXZ 10015aa0 f i NetHandlers.obj
 0001:00014af0       ?_Inc@iterator@?$_Tree@V?$basic_string@DU?$char_traits@D@std@@V?$allocator@D@2@@std@@U?$pair@$$CBV?$basic_string@DU?$char_traits@D@std@@V?$allocator@D@2@@std@@U?$pair@V?$basic_string@DU?$char_traits@D@std@@V?$allocator@D@2@@std@@H@2@@2@U_Kfn@?$map@V?$basic_string@DU?$char_traits@D@std@@V?$allocator@D@2@@std@@U?$pair@V?$basic_string@DU?$char_traits@D@std@@V?$allocator@D@2@@std@@H@2@U?$less@V?$basic_string@DU?$char_traits@D@std@@V?$allocator@D@2@@std@@@2@V?$allocator@U?$pair@V?$basic_string@DU?$char_traits@D@std@@V?$allocator@D@2@@std@@H@std@@@2@@2@U?$less@V?$basic_string@DU?$char_traits@D@std@@V?$allocator@D@2@@std@@@2@V?$allocator@U?$pair@V?$basic_string@DU?$char_traits@D@std@@V?$allocator@D@2@@std@@H@std@@@2@@std@@QAEXXZ 10015af0 f i NetHandlers.obj
 0001:00014af0       ?_Inc@iterator@?$_Tree@V?$basic_string@DU?$char_traits@D@std@@V?$allocator@D@2@@std@@U?$pair@$$CBV?$basic_string@DU?$char_traits@D@std@@V?$allocator@D@2@@std@@VCAOSVar@@@2@U_Kfn@?$map@V?$basic_string@DU?$char_traits@D@std@@V?$allocator@D@2@@std@@VCAOSVar@@U?$less@V?$basic_string@DU?$char_traits@D@std@@V?$allocator@D@2@@std@@@2@V?$allocator@VCAOSVar@@@2@@2@U?$less@V?$basic_string@DU?$char_traits@D@std@@V?$allocator@D@2@@std@@@2@V?$allocator@VCAOSVar@@@2@@std@@QAEXXZ 10015af0 f i NetHandlers.obj
 0001:00014af0       ?_Inc@iterator@?$_Tree@V?$basic_string@DU?$char_traits@D@std@@V?$allocator@D@2@@std@@U?$pair@$$CBV?$basic_string@DU?$char_traits@D@std@@V?$allocator@D@2@@std@@U?$pair@HV?$basic_string@DU?$char_traits@D@std@@V?$allocator@D@2@@std@@@2@@2@U_Kfn@?$map@V?$basic_string@DU?$char_traits@D@std@@V?$allocator@D@2@@std@@U?$pair@HV?$basic_string@DU?$char_traits@D@std@@V?$allocator@D@2@@std@@@2@U?$less@V?$basic_string@DU?$char_traits@D@std@@V?$allocator@D@2@@std@@@2@V?$allocator@U?$pair@HV?$basic_string@DU?$char_traits@D@std@@V?$allocator@D@2@@std@@@std@@@2@@2@U?$less@V?$basic_string@DU?$char_traits@D@std@@V?$allocator@D@2@@std@@@2@V?$allocator@U?$pair@HV?$basic_string@DU?$char_traits@D@std@@V?$allocator@D@2@@std@@@std@@@2@@std@@QAEXXZ 10015af0 f i NetHandlers.obj
 0001:00014af0       ?_Inc@iterator@?$_Tree@V?$basic_string@DU?$char_traits@D@std@@V?$allocator@D@2@@std@@U?$pair@$$CBV?$basic_string@DU?$char_traits@D@std@@V?$allocator@D@2@@std@@V?$set@VAgentHandle@@U?$less@VAgentHandle@@@std@@V?$allocator@VAgentHandle@@@3@@2@@2@U_Kfn@?$map@V?$basic_string@DU?$char_traits@D@std@@V?$allocator@D@2@@std@@V?$set@VAgentHandle@@U?$less@VAgentHandle@@@std@@V?$allocator@VAgentHandle@@@3@@2@U?$less@V?$basic_string@DU?$char_traits@D@std@@V?$allocator@D@2@@std@@@2@V?$allocator@V?$set@VAgentHandle@@U?$less@VAgentHandle@@@std@@V?$allocator@VAgentHandle@@@3@@std@@@2@@2@U?$less@V?$basic_string@DU?$char_traits@D@std@@V?$allocator@D@2@@std@@@2@V?$allocator@V?$set@VAgentHandle@@U?$less@VAgentHandle@@@std@@V?$allocator@VAgentHandle@@@3@@std@@@2@@std@@QAEXXZ 10015af0 f i NetHandlers.obj
 0001:00014b40       ?copy@std@@YAPAV?$basic_string@DU?$char_traits@D@std@@V?$allocator@D@2@@1@PBV21@0PAV21@@Z 10015b40 f i NetHandlers.obj
 0001:00014b40       ?copy@std@@YAPAV?$basic_string@DU?$char_traits@D@std@@V?$allocator@D@2@@1@PAV21@00@Z 10015b40 f i NetHandlers.obj
 0001:00014cc0       ?copy@std@@YAPAV?$vector@VOpSpec@@V?$allocator@VOpSpec@@@std@@@1@PBV21@0PAV21@@Z 10015cc0 f i NetHandlers.obj
 0001:00014ee0       ?copy@std@@YAPAPAVPersistentObject@@PBQAV2@0PAPAV2@@Z 10015ee0 f i NetHandlers.obj
 0001:00014ee0       ?copy@std@@YAPAW4MessageType@NetMessages@@PBW423@0PAW423@@Z 10015ee0 f i NetHandlers.obj
 0001:00014ee0       ?copy@std@@YAPAHPBH0PAH@Z  10015ee0 f i NetHandlers.obj
 0001:00014ee0       ?copy@std@@YAPAPAMPBQAM0PAPAM@Z 10015ee0 f i NetHandlers.obj
 0001:00014f10       ?copy@std@@YAPAVAgentHandle@@PBV2@0PAV2@@Z 10015f10 f i NetHandlers.obj
 0001:00014f50       ?copy@std@@YAPAEPBE0PAE@Z  10015f50 f i NetHandlers.obj
 0001:00014f70       ?_Distance@std@@YAXViterator@?$_Tree@VAgentHandle@@V1@U_Kfn@?$set@VAgentHandle@@U?$less@VAgentHandle@@@std@@V?$allocator@VAgentHandle@@@3@@std@@U?$less@VAgentHandle@@@4@V?$allocator@VAgentHandle@@@4@@1@0AAI@Z 10015f70 f i NetHandlers.obj
 0001:00014fd0       ?_Construct@std@@YAXPAV?$basic_string@DU?$char_traits@D@std@@V?$allocator@D@2@@1@ABV21@@Z 10015fd0 f i NetHandlers.obj
 0001:00015150       ?_Destroy@std@@YAXPAV?$basic_string@DU?$char_traits@D@std@@V?$allocator@D@2@@1@@Z 10016150 f i NetHandlers.obj
 0001:000151a0       ?_Construct@std@@YAXPAVAgentHandle@@ABV2@@Z 100161a0 f i NetHandlers.obj
 0001:000151f0       ?_Construct@std@@YAXPAV?$vector@V?$basic_string@DU?$char_traits@D@std@@V?$allocator@D@2@@std@@V?$allocator@V?$basic_string@DU?$char_traits@D@std@@V?$allocator@D@2@@std@@@2@@1@ABV21@@Z 100161f0 f i NetHandlers.obj
 0001:000153e0       ?fill@std@@YAXPAV?$basic_string@DU?$char_traits@D@std@@V?$allocator@D@2@@1@0ABV21@@Z 100163e0 f i NetHandlers.obj
 0001:00015540       ?copy_backward@std@@YAPAV?$basic_string@DU?$char_traits@D@std@@V?$allocator@D@2@@1@PAV21@00@Z 10016540 f i NetHandlers.obj
 0001:000156b0       ?_Construct@std@@YAXPAV?$vector@VOpSpec@@V?$allocator@VOpSpec@@@std@@@1@ABV21@@Z 100166b0 f i NetHandlers.obj
 0001:00015880       ?fill@std@@YAXPAVAgentHandle@@0ABV2@@Z 10016880 f i NetHandlers.obj
 0001:000158b0       ?copy_backward@std@@YAPAVAgentHandle@@PAV2@00@Z 100168b0 f i NetHandlers.obj
 0001:000158f0       ?_Construct@std@@YAXPAU?$pair@$$CBV?$basic_string@DU?$char_traits@D@std@@V?$allocator@D@2@@std@@V12@@1@ABU21@@Z 100168f0 f i NetHandlers.obj
 0001:00015a40       ?_Construct@std@@YAXPAU?$pair@$$CBV?$basic_string@DU?$char_traits@D@std@@V?$allocator@D@2@@std@@J@1@ABU21@@Z 10016a40 f i NetHandlers.obj
 0001:00015bb0       ?_Construct@std@@YAXPAVCBabelServerInfo@@ABV2@@Z 10016bb0 f i NetHandlers.obj
 0001:00015d00       ?_Construct@std@@YAXPAU?$pair@$$CBV?$basic_string@DU?$char_traits@D@std@@V?$allocator@D@2@@std@@VPrayChunkPtr@@@1@ABU21@@Z 10016d00 f i NetHandlers.obj
 0001:00015d70       ?_Construct@std@@YAXPAU?$pair@$$CBV?$basic_string@DU?$char_traits@D@std@@V?$allocator@D@2@@std@@U?$pair@V?$basic_string@DU?$char_traits@D@std@@V?$allocator@D@2@@std@@H@2@@1@ABU21@@Z 10016d70 f i NetHandlers.obj
 0001:00015ec0       ?_Construct@std@@YAXPAU?$pair@$$CBV?$basic_string@DU?$char_traits@D@std@@V?$allocator@D@2@@std@@U?$pair@HV?$basic_string@DU?$char_traits@D@std@@V?$allocator@D@2@@std@@@2@@1@ABU21@@Z 10016ec0 f i NetHandlers.obj
 0001:00016020       ?_Construct@std@@YAXPAU?$pair@$$CBV?$basic_string@DU?$char_traits@D@std@@V?$allocator@D@2@@std@@VCAOSVar@@@1@ABU21@@Z 10017020 f i NetHandlers.obj
 0001:00016190       ?_Construct@std@@YAXPAU?$pair@$$CBV?$basic_string@DU?$char_traits@D@std@@V?$allocator@D@2@@std@@V?$set@VAgentHandle@@U?$less@VAgentHandle@@@std@@V?$allocator@VAgentHandle@@@3@@2@@1@ABU21@@Z 10017190 f i NetHandlers.obj
 0001:000162d0       ??_G?$pair@$$CBV?$basic_string@DU?$char_traits@D@std@@V?$allocator@D@2@@std@@V?$set@VAgentHandle@@U?$less@VAgentHandle@@@std@@V?$allocator@VAgentHandle@@@3@@2@@std@@QAEPAXI@Z 100172d0 f i NetHandlers.obj
 0001:00016300       ??_GAgentHandle@@QAEPAXI@Z 10017300 f i NetHandlers.obj
 0001:00016330       ??_G?$vector@V?$basic_string@DU?$char_traits@D@std@@V?$allocator@D@2@@std@@V?$allocator@V?$basic_string@DU?$char_traits@D@std@@V?$allocator@D@2@@std@@@2@@std@@QAEPAXI@Z 10017330 f i NetHandlers.obj
 0001:000163b0       ??_G?$pair@$$CBV?$basic_string@DU?$char_traits@D@std@@V?$allocator@D@2@@std@@VPrayChunkPtr@@@std@@QAEPAXI@Z 100173b0 f i NetHandlers.obj
 0001:000163e0       ??_G?$pair@$$CBV?$basic_string@DU?$char_traits@D@std@@V?$allocator@D@2@@std@@U?$pair@HV?$basic_string@DU?$char_traits@D@std@@V?$allocator@D@2@@std@@@2@@std@@QAEPAXI@Z 100173e0 f i NetHandlers.obj
 0001:00016410       ??1?$pair@$$CBV?$basic_string@DU?$char_traits@D@std@@V?$allocator@D@2@@std@@VPrayChunkPtr@@@std@@QAE@XZ 10017410 f i NetHandlers.obj
 0001:00016480       ??1?$pair@$$CBV?$basic_string@DU?$char_traits@D@std@@V?$allocator@D@2@@std@@U?$pair@HV?$basic_string@DU?$char_traits@D@std@@V?$allocator@D@2@@std@@@2@@std@@QAE@XZ 10017480 f i NetHandlers.obj
 0001:000164f0       ??1?$pair@$$CBV?$basic_string@DU?$char_traits@D@std@@V?$allocator@D@2@@std@@VCAOSVar@@@std@@QAE@XZ 100174f0 f i NetHandlers.obj
 0001:000165b0       ??0?$vector@VOpSpec@@V?$allocator@VOpSpec@@@std@@@std@@QAE@ABV01@@Z 100175b0 f i NetHandlers.obj
 0001:00016630       ??4?$vector@VOpSpec@@V?$allocator@VOpSpec@@@std@@@std@@QAEAAV01@ABV01@@Z 10017630 f i NetHandlers.obj
 0001:00016830       ??4?$_Tree@VAgentHandle@@V1@U_Kfn@?$set@VAgentHandle@@U?$less@VAgentHandle@@@std@@V?$allocator@VAgentHandle@@@3@@std@@U?$less@VAgentHandle@@@4@V?$allocator@VAgentHandle@@@4@@std@@QAEAAV01@ABV01@@Z 10017830 f i NetHandlers.obj
 0001:000169c0       ?_Destroy@?$vector@VOpSpec@@V?$allocator@VOpSpec@@@std@@@std@@IAEXPAVOpSpec@@0@Z 100179c0 f i NetHandlers.obj
 0001:000169f0       ?_Ucopy@?$vector@VOpSpec@@V?$allocator@VOpSpec@@@std@@@std@@IAEPAVOpSpec@@PBV3@0PAV3@@Z 100179f0 f i NetHandlers.obj
 0001:00016a30       ??5@YAAAVCreaturesArchive@@AAV0@AAV?$set@VAgentHandle@@U?$less@VAgentHandle@@@std@@V?$allocator@VAgentHandle@@@3@@std@@@Z 10017a30 f i NetHandlers.obj
 0001:00016b60       ?_Construct@std@@YAXPAVOpSpec@@ABV2@@Z 10017b60 f i NetHandlers.obj
 0001:00016cb0       ??4OpSpec@@QAEAAV0@ABV0@@Z 10017cb0 f i NetHandlers.obj
 0001:00016f90       ??_GOpSpec@@QAEPAXI@Z      10017f90 f i NetHandlers.obj
 0001:00016fc0       ?end@?$_Tree@VAgentHandle@@V1@U_Kfn@?$set@VAgentHandle@@U?$less@VAgentHandle@@@std@@V?$allocator@VAgentHandle@@@3@@std@@U?$less@VAgentHandle@@@4@V?$allocator@VAgentHandle@@@4@@std@@QBE?AVconst_iterator@12@XZ 10017fc0 f i NetHandlers.obj
 0001:00016fc0       ?end@?$_Tree@V?$basic_string@DU?$char_traits@D@std@@V?$allocator@D@2@@std@@U?$pair@$$CBV?$basic_string@DU?$char_traits@D@std@@V?$allocator@D@2@@std@@V?$set@VAgentHandle@@U?$less@VAgentHandle@@@std@@V?$allocator@VAgentHandle@@@3@@2@@2@U_Kfn@?$map@V?$basic_string@DU?$char_traits@D@std@@V?$allocator@D@2@@std@@V?$set@VAgentHandle@@U?$less@VAgentHandle@@@std@@V?$allocator@VAgentHandle@@@3@@2@U?$less@V?$basic_string@DU?$char_traits@D@std@@V?$allocator@D@2@@std@@@2@V?$allocator@V?$set@VAgentHandle@@U?$less@VAgentHandle@@@std@@V?$allocator@VAgentHandle@@@3@@std@@@2@@2@U?$less@V?$basic_string@DU?$char_traits@D@std@@V?$allocator@D@2@@std@@@2@V?$allocator@V?$set@VAgentHandle@@U?$less@VAgentHandle@@@std@@V?$allocator@VAgentHandle@@@3@@std@@@2@@std@@QBE?AVconst_iterator@12@XZ 10017fc0 f i NetHandlers.obj
 0001:00017080       ?Log@NetLogImplementation@@UAEXPBD@Z 10018080 f   NetLogImplementation.obj
 0001:00017150       ??0LifeEvent@@QAE@ABV0@@Z  10018150 f i NetworkImplementation.obj
 0001:00017300       ??4LifeEvent@@QAEAAV0@ABV0@@Z 10018300 f i NetworkImplementation.obj
 0001:00017640       ??1LifeEvent@@QAE@XZ       10018640 f i NetworkImplementation.obj
 0001:000177b0       ?Count@CreatureHistory@@QBEHXZ 100187b0 f i NetworkImplementation.obj
 0001:000177e0       ??0CreatureHistory@@QAE@ABV0@@Z 100187e0 f i NetworkImplementation.obj
 0001:00017950       ??4CreatureHistory@@QAEAAV0@ABV0@@Z 10018950 f i NetworkImplementation.obj
 0001:00017c80       ??1CreatureHistory@@QAE@XZ 10018c80 f i NetworkImplementation.obj
 0001:00017d80       ??0HistoryStore@@QAE@XZ    10018d80 f i NetworkImplementation.obj
 0001:00017e20       ??0HistoryStore@@QAE@ABV0@@Z 10018e20 f i NetworkImplementation.obj
 0001:00017fe0       ??4HistoryStore@@QAEAAV0@ABV0@@Z 10018fe0 f i NetworkImplementation.obj
 0001:00018230       ??1HistoryStore@@QAE@XZ    10019230 f i NetworkImplementation.obj
 0001:000183c0       ??1?$map@V?$basic_string@DU?$char_traits@D@std@@V?$allocator@D@2@@std@@VCreatureHistory@@U?$less@V?$basic_string@DU?$char_traits@D@std@@V?$allocator@D@2@@std@@@2@V?$allocator@VCreatureHistory@@@2@@std@@QAE@XZ 100193c0 f i NetworkImplementation.obj
 0001:00018590       ??1NetworkImplementation@@QAE@XZ 10019590 f i NetworkImplementation.obj
 0001:00018720       ??0BasicException@@QAE@ABV0@@Z 10019720 f i NetworkImplementation.obj
 0001:00018890       ??1SimpleMutex@@QAE@XZ     10019890 f i NetworkImplementation.obj
 0001:000188d0       ??0BasicException@@QAE@PBD@Z 100198d0 f i NetworkImplementation.obj
 0001:000189f0       _CreaturesEngineModuleInterface 100199f0 f   NetworkImplementation.obj
 0001:00018a00       _CreaturesEngineModuleInterfaceVersion 10019a00 f   NetworkImplementation.obj
 0001:00018a10       ??0NetworkImplementation@@QAE@XZ 10019a10 f   NetworkImplementation.obj
 0001:00018b80       ?Twinned@ModuleInterface@@UAEXVAgentHandle@@0@Z 10019b80 f i NetworkImplementation.obj
 0001:00018bd0       ?IsNetworkInterface@NetworkInterface@@UAE_NXZ 10019bd0 f i NetworkImplementation.obj
 0001:00018be0       ?Shutdown@NetworkImplementation@@UAEXXZ 10019be0 f   NetworkImplementation.obj
 0001:00018c10       ??1DSNetManager@@QAE@XZ    10019c10 f i NetworkImplementation.obj
 0001:00018d80       ?ModuleName@NetworkImplementation@@UAEXAAV?$basic_string@DU?$char_traits@D@std@@V?$allocator@D@2@@std@@@Z 10019d80 f   NetworkImplementation.obj
 0001:00018e40       ?ModuleVersion@NetworkImplementation@@UAEHXZ 10019e40 f   NetworkImplementation.obj
 0001:00018e50       ?AddCAOSCommands@NetworkImplementation@@UAEXAAVCAOSDescription@@@Z 10019e50 f   NetworkImplementation.obj
 0001:00018e70       ?SetDirectories@NetworkImplementation@@UAEXABV?$basic_string@DU?$char_traits@D@std@@V?$allocator@D@2@@std@@0@Z 10019e70 f   NetworkImplementation.obj
 0001:00018ea0       ?GetUserId@NetworkImplementation@@UAE?AV?$basic_string@DU?$char_traits@D@std@@V?$allocator@D@2@@std@@XZ 10019ea0 f   NetworkImplementation.obj
 0001:00018ed0       ?GetNickname@NetworkImplementation@@UAE?AV?$basic_string@DU?$char_traits@D@std@@V?$allocator@D@2@@std@@XZ 10019ed0 f   NetworkImplementation.obj
 0001:00018f00       ?NotifyAgentsWhetherOnline@NetworkImplementation@@AAEX_N@Z 10019f00 f   NetworkImplementation.obj
 0001:00018f60       ?Update@NetworkImplementation@@UAEXH@Z 10019f60 f   NetworkImplementation.obj
 0001:00018fa0       ?WorldLoaded@NetworkImplementation@@UAEXXZ 10019fa0 f   NetworkImplementation.obj
 0001:00018fb0       ?WorldEnding@NetworkImplementation@@UAEXXZ 10019fb0 f   NetworkImplementation.obj
 0001:00019080       ?Write@NetworkImplementation@@UAE_NAAVCreaturesArchive@@@Z 1001a080 f   NetworkImplementation.obj
 0001:000190a0       ?Read@NetworkImplementation@@UAE_NAAVCreaturesArchive@@@Z 1001a0a0 f   NetworkImplementation.obj
 0001:000190c0       ?Twinned@NetworkImplementation@@UAEXVAgentHandle@@0@Z 1001a0c0 f   NetworkImplementation.obj
 0001:00019140       ?HistoryFillInUserID@NetworkImplementation@@UAE_NAAVHistoryStore@@ABV?$basic_string@DU?$char_traits@D@std@@V?$allocator@D@2@@std@@@Z 1001a140 f   NetworkImplementation.obj
 0001:00019330       ?HistoryFeed@NetworkImplementation@@UAEXAAVHistoryStore@@@Z 1001a330 f   NetworkImplementation.obj
 0001:00019af0       ??1SimpleMutexLock@@QAE@XZ 1001aaf0 f i NetworkImplementation.obj
 0001:00019b30       ??0HistoryQueuedMessage@@QAE@ABV?$basic_string@DU?$char_traits@D@std@@V?$allocator@D@2@@std@@PAVNetworkImplementation@@0V12@@Z 1001ab30 f i NetworkImplementation.obj
 0001:00019cf0       ??1?$MemberFunctionQueuedMessage@VNetManager@@@@UAE@XZ 1001acf0 f i NetworkImplementation.obj
 0001:00019cf0       ??1QueuedMessage@@UAE@XZ   1001acf0 f i NetworkImplementation.obj
 0001:00019cf0       ??1?$MemberFunctionQueuedMessage@VDSNetManager@@@@UAE@XZ 1001acf0 f i NetworkImplementation.obj
 0001:00019d40       ??_GQueuedMessage@@UAEPAXI@Z 1001ad40 f i NetworkImplementation.obj
 0001:00019d40       ??_EQueuedMessage@@UAEPAXI@Z 1001ad40 f i NetworkImplementation.obj
 0001:00019d70       ?Send@HistoryQueuedMessage@@UBEXABVMessageThread@@@Z 1001ad70 f i NetworkImplementation.obj
 0001:00019db0       ??_EHistoryQueuedMessage@@UAEPAXI@Z 1001adb0 f i NetworkImplementation.obj
 0001:00019db0       ??_GHistoryQueuedMessage@@UAEPAXI@Z 1001adb0 f i NetworkImplementation.obj
 0001:00019de0       ??1HistoryQueuedMessage@@UAE@XZ 1001ade0 f i NetworkImplementation.obj
 0001:00019e60       ?HistoryUploadComplete@NetworkImplementation@@QAEX_N@Z 1001ae60 f   NetworkImplementation.obj
 0001:00019fd0       ?GetNetManager@NetworkImplementation@@QAEPAVDSNetManager@@XZ 1001afd0 f   NetworkImplementation.obj
 0001:00019fe0       ??4?$vector@VLifeEvent@@V?$allocator@VLifeEvent@@@std@@@std@@QAEAAV01@ABV01@@Z 1001afe0 f i NetworkImplementation.obj
 0001:0001a290       ?size@?$vector@VLifeEvent@@V?$allocator@VLifeEvent@@@std@@@std@@QBEIXZ 1001b290 f i NetworkImplementation.obj
 0001:0001a2c0       ?capacity@?$vector@VLifeEvent@@V?$allocator@VLifeEvent@@@std@@@std@@QBEIXZ 1001b2c0 f i NetworkImplementation.obj
 0001:0001a2f0       ?_Destroy@?$vector@VLifeEvent@@V?$allocator@VLifeEvent@@@std@@@std@@IAEXPAVLifeEvent@@0@Z 1001b2f0 f i NetworkImplementation.obj
 0001:0001a320       ?_Ucopy@?$vector@VLifeEvent@@V?$allocator@VLifeEvent@@@std@@@std@@IAEPAVLifeEvent@@PBV3@0PAV3@@Z 1001b320 f i NetworkImplementation.obj
 0001:0001a360       ?_Copy@?$_Tree@V?$basic_string@DU?$char_traits@D@std@@V?$allocator@D@2@@std@@U?$pair@$$CBV?$basic_string@DU?$char_traits@D@std@@V?$allocator@D@2@@std@@VCreatureHistory@@@2@U_Kfn@?$map@V?$basic_string@DU?$char_traits@D@std@@V?$allocator@D@2@@std@@VCreatureHistory@@U?$less@V?$basic_string@DU?$char_traits@D@std@@V?$allocator@D@2@@std@@@2@V?$allocator@VCreatureHistory@@@2@@2@U?$less@V?$basic_string@DU?$char_traits@D@std@@V?$allocator@D@2@@std@@@2@V?$allocator@VCreatureHistory@@@2@@std@@IAEXABV12@@Z 1001b360 f i NetworkImplementation.obj
 0001:0001a460       ?erase@?$_Tree@V?$basic_string@DU?$char_traits@D@std@@V?$allocator@D@2@@std@@U?$pair@$$CBV?$basic_string@DU?$char_traits@D@std@@V?$allocator@D@2@@std@@VCreatureHistory@@@2@U_Kfn@?$map@V?$basic_string@DU?$char_traits@D@std@@V?$allocator@D@2@@std@@VCreatureHistory@@U?$less@V?$basic_string@DU?$char_traits@D@std@@V?$allocator@D@2@@std@@@2@V?$allocator@VCreatureHistory@@@2@@2@U?$less@V?$basic_string@DU?$char_traits@D@std@@V?$allocator@D@2@@std@@@2@V?$allocator@VCreatureHistory@@@2@@std@@QAE?AViterator@12@V312@@Z 1001b460 f i NetworkImplementation.obj
 0001:0001a830       ?_Copy@?$_Tree@V?$basic_string@DU?$char_traits@D@std@@V?$allocator@D@2@@std@@U?$pair@$$CBV?$basic_string@DU?$char_traits@D@std@@V?$allocator@D@2@@std@@VCreatureHistory@@@2@U_Kfn@?$map@V?$basic_string@DU?$char_traits@D@std@@V?$allocator@D@2@@std@@VCreatureHistory@@U?$less@V?$basic_string@DU?$char_traits@D@std@@V?$allocator@D@2@@std@@@2@V?$allocator@VCreatureHistory@@@2@@2@U?$less@V?$basic_string@DU?$char_traits@D@std@@V?$allocator@D@2@@std@@@2@V?$allocator@VCreatureHistory@@@2@@std@@IAEPAU_Node@12@PAU312@0@Z 1001b830 f i NetworkImplementation.obj
 0001:0001a8c0       ?_Erase@?$_Tree@V?$basic_string@DU?$char_traits@D@std@@V?$allocator@D@2@@std@@U?$pair@$$CBV?$basic_string@DU?$char_traits@D@std@@V?$allocator@D@2@@std@@VCreatureHistory@@@2@U_Kfn@?$map@V?$basic_string@DU?$char_traits@D@std@@V?$allocator@D@2@@std@@VCreatureHistory@@U?$less@V?$basic_string@DU?$char_traits@D@std@@V?$allocator@D@2@@std@@@2@V?$allocator@VCreatureHistory@@@2@@2@U?$less@V?$basic_string@DU?$char_traits@D@std@@V?$allocator@D@2@@std@@@2@V?$allocator@VCreatureHistory@@@2@@std@@IAEXPAU_Node@12@@Z 1001b8c0 f i NetworkImplementation.obj
 0001:0001a910       ??Eiterator@?$_Tree@V?$basic_string@DU?$char_traits@D@std@@V?$allocator@D@2@@std@@U?$pair@$$CBV?$basic_string@DU?$char_traits@D@std@@V?$allocator@D@2@@std@@VCreatureHistory@@@2@U_Kfn@?$map@V?$basic_string@DU?$char_traits@D@std@@V?$allocator@D@2@@std@@VCreatureHistory@@U?$less@V?$basic_string@DU?$char_traits@D@std@@V?$allocator@D@2@@std@@@2@V?$allocator@VCreatureHistory@@@2@@2@U?$less@V?$basic_string@DU?$char_traits@D@std@@V?$allocator@D@2@@std@@@2@V?$allocator@VCreatureHistory@@@2@@std@@QAE?AV012@H@Z 1001b910 f i NetworkImplementation.obj
 0001:0001a970       ?_Inc@iterator@?$_Tree@V?$basic_string@DU?$char_traits@D@std@@V?$allocator@D@2@@std@@U?$pair@$$CBV?$basic_string@DU?$char_traits@D@std@@V?$allocator@D@2@@std@@VCreatureHistory@@@2@U_Kfn@?$map@V?$basic_string@DU?$char_traits@D@std@@V?$allocator@D@2@@std@@VCreatureHistory@@U?$less@V?$basic_string@DU?$char_traits@D@std@@V?$allocator@D@2@@std@@@2@V?$allocator@VCreatureHistory@@@2@@2@U?$less@V?$basic_string@DU?$char_traits@D@std@@V?$allocator@D@2@@std@@@2@V?$allocator@VCreatureHistory@@@2@@std@@QAEXXZ 1001b970 f i NetworkImplementation.obj
 0001:0001a9c0       ?copy@std@@YAPAVLifeEvent@@PBV2@0PAV2@@Z 1001b9c0 f i NetworkImplementation.obj
 0001:0001ac70       ?_Construct@std@@YAXPAVLifeEvent@@ABV2@@Z 1001bc70 f i NetworkImplementation.obj
 0001:0001ae40       ?_Construct@std@@YAXPAU?$pair@$$CBV?$basic_string@DU?$char_traits@D@std@@V?$allocator@D@2@@std@@VCreatureHistory@@@1@ABU21@@Z 1001be40 f i NetworkImplementation.obj
 0001:0001afd0       ??_GLifeEvent@@QAEPAXI@Z   1001bfd0 f i NetworkImplementation.obj
 0001:0001b000       ??_G?$pair@$$CBV?$basic_string@DU?$char_traits@D@std@@V?$allocator@D@2@@std@@VCreatureHistory@@@std@@QAEPAXI@Z 1001c000 f i NetworkImplementation.obj
 0001:0001b030       ??1?$pair@$$CBV?$basic_string@DU?$char_traits@D@std@@V?$allocator@D@2@@std@@VCreatureHistory@@@std@@QAE@XZ 1001c030 f i NetworkImplementation.obj
 0001:0001b140       ?FileExists@@YA_NPBD@Z     1001c140 f   FileFuncs.obj
 0001:0001b160       ?FileSize@@YAHPBD@Z        1001c160 f   FileFuncs.obj
 0001:0001b190       ?FileExtension@@YA?AV?$basic_string@DU?$char_traits@D@std@@V?$allocator@D@2@@std@@ABV12@@Z 1001c190 f   FileFuncs.obj
 0001:0001b300       ??0DSNetManager@@QAE@PAVNetLogInterface@@@Z 1001c300 f   DSNetManager.obj
 0001:0001b400       ?Persistent@NetworkImplementation@@UAE_NXZ 1001c400 f   DSNetManager.obj
 0001:0001b400       ?CheckInDockingStation@DSNetManager@@QAE_NXZ 1001c400 f   DSNetManager.obj
 0001:0001b410       ??1CBabelTransactionTicket@@QAE@XZ 1001c410 f i DSNetManager.obj
 0001:0001b420       ?DSFetchRandomUser@DSNetManager@@QAE?AV?$basic_string@DU?$char_traits@D@std@@V?$allocator@D@2@@std@@AA_N@Z 1001c420 f   DSNetManager.obj
 0001:0001b7c0       ?AsyncDSFetchRandomUser@DSNetManager@@AAEXXZ 1001c7c0 f   DSNetManager.obj
 0001:0001bae0       ??0C_TID_BASE@@QAE@K@Z     1001cae0 f i DSNetManager.obj
 0001:0001bb20       ?DSFeedHistory@DSNetManager@@QAE_NPAXH@Z 1001cb20 f   DSNetManager.obj
 0001:0001bce0       ??_G?$MemberFunctionQueuedMessage@VDSNetManager@@@@UAEPAXI@Z 1001cce0 f i DSNetManager.obj
 0001:0001bce0       ??_E?$MemberFunctionQueuedMessage@VDSNetManager@@@@UAEPAXI@Z 1001cce0 f i DSNetManager.obj
 0001:0001bd10       ??0MessageThread@@QAE@PAVNetManager@@@Z 1001cd10 f   MessageThread.obj
 0001:0001be40       ??_EMessageThread@@UAEPAXI@Z 1001ce40 f i MessageThread.obj
 0001:0001be40       ??_GMessageThread@@UAEPAXI@Z 1001ce40 f i MessageThread.obj
 0001:0001be70       ??1MessageThread@@UAE@XZ   1001ce70 f   MessageThread.obj
 0001:0001bff0       ?QueueMessage@MessageThread@@QAEXPBVQueuedMessage@@@Z 1001cff0 f   MessageThread.obj
 0001:0001c0b0       ?Thread@MessageThread@@AAEXXZ 1001d0b0 f   MessageThread.obj
 0001:0001c0f0       ?Update@MessageThread@@MAEXXZ 1001d0f0 f   MessageThread.obj
 0001:0001c400       ?GetCurrentDebugText@MessageThread@@QAE?AV?$basic_string@DU?$char_traits@D@std@@V?$allocator@D@2@@std@@XZ 1001d400 f   MessageThread.obj
 0001:0001c580       ??1?$list@PBVQueuedMessage@@V?$allocator@PBVQueuedMessage@@@std@@@std@@QAE@XZ 1001d580 f i MessageThread.obj
 0001:0001c5d0       ?erase@?$list@PBVQueuedMessage@@V?$allocator@PBVQueuedMessage@@@std@@@std@@QAE?AViterator@12@V312@@Z 1001d5d0 f i MessageThread.obj
 0001:0001c610       ?erase@?$list@PBVQueuedMessage@@V?$allocator@PBVQueuedMessage@@@std@@@std@@QAE?AViterator@12@V312@0@Z 1001d610 f i MessageThread.obj
 0001:0001c660       ?_Buynode@?$list@PBVQueuedMessage@@V?$allocator@PBVQueuedMessage@@@std@@@std@@IAEPAU_Node@12@PAU312@0@Z 1001d660 f i MessageThread.obj
 0001:0001c690       ?_Splice@?$list@PBVQueuedMessage@@V?$allocator@PBVQueuedMessage@@@std@@@std@@IAEXViterator@12@AAV12@00@Z 1001d690 f i MessageThread.obj
 0001:0001c6d0       ?StaticMain@?$BabelThread@VCBabelAsyncCore@@@@CGKPAX@Z 1001d6d0 f i MessageThread.obj
 0001:0001c6d0       ?StaticMain@?$BabelThread@VMessageThread@@@@CGKPAX@Z 1001d6d0 f i MessageThread.obj
 0001:0001c6d0       ?StaticMain@?$BabelThread@VCBabelAsyncCoreChild@@@@CGKPAX@Z 1001d6d0 f i MessageThread.obj
 0001:0001c6f0       ?LastName@CBabelShortUserDataObject@@UAEPBDXZ 1001d6f0 f i NetDebugListUsers.obj
 0001:0001c700       ?NickName@CBabelShortUserDataObject@@UAEPBDXZ 1001d700 f i NetDebugListUsers.obj
 0001:0001c710       ?SetFirstName@CBabelShortUserDataObject@@UAEXPAD@Z 1001d710 f i NetDebugListUsers.obj
 0001:0001c7d0       ?SetLastName@CBabelShortUserDataObject@@UAEXPAD@Z 1001d7d0 f i NetDebugListUsers.obj
 0001:0001c890       ?SetNickName@CBabelShortUserDataObject@@UAEXPAD@Z 1001d890 f i NetDebugListUsers.obj
 0001:0001c950       ?SetFirstName@CBabelShortUserDataObject@@UAEXPADH@Z 1001d950 f i NetDebugListUsers.obj
 0001:0001cac0       ?SetLastName@CBabelShortUserDataObject@@UAEXPADH@Z 1001dac0 f i NetDebugListUsers.obj
 0001:0001cc30       ?SetNickName@CBabelShortUserDataObject@@UAEXPADH@Z 1001dc30 f i NetDebugListUsers.obj
 0001:0001cda0       ??1CBabelShortUserDataObject@@QAE@XZ 1001dda0 f i NetDebugListUsers.obj
 0001:0001ce40       ??1?$vector@DV?$allocator@D@std@@@std@@QAE@XZ 1001de40 f i NetDebugListUsers.obj
 0001:0001ce70       ??0NetDirectLink@@QAE@PAVNetManager@@PAVCBabelClient@@@Z 1001de70 f   NetDirectLink.obj
 0001:0001cec0       ??_GNetDirectLink@@UAEPAXI@Z 1001dec0 f i NetDirectLink.obj
 0001:0001cec0       ??_ENetDirectLink@@UAEPAXI@Z 1001dec0 f i NetDirectLink.obj
 0001:0001cef0       ??0NetDirectLink@@QAE@PAVNetManager@@PAVCBabelSocket@@PAVCBabelClient@@@Z 1001def0 f   NetDirectLink.obj
 0001:0001cf90       ??1CBabelConnection@@UAE@XZ 1001df90 f i NetDirectLink.obj
 0001:0001d000       ??1CBabelCriticalSection@@QAE@XZ 1001e000 f i NetDirectLink.obj
 0001:0001d010       ?Connect@CBabelConnection@@UAE_NPBDI@Z 1001e010 f i NetDirectLink.obj
 0001:0001d020       ?Connect@CBabelConnection@@UAE_NAAVB_UIN@@@Z 1001e020 f i NetDirectLink.obj
 0001:0001d030       ??_GCBabelConnection@@UAEPAXI@Z 1001e030 f i NetDirectLink.obj
 0001:0001d030       ??_ECBabelConnection@@UAEPAXI@Z 1001e030 f i NetDirectLink.obj
 0001:0001d060       ??1NetDirectLink@@UAE@XZ   1001e060 f   NetDirectLink.obj
 0001:0001d0f0       ?Read@NetDirectLink@@MAEXXZ 1001e0f0 f   NetDirectLink.obj
 0001:0001d2a0       ?SendData@NetDirectLink@@QAEXPADH@Z 1001e2a0 f   NetDirectLink.obj
 0001:0001d330       ?Connect@NetDirectLink@@MAE_NAAVB_UIN@@@Z 1001e330 f   NetDirectLink.obj
 0001:0001d3e0       ?Connect@NetDirectLink@@MAE_NPBDI@Z 1001e3e0 f   NetDirectLink.obj
 0001:0001d490       ?H@CBabelSyncSocket@@UBEIXZ 1001e490 f i NetDirectLink.obj
 0001:0001d4a0       ??_ECBabelReadWriteSocket@@UAEPAXI@Z 1001e4a0 f i NetDirectLink.obj
 0001:0001d4a0       ??_GCBabelReadWriteSocket@@UAEPAXI@Z 1001e4a0 f i NetDirectLink.obj
 0001:0001d4d0       ??1CBabelReadWriteSocket@@UAE@XZ 1001e4d0 f i NetDirectLink.obj
 0001:0001d4e0       ?SendConnectionHeader@NetDirectLink@@IAE_NXZ 1001e4e0 f   NetDirectLink.obj
 0001:0001d520       ?Close@NetDirectLink@@MAEXXZ 1001e520 f   NetDirectLink.obj
 0001:0001d550       ??0B_UIN@@QAE@ABV0@@Z      1001e550 f i NetDirectLink.obj
 0001:0001d720       ??0NetManager@@QAE@PAVNetLogInterface@@@Z 1001e720 f   NetManager.obj
 0001:0001db70       ??1?$map@V?$basic_string@DU?$char_traits@D@std@@V?$allocator@D@2@@std@@_NU?$less@V?$basic_string@DU?$char_traits@D@std@@V?$allocator@D@2@@std@@@2@V?$allocator@_N@2@@std@@QAE@XZ 1001eb70 f i NetManager.obj
 0001:0001dc40       ??1?$multimap@V?$basic_string@DU?$char_traits@D@std@@V?$allocator@D@2@@std@@PAVNetDirectLink@@U?$less@V?$basic_string@DU?$char_traits@D@std@@V?$allocator@D@2@@std@@@2@V?$allocator@PAVNetDirectLink@@@2@@std@@QAE@XZ 1001ec40 f i NetManager.obj
 0001:0001dd10       ??1?$set@V?$basic_string@DU?$char_traits@D@std@@V?$allocator@D@2@@std@@U?$less@V?$basic_string@DU?$char_traits@D@std@@V?$allocator@D@2@@std@@@2@V?$allocator@V?$basic_string@DU?$char_traits@D@std@@V?$allocator@D@2@@std@@@2@@std@@QAE@XZ 1001ed10 f i NetManager.obj
 0001:0001dde0       ??1NetManager@@QAE@XZ      1001ede0 f   NetManager.obj
 0001:0001e200       ?Lock@SimpleMutex@@QAEXXZ  1001f200 f i NetManager.obj
 0001:0001e240       ?Release@SimpleMutex@@QAEXXZ 1001f240 f i NetManager.obj
 0001:0001e280       ?Log@NetManager@@AAAXPBDZZ 1001f280 f   NetManager.obj
 0001:0001e2e0       ?OverrideHost@NetManager@@SAXABV?$basic_string@DU?$char_traits@D@std@@V?$allocator@D@2@@std@@H@Z 1001f2e0 f   NetManager.obj
 0001:0001e480       ?SetServerList@NetManager@@QAEXABV?$vector@VCBabelServerInfo@@V?$allocator@VCBabelServerInfo@@@std@@@std@@@Z 1001f480 f   NetManager.obj
 0001:0001e700       ?GetServerList@NetManager@@QAEXAAV?$vector@VCBabelServerInfo@@V?$allocator@VCBabelServerInfo@@@std@@@std@@@Z 1001f700 f   NetManager.obj
 0001:0001e950       ?SetUser@NetManager@@QAEXABV?$basic_string@DU?$char_traits@D@std@@V?$allocator@D@2@@std@@0@Z 1001f950 f   NetManager.obj
 0001:0001ebd0       ?UserSet@NetManager@@QAE_NXZ 1001fbd0 f   NetManager.obj
 0001:0001ebe0       ?GetUser@NetManager@@QAE?AV?$basic_string@DU?$char_traits@D@std@@V?$allocator@D@2@@std@@XZ 1001fbe0 f   NetManager.obj
 0001:0001ed30       ?ConnectInBackground@NetManager@@QAE_NAA_NABV?$vector@V?$basic_string@DU?$char_traits@D@std@@V?$allocator@D@2@@std@@V?$allocator@V?$basic_string@DU?$char_traits@D@std@@V?$allocator@D@2@@std@@@2@@std@@@Z 1001fd30 f   NetManager.obj
 0001:0001f0f0       ?ConnectBackgroundThread@NetManager@@AAEXXZ 100200f0 f   NetManager.obj
 0001:0001f410       ?Disconnect@NetManager@@QAEXXZ 10020410 f   NetManager.obj
 0001:0001f520       ?Online@NetManager@@QAE_NXZ 10020520 f   NetManager.obj
 0001:0001f6c0       ?GetBabelClientToNetManager@NetManager@@CAAAV?$map@PAVCBabelClient@@PAVNetManager@@U?$less@PAVCBabelClient@@@std@@V?$allocator@PAVNetManager@@@4@@std@@XZ 100206c0 f   NetManager.obj
 0001:0001f720       ??1?$map@PAVCBabelClient@@PAVNetManager@@U?$less@PAVCBabelClient@@@std@@V?$allocator@PAVNetManager@@@4@@std@@QAE@XZ 10020720 f i NetManager.obj
 0001:0001f7e0       ?GetBabelClientToNetManagerMutex@NetManager@@CAAAVSimpleMutex@@XZ 100207e0 f   NetManager.obj
 0001:0001f890       ?LockBabelClientToNetManager@NetManager@@CAXXZ 10020890 f   NetManager.obj
 0001:0001f8d0       ?ReleaseBabelClientToNetManager@NetManager@@CAXXZ 100208d0 f   NetManager.obj
 0001:0001f910       ?GetNetManager@NetManager@@CAPAV1@PAVCBabelClient@@@Z 10020910 f   NetManager.obj
 0001:0001f970       ?BabelCallbackStatic@NetManager@@CAXPAVCBabelClient@@IHH@Z 10020970 f   NetManager.obj
 0001:0001f9a0       ?BabelCallback@NetManager@@MAEXIHH@Z 100209a0 f   NetManager.obj
 0001:0001fc40       ?SetOutboxDirectory@NetManager@@QAEXABV?$basic_string@DU?$char_traits@D@std@@V?$allocator@D@2@@std@@@Z 10020c40 f   NetManager.obj
 0001:0001fd90       ?SetInboxDirectory@NetManager@@QAEXABV?$basic_string@DU?$char_traits@D@std@@V?$allocator@D@2@@std@@@Z 10020d90 f   NetManager.obj
 0001:0001fef0       ?EncodeAsUniqueFilename@NetManager@@AAE?AV?$basic_string@DU?$char_traits@D@std@@V?$allocator@D@2@@std@@ABV23@0@Z 10020ef0 f   NetManager.obj
 0001:000201a0       ?DecodeUniqueFilename@NetManager@@AAE?AV?$basic_string@DU?$char_traits@D@std@@V?$allocator@D@2@@std@@ABV23@@Z 100211a0 f   NetManager.obj
 0001:00020430       ?OutgoingMessageComplete@NetManager@@QAEXH@Z 10021430 f   NetManager.obj
 0001:000205a0       ?SendOrdinaryMessages@NetManager@@QAEXXZ 100215a0 f   NetManager.obj
 0001:00020aa0       ?Send@InternalQueuedMessage@@UBEXABVMessageThread@@@Z 10021aa0 f i NetManager.obj
 0001:00020af0       ??_GInternalQueuedMessage@@UAEPAXI@Z 10021af0 f i NetManager.obj
 0001:00020af0       ??_EInternalQueuedMessage@@UAEPAXI@Z 10021af0 f i NetManager.obj
 0001:00020b20       ??0NetMemoryPack@@QAE@ABV0@@Z 10021b20 f i NetManager.obj
 0001:00020b90       ??1InternalQueuedMessage@@UAE@XZ 10021b90 f i NetManager.obj
 0001:00020c00       ?ReturnUniqueOutboxFilename@NetManager@@QAE?AV?$basic_string@DU?$char_traits@D@std@@V?$allocator@D@2@@std@@V23@@Z 10021c00 f   NetManager.obj
 0001:00020e20       ?FindUserWhoSentFile@NetManager@@QAE?AV?$basic_string@DU?$char_traits@D@std@@V?$allocator@D@2@@std@@V23@@Z 10021e20 f   NetManager.obj
 0001:00020ea0       ?IsUserOnline@NetManager@@QAE_NABV?$basic_string@DU?$char_traits@D@std@@V?$allocator@D@2@@std@@@Z 10021ea0 f   NetManager.obj
 0001:000210e0       ?FetchUserData@NetManager@@QAEXABV?$basic_string@DU?$char_traits@D@std@@V?$allocator@D@2@@std@@AAV23@AA_N@Z 100220e0 f   NetManager.obj
 0001:00021410       ?AsyncFetchUserData@NetManager@@IAEXXZ 10022410 f   NetManager.obj
 0001:00021630       ?AddToWWR@NetManager@@QAEXABV?$basic_string@DU?$char_traits@D@std@@V?$allocator@D@2@@std@@AA_N@Z 10022630 f   NetManager.obj
 0001:00021940       ?AddToWWRCoreBackgroundThread@NetManager@@AAEXXZ 10022940 f   NetManager.obj
 0001:00021b60       ?AddToWWRCore@NetManager@@AAEXABV?$basic_string@DU?$char_traits@D@std@@V?$allocator@D@2@@std@@@Z 10022b60 f   NetManager.obj
 0001:00021d70       ?RemoveFromWWR@NetManager@@QAEXABV?$basic_string@DU?$char_traits@D@std@@V?$allocator@D@2@@std@@@Z 10022d70 f   NetManager.obj
 0001:00021f30       ?ResetIteratorWWR@NetManager@@QAEXXZ 10022f30 f   NetManager.obj
 0001:00021f80       ?NextChangedUserWWR@NetManager@@QAE_NAAV?$basic_string@DU?$char_traits@D@std@@V?$allocator@D@2@@std@@AA_N@Z 10022f80 f   NetManager.obj
 0001:00022080       ?GetStatus@NetManager@@QAEXAAH000AA_N@Z 10023080 f   NetManager.obj
 0001:000223b0       ?AsyncGetStatus@NetManager@@IAEXXZ 100233b0 f   NetManager.obj
 0001:000223d0       ?GetServerHost@NetManager@@QAE?AV?$basic_string@DU?$char_traits@D@std@@V?$allocator@D@2@@std@@XZ 100233d0 f   NetManager.obj
 0001:000224d0       ?GetServerPort@NetManager@@QAEHXZ 100234d0 f   NetManager.obj
 0001:000224f0       ?GetServerID@NetManager@@QAEHXZ 100234f0 f   NetManager.obj
 0001:00022510       ?GetServerFriendlyName@NetManager@@QAE?AV?$basic_string@DU?$char_traits@D@std@@V?$allocator@D@2@@std@@XZ 10023510 f   NetManager.obj
 0001:00022610       ?PostDirectMessage@NetManager@@QAE_NABV?$basic_string@DU?$char_traits@D@std@@V?$allocator@D@2@@std@@PADH@Z 10023610 f   NetManager.obj
 0001:000228f0       ??1?$pair@$$CBV?$basic_string@DU?$char_traits@D@std@@V?$allocator@D@2@@std@@PAVNetDirectLink@@@std@@QAE@XZ 100238f0 f i NetManager.obj
 0001:000228f0       ??1?$pair@V?$basic_string@DU?$char_traits@D@std@@V?$allocator@D@2@@std@@PAVNetDirectLink@@@std@@QAE@XZ 100238f0 f i NetManager.obj
 0001:000228f0       ??1?$pair@$$CBV?$basic_string@DU?$char_traits@D@std@@V?$allocator@D@2@@std@@J@std@@QAE@XZ 100238f0 f i NetManager.obj
 0001:000228f0       ??1?$pair@$$CBV?$basic_string@DU?$char_traits@D@std@@V?$allocator@D@2@@std@@_N@std@@QAE@XZ 100238f0 f i NetManager.obj
 0001:00022930       ?PeerHandlerStatic@NetManager@@CAXPAVC_BABELCLIENT_BASE@@PAVCBabelSocket@@PAVCBabelClient@@@Z 10023930 f   NetManager.obj
 0001:00022960       ?PeerHandler@NetManager@@AAEXPAVC_BABELCLIENT_BASE@@PAVCBabelSocket@@PAVCBabelClient@@@Z 10023960 f   NetManager.obj
 0001:00022b70       ?RemoveDirectLink@NetManager@@AAEXVB_UIN@@PAVNetDirectLink@@@Z 10023b70 f   NetManager.obj
 0001:00022d10       ?DirectMessageArrivedAsync@NetManager@@EAEXABV?$basic_string@DU?$char_traits@D@std@@V?$allocator@D@2@@std@@0@Z 10023d10 f   NetManager.obj
 0001:00022d40       ?SpoolMessages@NetManager@@QAEXXZ 10023d40 f   NetManager.obj
 0001:00022e30       ?AddMessageToSpool@NetManager@@AAEXABV?$basic_string@DU?$char_traits@D@std@@V?$allocator@D@2@@std@@PBDH@Z 10023e30 f   NetManager.obj
 0001:00023080       ?SpoolInboxFile@NetManager@@AAEXABV?$basic_string@DU?$char_traits@D@std@@V?$allocator@D@2@@std@@PBDH@Z 10024080 f   NetManager.obj
 0001:000232e0       ?GetMessages@NetManager@@QAEXAAV?$vector@V?$basic_string@DU?$char_traits@D@std@@V?$allocator@D@2@@std@@V?$allocator@V?$basic_string@DU?$char_traits@D@std@@V?$allocator@D@2@@std@@@2@@std@@AAV?$vector@W4MessageType@NetMessages@@V?$allocator@W4MessageType@NetMessages@@@std@@@3@0@Z 100242e0 f   NetManager.obj
 0001:000235b0       ?GetClient@NetManager@@QAEAAVCBabelClient@@XZ 100245b0 f   NetManager.obj
 0001:000235c0       ?RawGetLastError@NetManager@@QAEHXZ 100245c0 f   NetManager.obj
 0001:000235d0       ?GetLastError@NetManager@@QAE?AW4ErrorCode@1@XZ 100245d0 f   NetManager.obj
 0001:000235e0       ?GetLastErrorFromBabel@NetManager@@AAE?AW4ErrorCode@1@XZ 100245e0 f   NetManager.obj
 0001:00023660       ?QueueMessage@NetManager@@QAEXPBVQueuedMessage@@@Z 10024660 f   NetManager.obj
 0001:00023680       ?DebugGetCurrentAction@NetManager@@QAE?AV?$basic_string@DU?$char_traits@D@std@@V?$allocator@D@2@@std@@XZ 10024680 f   NetManager.obj
 0001:000236b0       ??1?$_Tree@V?$basic_string@DU?$char_traits@D@std@@V?$allocator@D@2@@std@@U?$pair@$$CBV?$basic_string@DU?$char_traits@D@std@@V?$allocator@D@2@@std@@_N@2@U_Kfn@?$map@V?$basic_string@DU?$char_traits@D@std@@V?$allocator@D@2@@std@@_NU?$less@V?$basic_string@DU?$char_traits@D@std@@V?$allocator@D@2@@std@@@2@V?$allocator@_N@2@@2@U?$less@V?$basic_string@DU?$char_traits@D@std@@V?$allocator@D@2@@std@@@2@V?$allocator@_N@2@@std@@QAE@XZ 100246b0 f i NetManager.obj
 0001:00023770       ??1?$_Tree@V?$basic_string@DU?$char_traits@D@std@@V?$allocator@D@2@@std@@U?$pair@$$CBV?$basic_string@DU?$char_traits@D@std@@V?$allocator@D@2@@std@@PAVNetDirectLink@@@2@U_Kfn@?$multimap@V?$basic_string@DU?$char_traits@D@std@@V?$allocator@D@2@@std@@PAVNetDirectLink@@U?$less@V?$basic_string@DU?$char_traits@D@std@@V?$allocator@D@2@@std@@@2@V?$allocator@PAVNetDirectLink@@@2@@2@U?$less@V?$basic_string@DU?$char_traits@D@std@@V?$allocator@D@2@@std@@@2@V?$allocator@PAVNetDirectLink@@@2@@std@@QAE@XZ 10024770 f i NetManager.obj
 0001:00023830       ??1?$_Tree@V?$basic_string@DU?$char_traits@D@std@@V?$allocator@D@2@@std@@V12@U_Kfn@?$set@V?$basic_string@DU?$char_traits@D@std@@V?$allocator@D@2@@std@@U?$less@V?$basic_string@DU?$char_traits@D@std@@V?$allocator@D@2@@std@@@2@V?$allocator@V?$basic_string@DU?$char_traits@D@std@@V?$allocator@D@2@@std@@@2@@2@U?$less@V?$basic_string@DU?$char_traits@D@std@@V?$allocator@D@2@@std@@@2@V?$allocator@V?$basic_string@DU?$char_traits@D@std@@V?$allocator@D@2@@std@@@2@@std@@QAE@XZ 10024830 f i NetManager.obj
 0001:000238f0       ?_Ucopy@?$vector@VCBabelServerInfo@@V?$allocator@VCBabelServerInfo@@@std@@@std@@IAEPAVCBabelServerInfo@@PBV3@0PAV3@@Z 100248f0 f i NetManager.obj
 0001:00023930       ?erase@?$vector@V?$basic_string@DU?$char_traits@D@std@@V?$allocator@D@2@@std@@V?$allocator@V?$basic_string@DU?$char_traits@D@std@@V?$allocator@D@2@@std@@@2@@std@@QAEPAV?$basic_string@DU?$char_traits@D@std@@V?$allocator@D@2@@2@PAV32@0@Z 10024930 f i NetManager.obj
 0001:00023ab0       ?erase@?$vector@W4MessageType@NetMessages@@V?$allocator@W4MessageType@NetMessages@@@std@@@std@@QAEPAW4MessageType@NetMessages@@PAW434@0@Z 10024ab0 f i NetManager.obj
 0001:00023af0       ?insert@?$map@V?$basic_string@DU?$char_traits@D@std@@V?$allocator@D@2@@std@@_NU?$less@V?$basic_string@DU?$char_traits@D@std@@V?$allocator@D@2@@std@@@2@V?$allocator@_N@2@@std@@QAE?AU?$pair@Viterator@?$_Tree@V?$basic_string@DU?$char_traits@D@std@@V?$allocator@D@2@@std@@U?$pair@$$CBV?$basic_string@DU?$char_traits@D@std@@V?$allocator@D@2@@std@@_N@2@U_Kfn@?$map@V?$basic_string@DU?$char_traits@D@std@@V?$allocator@D@2@@std@@_NU?$less@V?$basic_string@DU?$char_traits@D@std@@V?$allocator@D@2@@std@@@2@V?$allocator@_N@2@@2@U?$less@V?$basic_string@DU?$char_traits@D@std@@V?$allocator@D@2@@std@@@2@V?$allocator@_N@2@@std@@_N@2@ABU?$pair@$$CBV?$basic_string@DU?$char_traits@D@std@@V?$allocator@D@2@@std@@_N@2@@Z 10024af0 f i NetManager.obj
 0001:00023be0       ?erase@?$_Tree@V?$basic_string@DU?$char_traits@D@std@@V?$allocator@D@2@@std@@U?$pair@$$CBV?$basic_string@DU?$char_traits@D@std@@V?$allocator@D@2@@std@@_N@2@U_Kfn@?$map@V?$basic_string@DU?$char_traits@D@std@@V?$allocator@D@2@@std@@_NU?$less@V?$basic_string@DU?$char_traits@D@std@@V?$allocator@D@2@@std@@@2@V?$allocator@_N@2@@2@U?$less@V?$basic_string@DU?$char_traits@D@std@@V?$allocator@D@2@@std@@@2@V?$allocator@_N@2@@std@@QAE?AViterator@12@V312@0@Z 10024be0 f i NetManager.obj
 0001:00023c90       ?insert@?$_Tree@V?$basic_string@DU?$char_traits@D@std@@V?$allocator@D@2@@std@@U?$pair@$$CBV?$basic_string@DU?$char_traits@D@std@@V?$allocator@D@2@@std@@PAVNetDirectLink@@@2@U_Kfn@?$multimap@V?$basic_string@DU?$char_traits@D@std@@V?$allocator@D@2@@std@@PAVNetDirectLink@@U?$less@V?$basic_string@DU?$char_traits@D@std@@V?$allocator@D@2@@std@@@2@V?$allocator@PAVNetDirectLink@@@2@@2@U?$less@V?$basic_string@DU?$char_traits@D@std@@V?$allocator@D@2@@std@@@2@V?$allocator@PAVNetDirectLink@@@2@@std@@QAE?AU?$pair@Viterator@?$_Tree@V?$basic_string@DU?$char_traits@D@std@@V?$allocator@D@2@@std@@U?$pair@$$CBV?$basic_string@DU?$char_traits@D@std@@V?$allocator@D@2@@std@@PAVNetDirectLink@@@2@U_Kfn@?$multimap@V?$basic_string@DU?$char_traits@D@std@@V?$allocator@D@2@@std@@PAVNetDirectLink@@U?$less@V?$basic_string@DU?$char_traits@D@std@@V?$allocator@D@2@@std@@@2@V?$allocator@PAVNetDirectLink@@@2@@2@U?$less@V?$basic_string@DU?$char_traits@D@std@@V?$allocator@D@2@@std@@@2@V?$allocator@PAVNetDirectLink@@@2@@std@@_N@2@ABU?$pair@$$CBV?$basic_string@DU?$char_traits@D@std@@V?$allocator@D@2@@std@@PAVNetDirectLink@@@2@@Z 10024c90 f i NetManager.obj
 0001:00023f00       ?insert@?$_Tree@V?$basic_string@DU?$char_traits@D@std@@V?$allocator@D@2@@std@@V12@U_Kfn@?$set@V?$basic_string@DU?$char_traits@D@std@@V?$allocator@D@2@@std@@U?$less@V?$basic_string@DU?$char_traits@D@std@@V?$allocator@D@2@@std@@@2@V?$allocator@V?$basic_string@DU?$char_traits@D@std@@V?$allocator@D@2@@std@@@2@@2@U?$less@V?$basic_string@DU?$char_traits@D@std@@V?$allocator@D@2@@std@@@2@V?$allocator@V?$basic_string@DU?$char_traits@D@std@@V?$allocator@D@2@@std@@@2@@std@@QAE?AU?$pair@Viterator@?$_Tree@V?$basic_string@DU?$char_traits@D@std@@V?$allocator@D@2@@std@@V12@U_Kfn@?$set@V?$basic_string@DU?$char_traits@D@std@@V?$allocator@D@2@@std@@U?$less@V?$basic_string@DU?$char_traits@D@std@@V?$allocator@D@2@@std@@@2@V?$allocator@V?$basic_string@DU?$char_traits@D@std@@V?$allocator@D@2@@std@@@2@@2@U?$less@V?$basic_string@DU?$char_traits@D@std@@V?$allocator@D@2@@std@@@2@V?$allocator@V?$basic_string@DU?$char_traits@D@std@@V?$allocator@D@2@@std@@@2@@std@@_N@2@ABV?$basic_string@DU?$char_traits@D@std@@V?$allocator@D@2@@2@@Z 10024f00 f i NetManager.obj
 0001:00024170       ?erase@?$_Tree@V?$basic_string@DU?$char_traits@D@std@@V?$allocator@D@2@@std@@V12@U_Kfn@?$set@V?$basic_string@DU?$char_traits@D@std@@V?$allocator@D@2@@std@@U?$less@V?$basic_string@DU?$char_traits@D@std@@V?$allocator@D@2@@std@@@2@V?$allocator@V?$basic_string@DU?$char_traits@D@std@@V?$allocator@D@2@@std@@@2@@2@U?$less@V?$basic_string@DU?$char_traits@D@std@@V?$allocator@D@2@@std@@@2@V?$allocator@V?$basic_string@DU?$char_traits@D@std@@V?$allocator@D@2@@std@@@2@@std@@QAE?AViterator@12@V312@@Z 10025170 f i NetManager.obj
 0001:00024560       ?insert@?$map@PAVCBabelClient@@PAVNetManager@@U?$less@PAVCBabelClient@@@std@@V?$allocator@PAVNetManager@@@4@@std@@QAE?AU?$pair@Viterator@?$_Tree@PAVCBabelClient@@U?$pair@QAVCBabelClient@@PAVNetManager@@@std@@U_Kfn@?$map@PAVCBabelClient@@PAVNetManager@@U?$less@PAVCBabelClient@@@std@@V?$allocator@PAVNetManager@@@4@@3@U?$less@PAVCBabelClient@@@3@V?$allocator@PAVNetManager@@@3@@std@@_N@2@ABU?$pair@QAVCBabelClient@@PAVNetManager@@@2@@Z 10025560 f i NetManager.obj
 0001:00024640       ?find@?$_Tree@PAVCBabelClient@@U?$pair@QAVCBabelClient@@PAVNetManager@@@std@@U_Kfn@?$map@PAVCBabelClient@@PAVNetManager@@U?$less@PAVCBabelClient@@@std@@V?$allocator@PAVNetManager@@@4@@3@U?$less@PAVCBabelClient@@@3@V?$allocator@PAVNetManager@@@3@@std@@QAE?AViterator@12@ABQAVCBabelClient@@@Z 10025640 f i NetManager.obj
 0001:000246b0       ??0?$pair@QAVCBabelClient@@PAVNetManager@@@std@@QAE@ABQAVCBabelClient@@ABQAVNetManager@@@Z 100256b0 f i NetManager.obj
 0001:000246d0       ?insert@?$_Tree@V?$basic_string@DU?$char_traits@D@std@@V?$allocator@D@2@@std@@U?$pair@$$CBV?$basic_string@DU?$char_traits@D@std@@V?$allocator@D@2@@std@@_N@2@U_Kfn@?$map@V?$basic_string@DU?$char_traits@D@std@@V?$allocator@D@2@@std@@_NU?$less@V?$basic_string@DU?$char_traits@D@std@@V?$allocator@D@2@@std@@@2@V?$allocator@_N@2@@2@U?$less@V?$basic_string@DU?$char_traits@D@std@@V?$allocator@D@2@@std@@@2@V?$allocator@_N@2@@std@@QAE?AU?$pair@Viterator@?$_Tree@V?$basic_string@DU?$char_traits@D@std@@V?$allocator@D@2@@std@@U?$pair@$$CBV?$basic_string@DU?$char_traits@D@std@@V?$allocator@D@2@@std@@_N@2@U_Kfn@?$map@V?$basic_string@DU?$char_traits@D@std@@V?$allocator@D@2@@std@@_NU?$less@V?$basic_string@DU?$char_traits@D@std@@V?$allocator@D@2@@std@@@2@V?$allocator@_N@2@@2@U?$less@V?$basic_string@DU?$char_traits@D@std@@V?$allocator@D@2@@std@@@2@V?$allocator@_N@2@@std@@_N@2@ABU?$pair@$$CBV?$basic_string@DU?$char_traits@D@std@@V?$allocator@D@2@@std@@_N@2@@Z 100256d0 f i NetManager.obj
 0001:00024940       ?lower_bound@?$_Tree@V?$basic_string@DU?$char_traits@D@std@@V?$allocator@D@2@@std@@U?$pair@$$CBV?$basic_string@DU?$char_traits@D@std@@V?$allocator@D@2@@std@@_N@2@U_Kfn@?$map@V?$basic_string@DU?$char_traits@D@std@@V?$allocator@D@2@@std@@_NU?$less@V?$basic_string@DU?$char_traits@D@std@@V?$allocator@D@2@@std@@@2@V?$allocator@_N@2@@2@U?$less@V?$basic_string@DU?$char_traits@D@std@@V?$allocator@D@2@@std@@@2@V?$allocator@_N@2@@std@@QAE?AViterator@12@ABV?$basic_string@DU?$char_traits@D@std@@V?$allocator@D@2@@2@@Z 10025940 f i NetManager.obj
 0001:00024990       ?_Erase@?$_Tree@V?$basic_string@DU?$char_traits@D@std@@V?$allocator@D@2@@std@@U?$pair@$$CBV?$basic_string@DU?$char_traits@D@std@@V?$allocator@D@2@@std@@_N@2@U_Kfn@?$map@V?$basic_string@DU?$char_traits@D@std@@V?$allocator@D@2@@std@@_NU?$less@V?$basic_string@DU?$char_traits@D@std@@V?$allocator@D@2@@std@@@2@V?$allocator@_N@2@@2@U?$less@V?$basic_string@DU?$char_traits@D@std@@V?$allocator@D@2@@std@@@2@V?$allocator@_N@2@@std@@IAEXPAU_Node@12@@Z 10025990 f i NetManager.obj
 0001:000249e0       ?_Rrotate@?$_Tree@HU?$pair@$$CBHPAVCBabelAsyncCore@@@std@@U_Kfn@?$map@HPAVCBabelAsyncCore@@U?$less@H@std@@V?$allocator@PAVCBabelAsyncCore@@@3@@2@U?$less@H@2@V?$allocator@PAVCBabelAsyncCore@@@2@@std@@IAEXPAU_Node@12@@Z 100259e0 f i NetManager.obj
 0001:000249e0       ?_Rrotate@?$_Tree@V?$basic_string@DU?$char_traits@D@std@@V?$allocator@D@2@@std@@U?$pair@$$CBV?$basic_string@DU?$char_traits@D@std@@V?$allocator@D@2@@std@@PAVNetDirectLink@@@2@U_Kfn@?$multimap@V?$basic_string@DU?$char_traits@D@std@@V?$allocator@D@2@@std@@PAVNetDirectLink@@U?$less@V?$basic_string@DU?$char_traits@D@std@@V?$allocator@D@2@@std@@@2@V?$allocator@PAVNetDirectLink@@@2@@2@U?$less@V?$basic_string@DU?$char_traits@D@std@@V?$allocator@D@2@@std@@@2@V?$allocator@PAVNetDirectLink@@@2@@std@@IAEXPAU_Node@12@@Z 100259e0 f i NetManager.obj
 0001:000249e0       ?_Rrotate@?$_Tree@V?$basic_string@DU?$char_traits@D@std@@V?$allocator@D@2@@std@@V12@U_Kfn@?$set@V?$basic_string@DU?$char_traits@D@std@@V?$allocator@D@2@@std@@U?$less@V?$basic_string@DU?$char_traits@D@std@@V?$allocator@D@2@@std@@@2@V?$allocator@V?$basic_string@DU?$char_traits@D@std@@V?$allocator@D@2@@std@@@2@@2@U?$less@V?$basic_string@DU?$char_traits@D@std@@V?$allocator@D@2@@std@@@2@V?$allocator@V?$basic_string@DU?$char_traits@D@std@@V?$allocator@D@2@@std@@@2@@std@@IAEXPAU_Node@12@@Z 100259e0 f i NetManager.obj
 0001:000249e0       ?_Rrotate@?$_Tree@V?$basic_string@DU?$char_traits@D@std@@V?$allocator@D@2@@std@@U?$pair@$$CBV?$basic_string@DU?$char_traits@D@std@@V?$allocator@D@2@@std@@V?$set@VAgentHandle@@U?$less@VAgentHandle@@@std@@V?$allocator@VAgentHandle@@@3@@2@@2@U_Kfn@?$map@V?$basic_string@DU?$char_traits@D@std@@V?$allocator@D@2@@std@@V?$set@VAgentHandle@@U?$less@VAgentHandle@@@std@@V?$allocator@VAgentHandle@@@3@@2@U?$less@V?$basic_string@DU?$char_traits@D@std@@V?$allocator@D@2@@std@@@2@V?$allocator@V?$set@VAgentHandle@@U?$less@VAgentHandle@@@std@@V?$allocator@VAgentHandle@@@3@@std@@@2@@2@U?$less@V?$basic_string@DU?$char_traits@D@std@@V?$allocator@D@2@@std@@@2@V?$allocator@V?$set@VAgentHandle@@U?$less@VAgentHandle@@@std@@V?$allocator@VAgentHandle@@@3@@std@@@2@@std@@IAEXPAU_Node@12@@Z 100259e0 f i NetManager.obj
 0001:000249e0       ?_Rrotate@?$_Tree@V?$basic_string@DU?$char_traits@D@std@@V?$allocator@D@2@@std@@U?$pair@$$CBV?$basic_string@DU?$char_traits@D@std@@V?$allocator@D@2@@std@@_N@2@U_Kfn@?$map@V?$basic_string@DU?$char_traits@D@std@@V?$allocator@D@2@@std@@_NU?$less@V?$basic_string@DU?$char_traits@D@std@@V?$allocator@D@2@@std@@@2@V?$allocator@_N@2@@2@U?$less@V?$basic_string@DU?$char_traits@D@std@@V?$allocator@D@2@@std@@@2@V?$allocator@_N@2@@std@@IAEXPAU_Node@12@@Z 100259e0 f i NetManager.obj
 0001:000249e0       ?_Rrotate@?$_Tree@VAgentHandle@@V1@U_Kfn@?$set@VAgentHandle@@U?$less@VAgentHandle@@@std@@V?$allocator@VAgentHandle@@@3@@std@@U?$less@VAgentHandle@@@4@V?$allocator@VAgentHandle@@@4@@std@@IAEXPAU_Node@12@@Z 100259e0 f i NetManager.obj
 0001:00024a40       ?_Erase@?$_Tree@V?$basic_string@DU?$char_traits@D@std@@V?$allocator@D@2@@std@@U?$pair@$$CBV?$basic_string@DU?$char_traits@D@std@@V?$allocator@D@2@@std@@PAVNetDirectLink@@@2@U_Kfn@?$multimap@V?$basic_string@DU?$char_traits@D@std@@V?$allocator@D@2@@std@@PAVNetDirectLink@@U?$less@V?$basic_string@DU?$char_traits@D@std@@V?$allocator@D@2@@std@@@2@V?$allocator@PAVNetDirectLink@@@2@@2@U?$less@V?$basic_string@DU?$char_traits@D@std@@V?$allocator@D@2@@std@@@2@V?$allocator@PAVNetDirectLink@@@2@@std@@IAEXPAU_Node@12@@Z 10025a40 f i NetManager.obj
 0001:00024a90       ?_Insert@?$_Tree@V?$basic_string@DU?$char_traits@D@std@@V?$allocator@D@2@@std@@U?$pair@$$CBV?$basic_string@DU?$char_traits@D@std@@V?$allocator@D@2@@std@@PAVNetDirectLink@@@2@U_Kfn@?$multimap@V?$basic_string@DU?$char_traits@D@std@@V?$allocator@D@2@@std@@PAVNetDirectLink@@U?$less@V?$basic_string@DU?$char_traits@D@std@@V?$allocator@D@2@@std@@@2@V?$allocator@PAVNetDirectLink@@@2@@2@U?$less@V?$basic_string@DU?$char_traits@D@std@@V?$allocator@D@2@@std@@@2@V?$allocator@PAVNetDirectLink@@@2@@std@@IAE?AViterator@12@PAU_Node@12@0ABU?$pair@$$CBV?$basic_string@DU?$char_traits@D@std@@V?$allocator@D@2@@std@@PAVNetDirectLink@@@2@@Z 10025a90 f i NetManager.obj
 0001:00024ce0       ?_Ubound@?$_Tree@V?$basic_string@DU?$char_traits@D@std@@V?$allocator@D@2@@std@@U?$pair@$$CBV?$basic_string@DU?$char_traits@D@std@@V?$allocator@D@2@@std@@PAVNetDirectLink@@@2@U_Kfn@?$multimap@V?$basic_string@DU?$char_traits@D@std@@V?$allocator@D@2@@std@@PAVNetDirectLink@@U?$less@V?$basic_string@DU?$char_traits@D@std@@V?$allocator@D@2@@std@@@2@V?$allocator@PAVNetDirectLink@@@2@@2@U?$less@V?$basic_string@DU?$char_traits@D@std@@V?$allocator@D@2@@std@@@2@V?$allocator@PAVNetDirectLink@@@2@@std@@IBEPAU_Node@12@ABV?$basic_string@DU?$char_traits@D@std@@V?$allocator@D@2@@2@@Z 10025ce0 f i NetManager.obj
 0001:00024d30       ?_Erase@?$_Tree@V?$basic_string@DU?$char_traits@D@std@@V?$allocator@D@2@@std@@V12@U_Kfn@?$set@V?$basic_string@DU?$char_traits@D@std@@V?$allocator@D@2@@std@@U?$less@V?$basic_string@DU?$char_traits@D@std@@V?$allocator@D@2@@std@@@2@V?$allocator@V?$basic_string@DU?$char_traits@D@std@@V?$allocator@D@2@@std@@@2@@2@U?$less@V?$basic_string@DU?$char_traits@D@std@@V?$allocator@D@2@@std@@@2@V?$allocator@V?$basic_string@DU?$char_traits@D@std@@V?$allocator@D@2@@std@@@2@@std@@IAEXPAU_Node@12@@Z 10025d30 f i NetManager.obj
 0001:00024da0       ?_Init@?$_Tree@V?$basic_string@DU?$char_traits@D@std@@V?$allocator@D@2@@std@@V12@U_Kfn@?$set@V?$basic_string@DU?$char_traits@D@std@@V?$allocator@D@2@@std@@U?$less@V?$basic_string@DU?$char_traits@D@std@@V?$allocator@D@2@@std@@@2@V?$allocator@V?$basic_string@DU?$char_traits@D@std@@V?$allocator@D@2@@std@@@2@@2@U?$less@V?$basic_string@DU?$char_traits@D@std@@V?$allocator@D@2@@std@@@2@V?$allocator@V?$basic_string@DU?$char_traits@D@std@@V?$allocator@D@2@@std@@@2@@std@@IAEXXZ 10025da0 f i NetManager.obj
 0001:00024e00       ?_Insert@?$_Tree@V?$basic_string@DU?$char_traits@D@std@@V?$allocator@D@2@@std@@V12@U_Kfn@?$set@V?$basic_string@DU?$char_traits@D@std@@V?$allocator@D@2@@std@@U?$less@V?$basic_string@DU?$char_traits@D@std@@V?$allocator@D@2@@std@@@2@V?$allocator@V?$basic_string@DU?$char_traits@D@std@@V?$allocator@D@2@@std@@@2@@2@U?$less@V?$basic_string@DU?$char_traits@D@std@@V?$allocator@D@2@@std@@@2@V?$allocator@V?$basic_string@DU?$char_traits@D@std@@V?$allocator@D@2@@std@@@2@@std@@IAE?AViterator@12@PAU_Node@12@0ABV?$basic_string@DU?$char_traits@D@std@@V?$allocator@D@2@@2@@Z 10025e00 f i NetManager.obj
 0001:00025050       ?_Erase@?$_Tree@PAVCBabelClient@@U?$pair@QAVCBabelClient@@PAVNetManager@@@std@@U_Kfn@?$map@PAVCBabelClient@@PAVNetManager@@U?$less@PAVCBabelClient@@@std@@V?$allocator@PAVNetManager@@@4@@3@U?$less@PAVCBabelClient@@@3@V?$allocator@PAVNetManager@@@3@@std@@IAEXPAU_Node@12@@Z 10026050 f i NetManager.obj
 0001:00025090       ??0?$pair@Viterator@?$_Tree@VAgentHandle@@V1@U_Kfn@?$set@VAgentHandle@@U?$less@VAgentHandle@@@std@@V?$allocator@VAgentHandle@@@3@@std@@U?$less@VAgentHandle@@@4@V?$allocator@VAgentHandle@@@4@@std@@_N@std@@QAE@ABViterator@?$_Tree@VAgentHandle@@V1@U_Kfn@?$set@VAgentHandle@@U?$less@VAgentHandle@@@std@@V?$allocator@VAgentHandle@@@3@@std@@U?$less@VAgentHandle@@@4@V?$allocator@VAgentHandle@@@4@@1@AB_N@Z 10026090 f i NetManager.obj
 0001:00025090       ??0?$pair@Viterator@?$_Tree@V?$basic_string@DU?$char_traits@D@std@@V?$allocator@D@2@@std@@U?$pair@$$CBV?$basic_string@DU?$char_traits@D@std@@V?$allocator@D@2@@std@@_N@2@U_Kfn@?$map@V?$basic_string@DU?$char_traits@D@std@@V?$allocator@D@2@@std@@_NU?$less@V?$basic_string@DU?$char_traits@D@std@@V?$allocator@D@2@@std@@@2@V?$allocator@_N@2@@2@U?$less@V?$basic_string@DU?$char_traits@D@std@@V?$allocator@D@2@@std@@@2@V?$allocator@_N@2@@std@@_N@std@@QAE@ABViterator@?$_Tree@V?$basic_string@DU?$char_traits@D@std@@V?$allocator@D@2@@std@@U?$pair@$$CBV?$basic_string@DU?$char_traits@D@std@@V?$allocator@D@2@@std@@_N@2@U_Kfn@?$map@V?$basic_string@DU?$char_traits@D@std@@V?$allocator@D@2@@std@@_NU?$less@V?$basic_string@DU?$char_traits@D@std@@V?$allocator@D@2@@std@@@2@V?$allocator@_N@2@@2@U?$less@V?$basic_string@DU?$char_traits@D@std@@V?$allocator@D@2@@std@@@2@V?$allocator@_N@2@@1@AB_N@Z 10026090 f i NetManager.obj
 0001:00025090       ??0?$pair@Viterator@?$_Tree@V?$basic_string@DU?$char_traits@D@std@@V?$allocator@D@2@@std@@U?$pair@$$CBV?$basic_string@DU?$char_traits@D@std@@V?$allocator@D@2@@std@@V?$set@VAgentHandle@@U?$less@VAgentHandle@@@std@@V?$allocator@VAgentHandle@@@3@@2@@2@U_Kfn@?$map@V?$basic_string@DU?$char_traits@D@std@@V?$allocator@D@2@@std@@V?$set@VAgentHandle@@U?$less@VAgentHandle@@@std@@V?$allocator@VAgentHandle@@@3@@2@U?$less@V?$basic_string@DU?$char_traits@D@std@@V?$allocator@D@2@@std@@@2@V?$allocator@V?$set@VAgentHandle@@U?$less@VAgentHandle@@@std@@V?$allocator@VAgentHandle@@@3@@std@@@2@@2@U?$less@V?$basic_string@DU?$char_traits@D@std@@V?$allocator@D@2@@std@@@2@V?$allocator@V?$set@VAgentHandle@@U?$less@VAgentHandle@@@std@@V?$allocator@VAgentHandle@@@3@@std@@@2@@std@@_N@std@@QAE@ABViterator@?$_Tree@V?$basic_string@DU?$char_traits@D@std@@V?$allocator@D@2@@std@@U?$pair@$$CBV?$basic_string@DU?$char_traits@D@std@@V?$allocator@D@2@@std@@V?$set@VAgentHandle@@U?$less@VAgentHandle@@@std@@V?$allocator@VAgentHandle@@@3@@2@@2@U_Kfn@?$map@V?$basic_string@DU?$char_traits@D@std@@V?$allocator@D@2@@std@@V?$set@VAgentHandle@@U?$less@VAgentHandle@@@std@@V?$allocator@VAgentHandle@@@3@@2@U?$less@V?$basic_string@DU?$char_traits@D@std@@V?$allocator@D@2@@std@@@2@V?$allocator@V?$set@VAgentHandle@@U?$less@VAgentHandle@@@std@@V?$allocator@VAgentHandle@@@3@@std@@@2@@2@U?$less@V?$basic_string@DU?$char_traits@D@std@@V?$allocator@D@2@@std@@@2@V?$allocator@V?$set@VAgentHandle@@U?$less@VAgentHandle@@@std@@V?$allocator@VAgentHandle@@@3@@std@@@2@@1@AB_N@Z 10026090 f i NetManager.obj
 0001:00025090       ??0?$pair@Viterator@?$_Tree@HU?$pair@$$CBHPAVCBabelAsyncCore@@@std@@U_Kfn@?$map@HPAVCBabelAsyncCore@@U?$less@H@std@@V?$allocator@PAVCBabelAsyncCore@@@3@@2@U?$less@H@2@V?$allocator@PAVCBabelAsyncCore@@@2@@std@@_N@std@@QAE@ABViterator@?$_Tree@HU?$pair@$$CBHPAVCBabelAsyncCore@@@std@@U_Kfn@?$map@HPAVCBabelAsyncCore@@U?$less@H@std@@V?$allocator@PAVCBabelAsyncCore@@@3@@2@U?$less@H@2@V?$allocator@PAVCBabelAsyncCore@@@2@@1@AB_N@Z 10026090 f i NetManager.obj
 0001:000250b0       ?_Insert@?$_Tree@V?$basic_string@DU?$char_traits@D@std@@V?$allocator@D@2@@std@@U?$pair@$$CBV?$basic_string@DU?$char_traits@D@std@@V?$allocator@D@2@@std@@_N@2@U_Kfn@?$map@V?$basic_string@DU?$char_traits@D@std@@V?$allocator@D@2@@std@@_NU?$less@V?$basic_string@DU?$char_traits@D@std@@V?$allocator@D@2@@std@@@2@V?$allocator@_N@2@@2@U?$less@V?$basic_string@DU?$char_traits@D@std@@V?$allocator@D@2@@std@@@2@V?$allocator@_N@2@@std@@IAE?AViterator@12@PAU_Node@12@0ABU?$pair@$$CBV?$basic_string@DU?$char_traits@D@std@@V?$allocator@D@2@@std@@_N@2@@Z 100260b0 f i NetManager.obj
 0001:00025300       ?_Lbound@?$_Tree@V?$basic_string@DU?$char_traits@D@std@@V?$allocator@D@2@@std@@U?$pair@$$CBV?$basic_string@DU?$char_traits@D@std@@V?$allocator@D@2@@std@@_N@2@U_Kfn@?$map@V?$basic_string@DU?$char_traits@D@std@@V?$allocator@D@2@@std@@_NU?$less@V?$basic_string@DU?$char_traits@D@std@@V?$allocator@D@2@@std@@@2@V?$allocator@_N@2@@2@U?$less@V?$basic_string@DU?$char_traits@D@std@@V?$allocator@D@2@@std@@@2@V?$allocator@_N@2@@std@@IBEPAU_Node@12@ABV?$basic_string@DU?$char_traits@D@std@@V?$allocator@D@2@@2@@Z 10026300 f i NetManager.obj
 0001:00025300       ?_Lbound@?$_Tree@V?$basic_string@DU?$char_traits@D@std@@V?$allocator@D@2@@std@@U?$pair@$$CBV?$basic_string@DU?$char_traits@D@std@@V?$allocator@D@2@@std@@PAVNetDirectLink@@@2@U_Kfn@?$multimap@V?$basic_string@DU?$char_traits@D@std@@V?$allocator@D@2@@std@@PAVNetDirectLink@@U?$less@V?$basic_string@DU?$char_traits@D@std@@V?$allocator@D@2@@std@@@2@V?$allocator@PAVNetDirectLink@@@2@@2@U?$less@V?$basic_string@DU?$char_traits@D@std@@V?$allocator@D@2@@std@@@2@V?$allocator@PAVNetDirectLink@@@2@@std@@IBEPAU_Node@12@ABV?$basic_string@DU?$char_traits@D@std@@V?$allocator@D@2@@2@@Z 10026300 f i NetManager.obj
 0001:00025300       ?_Lbound@?$_Tree@V?$basic_string@DU?$char_traits@D@std@@V?$allocator@D@2@@std@@U?$pair@$$CBV?$basic_string@DU?$char_traits@D@std@@V?$allocator@D@2@@std@@V12@@2@U_Kfn@?$map@V?$basic_string@DU?$char_traits@D@std@@V?$allocator@D@2@@std@@V12@U?$less@V?$basic_string@DU?$char_traits@D@std@@V?$allocator@D@2@@std@@@2@V?$allocator@V?$basic_string@DU?$char_traits@D@std@@V?$allocator@D@2@@std@@@2@@2@U?$less@V?$basic_string@DU?$char_traits@D@std@@V?$allocator@D@2@@std@@@2@V?$allocator@V?$basic_string@DU?$char_traits@D@std@@V?$allocator@D@2@@std@@@2@@std@@IBEPAU_Node@12@ABV?$basic_string@DU?$char_traits@D@std@@V?$allocator@D@2@@2@@Z 10026300 f i NetManager.obj
 0001:00025350       ?_Buynode@?$_Tree@V?$basic_string@DU?$char_traits@D@std@@V?$allocator@D@2@@std@@V12@U_Kfn@?$set@V?$basic_string@DU?$char_traits@D@std@@V?$allocator@D@2@@std@@U?$less@V?$basic_string@DU?$char_traits@D@std@@V?$allocator@D@2@@std@@@2@V?$allocator@V?$basic_string@DU?$char_traits@D@std@@V?$allocator@D@2@@std@@@2@@2@U?$less@V?$basic_string@DU?$char_traits@D@std@@V?$allocator@D@2@@std@@@2@V?$allocator@V?$basic_string@DU?$char_traits@D@std@@V?$allocator@D@2@@std@@@2@@std@@IAEPAU_Node@12@PAU312@D@Z 10026350 f i NetManager.obj
 0001:00025380       ?_Dec@iterator@?$_Tree@V?$basic_string@DU?$char_traits@D@std@@V?$allocator@D@2@@std@@V12@U_Kfn@?$set@V?$basic_string@DU?$char_traits@D@std@@V?$allocator@D@2@@std@@U?$less@V?$basic_string@DU?$char_traits@D@std@@V?$allocator@D@2@@std@@@2@V?$allocator@V?$basic_string@DU?$char_traits@D@std@@V?$allocator@D@2@@std@@@2@@2@U?$less@V?$basic_string@DU?$char_traits@D@std@@V?$allocator@D@2@@std@@@2@V?$allocator@V?$basic_string@DU?$char_traits@D@std@@V?$allocator@D@2@@std@@@2@@std@@QAEXXZ 10026380 f i NetManager.obj
 0001:000253e0       ?_Insert@?$_Tree@PAVCBabelClient@@U?$pair@QAVCBabelClient@@PAVNetManager@@@std@@U_Kfn@?$map@PAVCBabelClient@@PAVNetManager@@U?$less@PAVCBabelClient@@@std@@V?$allocator@PAVNetManager@@@4@@3@U?$less@PAVCBabelClient@@@3@V?$allocator@PAVNetManager@@@3@@std@@IAE?AViterator@12@PAU_Node@12@0ABU?$pair@QAVCBabelClient@@PAVNetManager@@@2@@Z 100263e0 f i NetManager.obj
 0001:00025620       ?_Lbound@?$_Tree@PAVCBabelClient@@U?$pair@QAVCBabelClient@@PAVNetManager@@@std@@U_Kfn@?$map@PAVCBabelClient@@PAVNetManager@@U?$less@PAVCBabelClient@@@std@@V?$allocator@PAVNetManager@@@4@@3@U?$less@PAVCBabelClient@@@3@V?$allocator@PAVNetManager@@@3@@std@@IBEPAU_Node@12@ABQAVCBabelClient@@@Z 10026620 f i NetManager.obj
 0001:00025650       ?_Dec@iterator@?$_Tree@V?$basic_string@DU?$char_traits@D@std@@V?$allocator@D@2@@std@@U?$pair@$$CBV?$basic_string@DU?$char_traits@D@std@@V?$allocator@D@2@@std@@_N@2@U_Kfn@?$map@V?$basic_string@DU?$char_traits@D@std@@V?$allocator@D@2@@std@@_NU?$less@V?$basic_string@DU?$char_traits@D@std@@V?$allocator@D@2@@std@@@2@V?$allocator@_N@2@@2@U?$less@V?$basic_string@DU?$char_traits@D@std@@V?$allocator@D@2@@std@@@2@V?$allocator@_N@2@@std@@QAEXXZ 10026650 f i NetManager.obj
 0001:00025650       ?_Dec@iterator@?$_Tree@V?$basic_string@DU?$char_traits@D@std@@V?$allocator@D@2@@std@@U?$pair@$$CBV?$basic_string@DU?$char_traits@D@std@@V?$allocator@D@2@@std@@PAVNetDirectLink@@@2@U_Kfn@?$multimap@V?$basic_string@DU?$char_traits@D@std@@V?$allocator@D@2@@std@@PAVNetDirectLink@@U?$less@V?$basic_string@DU?$char_traits@D@std@@V?$allocator@D@2@@std@@@2@V?$allocator@PAVNetDirectLink@@@2@@2@U?$less@V?$basic_string@DU?$char_traits@D@std@@V?$allocator@D@2@@std@@@2@V?$allocator@PAVNetDirectLink@@@2@@std@@QAEXXZ 10026650 f i NetManager.obj
 0001:000256b0       ?_Inc@iterator@?$_Tree@V?$basic_string@DU?$char_traits@D@std@@V?$allocator@D@2@@std@@V12@U_Kfn@?$set@V?$basic_string@DU?$char_traits@D@std@@V?$allocator@D@2@@std@@U?$less@V?$basic_string@DU?$char_traits@D@std@@V?$allocator@D@2@@std@@@2@V?$allocator@V?$basic_string@DU?$char_traits@D@std@@V?$allocator@D@2@@std@@@2@@2@U?$less@V?$basic_string@DU?$char_traits@D@std@@V?$allocator@D@2@@std@@@2@V?$allocator@V?$basic_string@DU?$char_traits@D@std@@V?$allocator@D@2@@std@@@2@@std@@QAEXXZ 100266b0 f i NetManager.obj
 0001:00025700       ?_Dec@iterator@?$_Tree@HU?$pair@$$CBHPAVCBabelAsyncCore@@@std@@U_Kfn@?$map@HPAVCBabelAsyncCore@@U?$less@H@std@@V?$allocator@PAVCBabelAsyncCore@@@3@@2@U?$less@H@2@V?$allocator@PAVCBabelAsyncCore@@@2@@std@@QAEXXZ 10026700 f i NetManager.obj
 0001:00025700       ?_Dec@iterator@?$_Tree@PAVCBabelClient@@U?$pair@QAVCBabelClient@@PAVNetManager@@@std@@U_Kfn@?$map@PAVCBabelClient@@PAVNetManager@@U?$less@PAVCBabelClient@@@std@@V?$allocator@PAVNetManager@@@4@@3@U?$less@PAVCBabelClient@@@3@V?$allocator@PAVNetManager@@@3@@std@@QAEXXZ 10026700 f i NetManager.obj
 0001:00025760       ?Send@?$MemberFunctionQueuedMessage@VDSNetManager@@@@UBEXABVMessageThread@@@Z 10026760 f i NetManager.obj
 0001:00025760       ?Send@?$MemberFunctionQueuedMessage@VNetManager@@@@UBEXABVMessageThread@@@Z 10026760 f i NetManager.obj
 0001:00025770       ?make_pair@std@@YA?AU?$pair@V?$basic_string@DU?$char_traits@D@std@@V?$allocator@D@2@@std@@PAVNetDirectLink@@@1@ABV?$basic_string@DU?$char_traits@D@std@@V?$allocator@D@2@@1@ABQAVNetDirectLink@@@Z 10026770 f i NetManager.obj
 0001:000258d0       ?_Construct@std@@YAXPAU?$pair@$$CBV?$basic_string@DU?$char_traits@D@std@@V?$allocator@D@2@@std@@PAVNetDirectLink@@@1@ABU21@@Z 100268d0 f i NetManager.obj
 0001:00025a40       ?_Construct@std@@YAXPAU?$pair@$$CBV?$basic_string@DU?$char_traits@D@std@@V?$allocator@D@2@@std@@_N@1@ABU21@@Z 10026a40 f i NetManager.obj
 0001:00025bb0       ?_Construct@std@@YAXPAU?$pair@QAVCBabelClient@@PAVNetManager@@@1@ABU21@@Z 10026bb0 f i NetManager.obj
 0001:00025bb0       ?_Construct@std@@YAXPAU?$pair@QBVPersistentObject@@J@1@ABU21@@Z 10026bb0 f i NetManager.obj
 0001:00025bb0       ?_Construct@std@@YAXPAU?$pair@$$CBHPAVCBabelAsyncCore@@@1@ABU21@@Z 10026bb0 f i NetManager.obj
 0001:00025bb0       ?_Construct@std@@YAXPAU?$pair@QBMJ@1@ABU21@@Z 10026bb0 f i NetManager.obj
 0001:00025bd0       ??_E?$MemberFunctionQueuedMessage@VNetManager@@@@UAEPAXI@Z 10026bd0 f i NetManager.obj
 0001:00025bd0       ??_G?$MemberFunctionQueuedMessage@VNetManager@@@@UAEPAXI@Z 10026bd0 f i NetManager.obj
 0001:00025c00       ??4CBabelServerInfo@@QAEAAV0@ABV0@@Z 10026c00 f i NetManager.obj
 0001:00025e70       ??_G?$pair@$$CBV?$basic_string@DU?$char_traits@D@std@@V?$allocator@D@2@@std@@V12@@std@@QAEPAXI@Z 10026e70 f i NetManager.obj
 0001:00025e70       ??_G?$pair@$$CBV?$basic_string@DU?$char_traits@D@std@@V?$allocator@D@2@@std@@U?$pair@V?$basic_string@DU?$char_traits@D@std@@V?$allocator@D@2@@std@@H@2@@std@@QAEPAXI@Z 10026e70 f i NetManager.obj
 0001:00025e70       ??_GCBabelServerInfo@@QAEPAXI@Z 10026e70 f i NetManager.obj
 0001:00025ea0       ??_G?$pair@$$CBV?$basic_string@DU?$char_traits@D@std@@V?$allocator@D@2@@std@@PAVNetDirectLink@@@std@@QAEPAXI@Z 10026ea0 f i NetManager.obj
 0001:00025ea0       ??_G?$pair@$$CBV?$basic_string@DU?$char_traits@D@std@@V?$allocator@D@2@@std@@J@std@@QAEPAXI@Z 10026ea0 f i NetManager.obj
 0001:00025ea0       ??_G?$pair@$$CBV?$basic_string@DU?$char_traits@D@std@@V?$allocator@D@2@@std@@_N@std@@QAEPAXI@Z 10026ea0 f i NetManager.obj
 0001:00025ed0       ??0NetMemoryPack@@QAE@H@Z  10026ed0 f   NetMemoryPack.obj
 0001:00025f30       ?Init@NetMemoryPack@@QAEXH@Z 10026f30 f   NetMemoryPack.obj
 0001:00026130       ?PackIn@NetMemoryPack@@QAEXPBXH@Z 10027130 f   NetMemoryPack.obj
 0001:00026170       ?PackInFile@NetMemoryPack@@QAEXABV?$basic_string@DU?$char_traits@D@std@@V?$allocator@D@2@@std@@@Z 10027170 f   NetMemoryPack.obj
 0001:000261e0       ?PackIn@NetMemoryPack@@QAEXABV?$basic_string@DU?$char_traits@D@std@@V?$allocator@D@2@@std@@@Z 100271e0 f   NetMemoryPack.obj
 0001:00026220       ?PackIn@NetMemoryPack@@QAEXABH@Z 10027220 f   NetMemoryPack.obj
 0001:00026240       ?GetAddress@NetMemoryPack@@QBEPBXXZ 10027240 f   NetMemoryPack.obj
 0001:00026250       ?GetSize@NetMemoryPack@@QBEIXZ 10027250 f   NetMemoryPack.obj
 0001:00026260       ?_Ufill@?$vector@DV?$allocator@D@std@@@std@@IAEXPADIABD@Z 10027260 f i NetMemoryPack.obj
 0001:00026290       ?_Construct@std@@YAXPADABD@Z 10027290 f i NetMemoryPack.obj
 0001:000262b0       ??0NetMemoryUnpack@@QAE@PBXH@Z 100272b0 f   NetMemoryUnpack.obj
 0001:000262e0       ?Init@NetMemoryUnpack@@QAEXPBXH@Z 100272e0 f   NetMemoryUnpack.obj
 0001:00026300       ?CheckRequest@NetMemoryUnpack@@AAE_NH@Z 10027300 f   NetMemoryUnpack.obj
 0001:00026320       ?UncheckedSkip@NetMemoryUnpack@@AAEXH@Z 10027320 f   NetMemoryUnpack.obj
 0001:00026340       ?PackOut@NetMemoryUnpack@@QAE_NPAXH@Z 10027340 f   NetMemoryUnpack.obj
 0001:00026390       ?PackOut@NetMemoryUnpack@@QAE_NAAV?$basic_string@DU?$char_traits@D@std@@V?$allocator@D@2@@std@@@Z 10027390 f   NetMemoryUnpack.obj
 0001:00026510       ?UserToString@NetUtilities@@YA?AV?$basic_string@DU?$char_traits@D@std@@V?$allocator@D@2@@std@@ABVB_UIN@@@Z 10027510 f   NetUtilities.obj
 0001:00026720       ?StringToUser@NetUtilities@@YA?AVB_UIN@@ABV?$basic_string@DU?$char_traits@D@std@@V?$allocator@D@2@@std@@@Z 10027720 f   NetUtilities.obj
 0001:000268d0       ?GetFilesInDirectory@NetUtilities@@YA_NABV?$basic_string@DU?$char_traits@D@std@@V?$allocator@D@2@@std@@AAV?$vector@V?$basic_string@DU?$char_traits@D@std@@V?$allocator@D@2@@std@@V?$allocator@V?$basic_string@DU?$char_traits@D@std@@V?$allocator@D@2@@std@@@2@@3@0@Z 100278d0 f   NetUtilities.obj
 0001:00026a90       ??0QueuedMessage@@QAE@XZ   10027a90 f   QueuedMessage.obj
 0001:00026ad0       ?SetDebugText@QueuedMessage@@QAEXABV?$basic_string@DU?$char_traits@D@std@@V?$allocator@D@2@@std@@@Z 10027ad0 f   QueuedMessage.obj
 0001:00026c20       ?GetDebugText@QueuedMessage@@QBE?AV?$basic_string@DU?$char_traits@D@std@@V?$allocator@D@2@@std@@XZ 10027c20 f   QueuedMessage.obj
 0001:00026e20       ??0HistoryTransferOut@@QAE@XZ 10027e20 f   HistoryTransferOut.obj
 0001:00026ef0       ??1HistoryTransferOut@@QAE@XZ 10027ef0 f   HistoryTransferOut.obj
 0001:000270c0       ?WriteMoniker@HistoryTransferOut@@QAEXABV?$basic_string@DU?$char_traits@D@std@@V?$allocator@D@2@@std@@@Z 100280c0 f   HistoryTransferOut.obj
 0001:00027210       ?WriteCreatureHistory@HistoryTransferOut@@QAEXABVCreatureHistory@@@Z 10028210 f   HistoryTransferOut.obj
 0001:00027420       ?WriteName@HistoryTransferOut@@QAEXABV?$basic_string@DU?$char_traits@D@std@@V?$allocator@D@2@@std@@@Z 10028420 f   HistoryTransferOut.obj
 0001:00027580       ?WriteLifeEvent@HistoryTransferOut@@QAEXABVLifeEvent@@H@Z 10028580 f   HistoryTransferOut.obj
 0001:00027740       ?WriteUserText@HistoryTransferOut@@QAEXHABV?$basic_string@DU?$char_traits@D@std@@V?$allocator@D@2@@std@@@Z 10028740 f   HistoryTransferOut.obj
 0001:00027900       ?PrecalculateLength@HistoryTransferOut@@AAEHXZ 10028900 f   HistoryTransferOut.obj
 0001:000279a0       ?GetAddress@HistoryTransferOut@@QAEPBXXZ 100289a0 f   HistoryTransferOut.obj
 0001:00027ac0       ?GetLength@HistoryTransferOut@@QAEHXZ 10028ac0 f   HistoryTransferOut.obj
 0001:00027ad0       ?SpoolMoniker@HistoryTransferOut@@AAE_NXZ 10028ad0 f   HistoryTransferOut.obj
 0001:00027af0       ?SpoolHistory@HistoryTransferOut@@AAE_NXZ 10028af0 f   HistoryTransferOut.obj
 0001:00027b60       ?SpoolEvents@HistoryTransferOut@@AAE_NXZ 10028b60 f   HistoryTransferOut.obj
 0001:00027c90       ?SpoolName@HistoryTransferOut@@AAE_NXZ 10028c90 f   HistoryTransferOut.obj
 0001:00027cb0       ?SpoolUserText@HistoryTransferOut@@AAE_NXZ 10028cb0 f   HistoryTransferOut.obj
 0001:00027d30       ??1?$vector@VLifeEvent@@V?$allocator@VLifeEvent@@@std@@@std@@QAE@XZ 10028d30 f i HistoryTransferOut.obj
 0001:00027d70       ?insert@?$vector@VLifeEvent@@V?$allocator@VLifeEvent@@@std@@@std@@QAEXPAVLifeEvent@@IABV3@@Z 10028d70 f i HistoryTransferOut.obj
 0001:00028190       ?Flush@Configurator@@QAE_NXZ 10029190 f   engine:engine.exe
 0001:00028196       ?Set@CAOSVar@@MAEXHABTPolyVar@1@@Z 10029196 f   engine:engine.exe
 0001:0002819c       ?Get@CAOSVar@@MBEXHAATPolyVar@1@@Z 1002919c f   engine:engine.exe
 0001:000281a2       ?Read@CAOSVar@@UAE_NAAVCreaturesArchive@@@Z 100291a2 f   engine:engine.exe
 0001:000281a8       ?Read@CAOSVar@@UAE_NAAV?$basic_istream@DU?$char_traits@D@std@@@std@@@Z 100291a8 f   engine:engine.exe
 0001:000281ae       ?Write@CAOSVar@@UBE_NAAVCreaturesArchive@@@Z 100291ae f   engine:engine.exe
 0001:000281b4       ?Write@CAOSVar@@UBE_NAAV?$basic_ostream@DU?$char_traits@D@std@@@std@@@Z 100291b4 f   engine:engine.exe
 0001:000281ba       ??0AgentHandle@@QAE@XZ     100291ba f   engine:engine.exe
 0001:000281c0       ??1AgentHandle@@QAE@XZ     100291c0 f   engine:engine.exe
 0001:000281c6       ??0AgentHandle@@QAE@ABV0@@Z 100291c6 f   engine:engine.exe
 0001:000281cc       ??4AgentHandle@@QAEAAV0@ABV0@@Z 100291cc f   engine:engine.exe
 0001:000281d2       ??0CAOSVar@@QAE@ABV0@@Z    100291d2 f   engine:engine.exe
 0001:000281d8       ?ThrowRunError@CAOSMachine@@SAXHZZ 100291d8 f   engine:engine.exe
 0001:000281de       ?Read@CAOSMachine@@UAE_NAAVCreaturesArchive@@@Z 100291de f   engine:engine.exe
 0001:000281e4       ?Write@CAOSMachine@@UBE_NAAVCreaturesArchive@@@Z 100291e4 f   engine:engine.exe
 0001:000281ea       ?GetClassNameX@CAOSMachine@@UBEPBDXZ 100291ea f   engine:engine.exe
 0001:000281f0       ??4CAOSVar@@QAEAAV0@ABV0@@Z 100291f0 f   engine:engine.exe
 0001:000281f6       ??1CAOSMachine@@UAE@XZ     100291f6 f   engine:engine.exe
 0001:000281fc       ?ThrowInvalidAgentHandle@CAOSMachine@@SAXHZZ 100291fc f   engine:engine.exe
 0001:00028202       ?IsInvalid@AgentHandle@@QAE_NXZ 10029202 f   engine:engine.exe
 0001:00028208       ?Read@AgentManager@@UAE_NAAVCreaturesArchive@@@Z 10029208 f   engine:engine.exe
 0001:0002820e       ?Write@AgentManager@@UBE_NAAVCreaturesArchive@@@Z 1002920e f   engine:engine.exe
 0001:00028214       ?PushTable@CAOSDescription@@QAEXVHandlerFunction@@HABV?$basic_string@DU?$char_traits@D@std@@V?$allocator@D@2@@std@@PAVOpSpec@@H@Z 10029214 f   engine:engine.exe
 0001:0002821a       ?UnBlock@CAOSMachine@@QAEXXZ 1002921a f   engine:engine.exe
 0001:00028220       ?Block@CAOSMachine@@QAEXXZ 10029220 f   engine:engine.exe
 0001:00028226       ?Get@Configurator@@QBEXABV?$basic_string@DU?$char_traits@D@std@@V?$allocator@D@2@@std@@AAH@Z 10029226 f   engine:engine.exe
 0001:0002822c       ?Get@Configurator@@QBEXABV?$basic_string@DU?$char_traits@D@std@@V?$allocator@D@2@@std@@AAV23@@Z 1002922c f   engine:engine.exe
 0001:00028232       ?ThrowTagRunError@CAOSMachine@@SAXPBDHZZ 10029232 f   engine:engine.exe
 0001:00028238       ?FetchIntegerRV@CAOSMachine@@QAEHXZ 10029238 f   engine:engine.exe
 0001:0002823e       ?FetchStringRV@CAOSMachine@@QAEXAAV?$basic_string@DU?$char_traits@D@std@@V?$allocator@D@2@@std@@@Z 1002923e f   engine:engine.exe
 0001:00028244       ?NotifyNewNickname@App@@QAEXABV?$basic_string@DU?$char_traits@D@std@@V?$allocator@D@2@@std@@@Z 10029244 f   engine:engine.exe
 0001:0002824a       ?Zap@Configurator@@QAEXABV?$basic_string@DU?$char_traits@D@std@@V?$allocator@D@2@@std@@@Z 1002924a f   engine:engine.exe
 0001:00028250       ?Set@Configurator@@QAEXABV?$basic_string@DU?$char_traits@D@std@@V?$allocator@D@2@@std@@0@Z 10029250 f   engine:engine.exe
 0001:00028256       ?GetGameVar@App@@QAEAAVCAOSVar@@ABV?$basic_string@DU?$char_traits@D@std@@V?$allocator@D@2@@std@@@Z 10029256 f   engine:engine.exe
 0001:0002825c       ?GetTheApp@App@@SAAAV1@XZ  1002925c f   engine:engine.exe
 0001:00028262       ?FetchVariable@CAOSMachine@@QAEAAVCAOSVar@@XZ 10029262 f   engine:engine.exe
 0001:00028268       ?ThrowRunError@CAOSMachine@@QAEXABVexception@@@Z 10029268 f   engine:engine.exe
 0001:0002826e       ?ExportHelper@PrayHandlers@@SAHAAVCreature@@V?$basic_string@DU?$char_traits@D@std@@V?$allocator@D@2@@std@@1_N2@Z 1002926e f   engine:engine.exe
 0001:00028274       ?GetCreatureTarg@CAOSMachine@@QAEAAVCreature@@XZ 10029274 f   engine:engine.exe
 0001:0002827a       ??8AgentHandle@@QBE_NABV0@@Z 1002927a f   engine:engine.exe
 0001:00028280       ?MakeHelper@PrayHandlers@@SA_NV?$basic_string@DU?$char_traits@D@std@@V?$allocator@D@2@@std@@00AAVCAOSVar@@@Z 10029280 f   engine:engine.exe
 0001:00028286       ?GetDirectory@DirectoryManager@@QAE?AV?$basic_string@DU?$char_traits@D@std@@V?$allocator@D@2@@std@@H@Z 10029286 f   engine:engine.exe
 0001:0002828c       ?GetWorldDirectoryVersion@DirectoryManager@@QAE_NHAAV?$basic_string@DU?$char_traits@D@std@@V?$allocator@D@2@@std@@_NV23@@Z 1002928c f   engine:engine.exe
 0001:00028292       ?GetDirectoryManager@DirectoryManager@@SAAAV1@XZ 10029292 f   engine:engine.exe
 0001:00028298       ?GetChunkParentFile@PrayManager@@QAE?AV?$basic_string@DU?$char_traits@D@std@@V?$allocator@D@2@@std@@V23@@Z 10029298 f   engine:engine.exe
 0001:0002829e       ?CheckChunk@PrayManager@@QAEHV?$basic_string@DU?$char_traits@D@std@@V?$allocator@D@2@@std@@@Z 1002929e f   engine:engine.exe
 0001:000282a4       ?GetPrayManager@PrayManager@@SAAAV1@XZ 100292a4 f   engine:engine.exe
 0001:000282aa       ?ExecuteScriptOnAgent@AgentManager@@QAEXVAgentHandle@@HABVCAOSVar@@11@Z 100292aa f   engine:engine.exe
 0001:000282b0       ?GetAgentManager@AgentManager@@SAAAV1@XZ 100292b0 f   engine:engine.exe
 0001:000282b6       ?IsValid@AgentHandle@@QAE_NXZ 100292b6 f   engine:engine.exe
 0001:000282bc       ??6@YAAAVCreaturesArchive@@AAV0@ABVAgentHandle@@@Z 100292bc f   engine:engine.exe
 0001:000282c2       ?Write@CreaturesArchive@@QAEXABV?$basic_string@DU?$char_traits@D@std@@V?$allocator@D@2@@std@@@Z 100292c2 f   engine:engine.exe
 0001:000282c8       ?Write@CreaturesArchive@@QAEXK@Z 100292c8 f   engine:engine.exe
 0001:000282ce       ?GetFileVersion@CreaturesArchive@@QAEJXZ 100292ce f   engine:engine.exe
 0001:000282d4       ?Read@CreaturesArchive@@QAEXAAV?$basic_string@DU?$char_traits@D@std@@V?$allocator@D@2@@std@@@Z 100292d4 f   engine:engine.exe
 0001:000282da       ?Read@CreaturesArchive@@QAEXAAK@Z 100292da f   engine:engine.exe
 0001:000282e0       ?FetchGenericRV@CAOSMachine@@QAE?AVCAOSVar@@XZ 100292e0 f   engine:engine.exe
 0001:000282e6       ??MAgentHandle@@QBE_NABV0@@Z 100292e6 f   engine:engine.exe
 0001:000282ec       ?BindToFile@Configurator@@QAE_NABV?$basic_string@DU?$char_traits@D@std@@V?$allocator@D@2@@std@@@Z 100292ec f   engine:engine.exe
 0001:000282f2       ?Set@Configurator@@QAEXABV?$basic_string@DU?$char_traits@D@std@@V?$allocator@D@2@@std@@H@Z 100292f2 f   engine:engine.exe
 0001:000282f8       ??5@YAAAVCreaturesArchive@@AAV0@AAVAgentHandle@@@Z 100292f8 f   engine:engine.exe
 0001:000282fe       ?Log@FlightRecorder@@QAAXW4FlightCategory@@PBDZZ 100292fe f   engine:engine.exe
 0001:00028304       ?GetFlightRecorder@@YAAAVFlightRecorder@@XZ 10029304 f   engine:engine.exe
 0001:0002830a       ??0CreatureHistory@@QAE@XZ 1002930a f   engine:engine.exe
 0001:00028310       ?ExecuteScriptOnAllAgents@AgentManager@@QAEXHABVCAOSVar@@00@Z 10029310 f   engine:engine.exe
 0001:00028316       ?GetLifeEvent@CreatureHistory@@QAEPAVLifeEvent@@H@Z 10029316 f   engine:engine.exe
 0001:0002831c       ?GetCreatureHistory@HistoryStore@@QAEAAVCreatureHistory@@ABV?$basic_string@DU?$char_traits@D@std@@V?$allocator@D@2@@std@@@Z 1002931c f   engine:engine.exe
 0001:00028322       ?GetSolidLifeEvent@CreatureHistory@@QAEPAVLifeEvent@@USolidIndex@1@@Z 10029322 f   engine:engine.exe
 0001:00028328       ?SolidCount@CreatureHistory@@QBE?AUSolidIndex@1@XZ 10029328 f   engine:engine.exe
 0001:0002832e       ?CreaturePresentForEvent@LifeEvent@@QBE_NXZ 1002932e f   engine:engine.exe
 0001:00028334       ?Next@HistoryStore@@QAE?AV?$basic_string@DU?$char_traits@D@std@@V?$allocator@D@2@@std@@ABV23@@Z 10029334 f   engine:engine.exe
 0001:0002833a       ??2@YAPAXI@Z               1002933a f   msvcrt:MSVCRT.dll
 0001:00028340       ___CxxFrameHandler         10029340 f   msvcrt:MSVCRT.dll
 0001:00028350       ??3@YAXPAX@Z               10029350 f   msvcrt:MSVCRT.dll
 0001:00028356       __onexit                   10029356 f   msvcrt:atonexit.obj
 0001:00028382       _atexit                    10029382 f   msvcrt:atonexit.obj
 0001:00028394       ??_Gtype_info@@UAEPAXI@Z   10029394 f i msvcrt:ti_inst.obj
 0001:00028394       ??_Etype_info@@UAEPAXI@Z   10029394 f i msvcrt:ti_inst.obj
 0001:000283b0       ??_M@YGXPAXIHP6EX0@Z@Z     100293b0 f   msvcrt:ehvecdtr.obj
 0001:00028430       ?__ArrayUnwind@@YGXPAXIHP6EX0@Z@Z 10029430 f   msvcrt:ehvecdtr.obj
 0001:000284a4       ??0exception@@QAE@ABV0@@Z  100294a4 f   msvcrt:MSVCRT.dll
 0001:000284aa       __CxxThrowException@8      100294aa f   msvcrt:MSVCRT.dll
 0001:000284b0       __purecall                 100294b0 f   msvcrt:MSVCRT.dll
 0001:000284c0       __chkstk                   100294c0 f   msvcrt:chkstk.obj
 0001:000284c0       __alloca_probe             100294c0 f   msvcrt:chkstk.obj
 0001:000284ef       __CRT_INIT@12              100294ef f   msvcrt:crtdll.obj
 0001:0002859a       __DllMainCRTStartup@12     1002959a f   msvcrt:crtdll.obj
 0001:00028638       ___dllonexit               10029638 f   msvcrt:MSVCRT.dll
 0001:0002863e       ??1type_info@@UAE@XZ       1002963e f   msvcrt:MSVCRT.dll
 0001:00028644       __except_handler3          10029644 f   msvcrt:MSVCRT.dll
 0001:0002864a       ?terminate@@YAXXZ          1002964a f   msvcrt:MSVCRT.dll
 0001:00028650       __initterm                 10029650 f   msvcrt:MSVCRT.dll
 0001:00028656       _DllMain@12                10029656 f   msvcrt:dllmain.obj
 0001:00028676       ??Hstd@@YA?AV?$basic_string@DU?$char_traits@D@std@@V?$allocator@D@2@@0@PBDABV10@@Z 10029676 f   msvcprt:MSVCP60.dll
 0001:0002867c       ??6std@@YAAAV?$basic_ostream@DU?$char_traits@D@std@@@0@AAV10@ABV?$basic_string@DU?$char_traits@D@std@@V?$allocator@D@2@@0@@Z 1002967c f   msvcprt:MSVCP60.dll
 0001:00028682       ??Hstd@@YA?AV?$basic_string@DU?$char_traits@D@std@@V?$allocator@D@2@@0@ABV10@PBD@Z 10029682 f   msvcprt:MSVCP60.dll
 0001:00028688       ??Hstd@@YA?AV?$basic_string@DU?$char_traits@D@std@@V?$allocator@D@2@@0@ABV10@0@Z 10029688 f   msvcprt:MSVCP60.dll
 0001:00028690       ?GetNewVirtualSocket@CBabelClient@@QAEGXZ 10029690 f   BabelClientC2e:BabelClient.obj
 0001:000286c0       ?Init@CBabelClient@@AAEXXZ 100296c0 f   BabelClientC2e:BabelClient.obj
 0001:00028890       ??0CBabelClient@@QAE@XZ    10029890 f   BabelClientC2e:BabelClient.obj
 0001:00028ad0       ??0CBabelClient@@QAE@_N@Z  10029ad0 f   BabelClientC2e:BabelClient.obj
 0001:00028d20       ??1CBabelClient@@QAE@XZ    10029d20 f   BabelClientC2e:BabelClient.obj
 0001:00028fe0       ?RetrieveMessage@CBabelClient@@QAEPAVCBabelMessage@@H@Z 10029fe0 f   BabelClientC2e:BabelClient.obj
 0001:00029020       ?GetMessageCount@CBabelClient@@QAEHXZ 1002a020 f   BabelClientC2e:BabelClient.obj
 0001:00029040       ?DeleteMessage@CBabelClient@@QAEXH@Z 1002a040 f   BabelClientC2e:BabelClient.obj
 0001:000290f0       ?DumpMessages@CBabelClient@@QAEXXZ 1002a0f0 f   BabelClientC2e:BabelClient.obj
 0001:000291e0       ?DumpUserCache@CBabelClient@@QAEXXZ 1002a1e0 f   BabelClientC2e:BabelClient.obj
 0001:00029340       ?GetServer@CBabelClient@@QAE?AV?$basic_string@DU?$char_traits@D@std@@V?$allocator@D@2@@std@@XZ 1002a340 f   BabelClientC2e:BabelClient.obj
 0001:00029490       ?GetServerFriendlyName@CBabelClient@@QAE?AV?$basic_string@DU?$char_traits@D@std@@V?$allocator@D@2@@std@@XZ 1002a490 f   BabelClientC2e:BabelClient.obj
 0001:000295e0       ?GetServerID@CBabelClient@@QAEHXZ 1002a5e0 f   BabelClientC2e:BabelClient.obj
 0001:000295f0       ?GetPort@CBabelClient@@QAEHXZ 1002a5f0 f   BabelClientC2e:BabelClient.obj
 0001:00029600       ?GetUser@CBabelClient@@QAE?AVB_UIN@@XZ 1002a600 f   BabelClientC2e:BabelClient.obj
 0001:00029620       ?CancelTickets@CBabelClient@@QAEXXZ 1002a620 f   BabelClientC2e:BabelClient.obj
 0001:00029710       ?Disconnect@CBabelClient@@QAEHXZ 1002a710 f   BabelClientC2e:BabelClient.obj
 0001:00029870       ?AddWWREntry@CBabelClient@@QAEHABVB_UIN@@@Z 1002a870 f   BabelClientC2e:BabelClient.obj
 0001:000298c0       ?RemoveWWREntry@CBabelClient@@QAEHABVB_UIN@@@Z 1002a8c0 f   BabelClientC2e:BabelClient.obj
 0001:00029910       ?SendBinaryMessage@CBabelClient@@QAEHPAXHAAVB_UIN@@_N@Z 1002a910 f   BabelClientC2e:BabelClient.obj
 0001:00029a80       ?SendMessageA@CBabelClient@@AAEHPAXH@Z 1002aa80 f   BabelClientC2e:BabelClient.obj
 0001:00029aa0       ?Connect@CBabelClient@@QAEHPBD0_N@Z 1002aaa0 f   BabelClientC2e:BabelClient.obj
 0001:00029cf0       ?Connect@CBabelClient@@QAEH_N@Z 1002acf0 f   BabelClientC2e:BabelClient.obj
 0001:00029ea0       ?Connect@CBabelClient@@QAEHPBD00H_N1@Z 1002aea0 f   BabelClientC2e:BabelClient.obj
 0001:00029fe0       ?Connect@CBabelClient@@QAEHPBDH_N1@Z 1002afe0 f   BabelClientC2e:BabelClient.obj
 0001:0002a060       ?Connectx@CBabelClient@@AAEHPBDH_N1PAXH@Z 1002b060 f   BabelClientC2e:BabelClient.obj
 0001:0002a600       ?AbortConnectionAttempt@CBabelClient@@QAEXXZ 1002b600 f   BabelClientC2e:BabelClient.obj
 0001:0002a610       ?WaitForTicket@CBabelTransactionTicket@@QAEPAXXZ 1002b610 f   BabelClientC2e:BabelClient.obj
 0001:0002a640       ?SignalTicket@CBabelTransactionTicket@@QAEXXZ 1002b640 f   BabelClientC2e:BabelClient.obj
 0001:0002a650       ?SignalTicket@CBabelTransactionTicket@@QAEXPAVC_TID_BASE@@PAVCBabelDConnection@@@Z 1002b650 f   BabelClientC2e:BabelClient.obj
 0001:0002a6c0       ?NotifyListeningPort@CBabelClient@@QAEXH@Z 1002b6c0 f   BabelClientC2e:BabelClient.obj
 0001:0002a710       ?GetConnectionDetail@CBabelClient@@QAE_NABVB_UIN@@PAKPAHPAG_N@Z 1002b710 f   BabelClientC2e:BabelClient.obj
 0001:0002a850       ?GetClientInfo@CBabelClient@@QAEPAVCBabelShortUserDataObject@@ABVB_UIN@@_N@Z 1002b850 f   BabelClientC2e:BabelClient.obj
 0001:0002aa60       ?SetPeerListener@CBabelClient@@QAEHPAVCBabelConnection@@@Z 1002ba60 f   BabelClientC2e:BabelClient.obj
 0001:0002aa70       ?CloseIChannel@CBabelClient@@QAEXXZ 1002ba70 f   BabelClientC2e:BabelClient.obj
 0001:0002ab10       ?CheckUserOnline@CBabelClient@@QAE_NABVB_UIN@@_N@Z 1002bb10 f   BabelClientC2e:BabelClient.obj
 0001:0002ab60       ?ConnectToPeer@CBabelClient@@QAE_NAAVB_UIN@@PAVCBabelConnection@@@Z 1002bb60 f   BabelClientC2e:BabelClient.obj
 0001:0002ac20       ?GetStatus@CBabelClient@@QAEPAVC_BABEL_STATUS@@XZ 1002bc20 f   BabelClientC2e:BabelClient.obj
 0001:0002ad60       ?ClientMessage@CBabelClient@@QAEXIHH@Z 1002bd60 f   BabelClientC2e:BabelClient.obj
 0001:0002ad90       ?ConnectionLost@CBabelClient@@QAEXXZ 1002bd90 f   BabelClientC2e:BabelClient.obj
 0001:0002ae80       ?AddUserOnline@CBabelClient@@QAEXAAVB_UIN@@@Z 1002be80 f   BabelClientC2e:BabelClient.obj
 0001:0002b050       ?RemoveUserOnline@CBabelClient@@QAEXAAVB_UIN@@@Z 1002c050 f   BabelClientC2e:BabelClient.obj
 0001:0002b0e0       ?CheckConnectedToInternet@CBabelClient@@AAE_NXZ 1002c0e0 f   BabelClientC2e:BabelClient.obj
 0001:0002b120       ?AddTransactionTicket@CBabelClient@@QAEXPAVCBabelTransactionTicket@@@Z 1002c120 f   BabelClientC2e:BabelClient.obj
 0001:0002b1d0       ?TicketDispatch@CBabelClient@@QAEXPAVC_TID_BASE@@PAVCBabelDConnection@@@Z 1002c1d0 f   BabelClientC2e:BabelClient.obj
 0001:0002b320       ??1CBabelCritSect@@QAE@XZ  1002c320 f i BabelClientC2e:BabelClient.obj
 0001:0002b340       ??0CBabelAsyncCore@@QAE@XZ 1002c340 f i BabelClientC2e:BabelClient.obj
 0001:0002b390       ?Readable@CBabelAsyncCore@@UAE_NXZ 1002c390 f i BabelClientC2e:BabelClient.obj
 0001:0002b3b0       ?Writable@CBabelAsyncCore@@UAE_NXZ 1002c3b0 f i BabelClientC2e:BabelClient.obj
 0001:0002b3d0       ?Handle_Error@CBabelAsyncCore@@MAEXH@Z 1002c3d0 f i BabelClientC2e:BabelClient.obj
 0001:0002b3d0       ?AcceptCore@CBabelConnection@@UAEXPAVCBabelSocket@@@Z 1002c3d0 f i BabelClientC2e:BabelClient.obj
 0001:0002b3d0       ?Update@ModuleInterface@@UAEXH@Z 1002c3d0 f i BabelClientC2e:BabelClient.obj
 0001:0002b3e0       ??_ECBabelAsyncCore@@UAEPAXI@Z 1002c3e0 f i BabelClientC2e:BabelClient.obj
 0001:0002b3e0       ??_GCBabelAsyncCore@@UAEPAXI@Z 1002c3e0 f i BabelClientC2e:BabelClient.obj
 0001:0002b410       ?size@?$vector@VB_UIN@@V?$allocator@VB_UIN@@@std@@@std@@QBEIXZ 1002c410 f i BabelClientC2e:BabelClient.obj
 0001:0002b430       ??1?$vector@PAMV?$allocator@PAM@std@@@std@@QAE@XZ 1002c430 f i BabelClientC2e:BabelClient.obj
 0001:0002b430       ??1?$vector@HV?$allocator@H@std@@@std@@QAE@XZ 1002c430 f i BabelClientC2e:BabelClient.obj
 0001:0002b430       ??1?$vector@EV?$allocator@E@std@@@std@@QAE@XZ 1002c430 f i BabelClientC2e:BabelClient.obj
 0001:0002b430       ??1?$vector@KV?$allocator@K@std@@@std@@QAE@XZ 1002c430 f i BabelClientC2e:BabelClient.obj
 0001:0002b430       ??1?$vector@PAVCBabelTransactionTicket@@V?$allocator@PAVCBabelTransactionTicket@@@std@@@std@@QAE@XZ 1002c430 f i BabelClientC2e:BabelClient.obj
 0001:0002b430       ??1?$vector@PAVCBabelShortUserDataObject@@V?$allocator@PAVCBabelShortUserDataObject@@@std@@@std@@QAE@XZ 1002c430 f i BabelClientC2e:BabelClient.obj
 0001:0002b430       ??1?$vector@PAVCBabelVirtualSocket@@V?$allocator@PAVCBabelVirtualSocket@@@std@@@std@@QAE@XZ 1002c430 f i BabelClientC2e:BabelClient.obj
 0001:0002b430       ??1?$vector@PAVCBabelRemoteSwitch@@V?$allocator@PAVCBabelRemoteSwitch@@@std@@@std@@QAE@XZ 1002c430 f i BabelClientC2e:BabelClient.obj
 0001:0002b430       ??1?$vector@VB_UIN@@V?$allocator@VB_UIN@@@std@@@std@@QAE@XZ 1002c430 f i BabelClientC2e:BabelClient.obj
 0001:0002b430       ??1?$vector@UInputEvent@@V?$allocator@UInputEvent@@@std@@@std@@QAE@XZ 1002c430 f i BabelClientC2e:BabelClient.obj
 0001:0002b430       ??1?$vector@PAVCBabelAsyncCore@@V?$allocator@PAVCBabelAsyncCore@@@std@@@std@@QAE@XZ 1002c430 f i BabelClientC2e:BabelClient.obj
 0001:0002b430       ??1?$vector@PAVCBabelConnection@@V?$allocator@PAVCBabelConnection@@@std@@@std@@QAE@XZ 1002c430 f i BabelClientC2e:BabelClient.obj
 0001:0002b430       ??1?$vector@PAVCBabelMessage@@V?$allocator@PAVCBabelMessage@@@std@@@std@@QAE@XZ 1002c430 f i BabelClientC2e:BabelClient.obj
 0001:0002b430       ??1?$vector@W4MessageType@NetMessages@@V?$allocator@W4MessageType@NetMessages@@@std@@@std@@QAE@XZ 1002c430 f i BabelClientC2e:BabelClient.obj
 0001:0002b430       ??1?$vector@PAVPersistentObject@@V?$allocator@PAVPersistentObject@@@std@@@std@@QAE@XZ 1002c430 f i BabelClientC2e:BabelClient.obj
 0001:0002b460       ??0CBabelServerInfo@@QAE@V?$basic_string@DU?$char_traits@D@std@@V?$allocator@D@2@@std@@0HH@Z 1002c460 f i BabelClientC2e:BabelClient.obj
 0001:0002b560       ??0B_UIN@@QAE@XZ           1002c560 f i BabelClientC2e:BabelClient.obj
 0001:0002b570       ??1CBabelSocket@@UAE@XZ    1002c570 f i BabelClientC2e:BabelClient.obj
 0001:0002b580       ?H@CBabelSocket@@UBEIXZ    1002c580 f i BabelClientC2e:BabelClient.obj
 0001:0002b580       ?BytesReady@CBabelSocket@@UAEKXZ 1002c580 f i BabelClientC2e:BabelClient.obj
 0001:0002b590       ?Accept@CBabelSocket@@UAEIXZ 1002c590 f i BabelClientC2e:BabelClient.obj
 0001:0002b5a0       ??_GCBabelSocket@@UAEPAXI@Z 1002c5a0 f i BabelClientC2e:BabelClient.obj
 0001:0002b5a0       ??_ECBabelSocket@@UAEPAXI@Z 1002c5a0 f i BabelClientC2e:BabelClient.obj
 0001:0002b5d0       ??1CBabelMessage@@UAE@XZ   1002c5d0 f i BabelClientC2e:BabelClient.obj
 0001:0002b600       ??_GCBabelMessage@@UAEPAXI@Z 1002c600 f i BabelClientC2e:BabelClient.obj
 0001:0002b600       ??_ECBabelMessage@@UAEPAXI@Z 1002c600 f i BabelClientC2e:BabelClient.obj
 0001:0002b640       ??1CBabelDConnection@@UAE@XZ 1002c640 f i BabelClientC2e:BabelClient.obj
 0001:0002b6c0       ??_ECBabelDConnection@@UAEPAXI@Z 1002c6c0 f i BabelClientC2e:BabelClient.obj
 0001:0002b6c0       ??_GCBabelDConnection@@UAEPAXI@Z 1002c6c0 f i BabelClientC2e:BabelClient.obj
 0001:0002b6f0       ??_GCBabelDHandle@@UAEPAXI@Z 1002c6f0 f i BabelClientC2e:BabelClient.obj
 0001:0002b6f0       ??_ECBabelDHandle@@UAEPAXI@Z 1002c6f0 f i BabelClientC2e:BabelClient.obj
 0001:0002b720       ??1CBabelDHandle@@UAE@XZ   1002c720 f i BabelClientC2e:BabelClient.obj
 0001:0002b790       ?_Destroy@?$vector@VCBabelServerInfo@@V?$allocator@VCBabelServerInfo@@@std@@@std@@IAEXPAVCBabelServerInfo@@0@Z 1002c790 f i BabelClientC2e:BabelClient.obj
 0001:0002b7c0       ?insert@?$vector@PAVCBabelConnection@@V?$allocator@PAVCBabelConnection@@@std@@@std@@QAEXPAPAVCBabelConnection@@IABQAV3@@Z 1002c7c0 f i BabelClientC2e:BabelClient.obj
 0001:0002b9d0       ?_Ucopy@?$vector@VB_UIN@@V?$allocator@VB_UIN@@@std@@@std@@IAEPAVB_UIN@@PBV3@0PAV3@@Z 1002c9d0 f i BabelClientC2e:BabelClient.obj
 0001:0002ba10       ?_Ufill@?$vector@VB_UIN@@V?$allocator@VB_UIN@@@std@@@std@@IAEXPAVB_UIN@@IABV3@@Z 1002ca10 f i BabelClientC2e:BabelClient.obj
 0001:0002ba40       ?_Construct@std@@YAXPAVB_UIN@@ABV2@@Z 1002ca40 f i BabelClientC2e:BabelClient.obj
 0001:0002ba70       ?_Random_shuffle@std@@YAXPAVCBabelServerInfo@@0PAH@Z 1002ca70 f i BabelClientC2e:BabelClient.obj
 0001:0002bae0       ?_Iter_swap@std@@YAXPAVCBabelServerInfo@@00@Z 1002cae0 f i BabelClientC2e:BabelClient.obj
 0001:0002bc50       ??_ECBabelDConnection@@WDM@AEPAXI@Z 1002cc50 f i BabelClientC2e:BabelClient.obj
 0001:0002bc60       ?SetMessage@CBabelMessage@@UAEXPAV?$basic_string@DU?$char_traits@D@std@@V?$allocator@D@2@@std@@AAVB_UIN@@@Z 1002cc60 f   BabelClientC2e:BabelUserDataObject.obj
 0001:0002bc90       ?SetMessage@CBabelMessage@@UAEXPBDAAVB_UIN@@@Z 1002cc90 f   BabelClientC2e:BabelUserDataObject.obj
 0001:0002bcb0       ?SetMessage@CBabelMessage@@UAEXPAXHVB_UIN@@_N@Z 1002ccb0 f   BabelClientC2e:BabelUserDataObject.obj
 0001:0002bcd0       ?SetMessage@CBabelMessage@@AAEXPAXHGK_N@Z 1002ccd0 f   BabelClientC2e:BabelUserDataObject.obj
 0001:0002bd40       ?SetMessage@CBabelMessage@@AAEXPBDGK@Z 1002cd40 f   BabelClientC2e:BabelUserDataObject.obj
 0001:0002bdb0       ?NullMessageData@CBabelMessage@@AAEXXZ 1002cdb0 f   BabelClientC2e:BabelUserDataObject.obj
 0001:0002bde0       ?Pack@CBabelMessage@@QAEHPAPAX@Z 1002cde0 f   BabelClientC2e:BabelUserDataObject.obj
 0001:0002be80       ?Unpack@CBabelMessage@@QAEXPAX@Z 1002ce80 f   BabelClientC2e:BabelUserDataObject.obj
 0001:0002bf30       ?Unpack@CBabelShortUserDataObject@@QAEXPAX@Z 1002cf30 f   BabelClientC2e:BabelUserDataObject.obj
 0001:0002c110       ?FirstName@CBabelShortUserDataObject@@UAEPBDXZ 1002d110 f i BabelClientC2e:BabelUserDataObject.obj
 0001:0002c110       ?what@BasicException@@UBEPBDXZ 1002d110 f i BabelClientC2e:BabelUserDataObject.obj
 0001:0002c180       ??1?$map@HPAVCBabelAsyncCore@@U?$less@H@std@@V?$allocator@PAVCBabelAsyncCore@@@3@@std@@QAE@XZ 1002d180 f i BabelClientC2e:BabelAsyncCore.obj
 0001:0002c440       ??0CBabelAsyncCoreChild@@QAE@PAVCBabelAsyncCore@@@Z 1002d440 f   BabelClientC2e:BabelAsyncCore.obj
 0001:0002c4f0       ??1CBabelAsyncCoreChild@@QAE@XZ 1002d4f0 f   BabelClientC2e:BabelAsyncCore.obj
 0001:0002c5b0       ?Resume@CBabelAsyncCoreChild@@QAEXXZ 1002d5b0 f   BabelClientC2e:BabelAsyncCore.obj
 0001:0002c5c0       ?Remove@CBabelAsyncCoreChild@@QAE_NPAVCBabelAsyncCore@@@Z 1002d5c0 f   BabelClientC2e:BabelAsyncCore.obj
 0001:0002c6a0       ?Add@CBabelAsyncCoreChild@@QAE_NPAVCBabelAsyncCore@@@Z 1002d6a0 f   BabelClientC2e:BabelAsyncCore.obj
 0001:0002c770       ?ThreadCore@CBabelAsyncCoreChild@@AAEXXZ 1002d770 f   BabelClientC2e:BabelAsyncCore.obj
 0001:0002cbc0       ?SuckData@CBabelAsyncCore@@QAE_NXZ 1002dbc0 f   BabelClientC2e:BabelAsyncCore.obj
 0001:0002cbd0       ?SuckData@CBabelAsyncCore@@SA_NI@Z 1002dbd0 f   BabelClientC2e:BabelAsyncCore.obj
 0001:0002cc30       ??1CBabelAsyncCore@@UAE@XZ 1002dc30 f   BabelClientC2e:BabelAsyncCore.obj
 0001:0002cd00       ?AddChannel@CBabelAsyncCore@@IAEXXZ 1002dd00 f   BabelClientC2e:BabelAsyncCore.obj
 0001:0002cdd0       ?AddChild@CBabelAsyncCore@@AAE_NXZ 1002ddd0 f   BabelClientC2e:BabelAsyncCore.obj
 0001:0002d050       ?Searching@CBabelAsyncCore@@AAE_NH@Z 1002e050 f   BabelClientC2e:BabelAsyncCore.obj
 0001:0002d1e0       ?MarkChannelForDeletion@CBabelAsyncCore@@AAEXXZ 1002e1e0 f   BabelClientC2e:BabelAsyncCore.obj
 0001:0002d280       ?SetSocket@CBabelAsyncCore@@QAEXH_N@Z 1002e280 f   BabelClientC2e:BabelAsyncCore.obj
 0001:0002d2a0       ?connect@CBabelAsyncCore@@QAEHPAUsockaddr@@I@Z 1002e2a0 f   BabelClientC2e:BabelAsyncCore.obj
 0001:0002d2f0       ?Connect@CBabelAsyncCore@@QAE_NPBDH@Z 1002e2f0 f   BabelClientC2e:BabelAsyncCore.obj
 0001:0002d3e0       ?send@CBabelAsyncCore@@QAEHPBDIH@Z 1002e3e0 f   BabelClientC2e:BabelAsyncCore.obj
 0001:0002d480       ?recv@CBabelAsyncCore@@QAEHPADIH@Z 1002e480 f   BabelClientC2e:BabelAsyncCore.obj
 0001:0002d540       ?close@CBabelAsyncCore@@QAEXXZ 1002e540 f   BabelClientC2e:BabelAsyncCore.obj
 0001:0002d560       ?Handle_Accept@CBabelAsyncCore@@MAEXXZ 1002e560 f   BabelClientC2e:BabelAsyncCore.obj
 0001:0002d580       ?Handle_ReadEvent@CBabelAsyncCore@@IAEXXZ 1002e580 f   BabelClientC2e:BabelAsyncCore.obj
 0001:0002d5d0       ?Handle_WriteEvent@CBabelAsyncCore@@IAEXXZ 1002e5d0 f   BabelClientC2e:BabelAsyncCore.obj
 0001:0002d5f0       ?DeleteClosedChannels@CBabelAsyncCore@@SAXXZ 1002e5f0 f   BabelClientC2e:BabelAsyncCore.obj
 0001:0002d7c0       ?Loop@CBabelAsyncCore@@SAXPAUtimeval@@@Z 1002e7c0 f   BabelClientC2e:BabelAsyncCore.obj
 0001:0002d7f0       ?WorkerThread@CBabelAsyncCore@@AAEXXZ 1002e7f0 f   BabelClientC2e:BabelAsyncCore.obj
 0001:0002d810       ?StartThread@CBabelAsyncCore@@QAE_NXZ 1002e810 f   BabelClientC2e:BabelAsyncCore.obj
 0001:0002d870       ??0?$map@PAVCBabelClient@@PAVNetManager@@U?$less@PAVCBabelClient@@@std@@V?$allocator@PAVNetManager@@@4@@std@@QAE@ABU?$less@PAVCBabelClient@@@1@ABV?$allocator@PAVNetManager@@@1@@Z 1002e870 f i BabelClientC2e:BabelAsyncCore.obj
 0001:0002d870       ??0?$map@HPAVCBabelAsyncCore@@U?$less@H@std@@V?$allocator@PAVCBabelAsyncCore@@@3@@std@@QAE@ABU?$less@H@1@ABV?$allocator@PAVCBabelAsyncCore@@@1@@Z 1002e870 f i BabelClientC2e:BabelAsyncCore.obj
 0001:0002d8e0       ?_Destroy@?$vector@HV?$allocator@H@std@@@std@@IAEXPAH0@Z 1002e8e0 f i BabelClientC2e:BabelAsyncCore.obj
 0001:0002d8e0       ?_Destroy@?$vector@EV?$allocator@E@std@@@std@@IAEXPAE0@Z 1002e8e0 f i BabelClientC2e:BabelAsyncCore.obj
 0001:0002d8e0       ?_Destroy@?$vector@W4MessageType@NetMessages@@V?$allocator@W4MessageType@NetMessages@@@std@@@std@@IAEXPAW4MessageType@NetMessages@@0@Z 1002e8e0 f i BabelClientC2e:BabelAsyncCore.obj
 0001:0002d8e0       ?_Destroy@?$vector@DV?$allocator@D@std@@@std@@IAEXPAD0@Z 1002e8e0 f i BabelClientC2e:BabelAsyncCore.obj
 0001:0002d8e0       ?_Destroy@?$vector@PAVCBabelAsyncCoreChild@@V?$allocator@PAVCBabelAsyncCoreChild@@@std@@@std@@IAEXPAPAVCBabelAsyncCoreChild@@0@Z 1002e8e0 f i BabelClientC2e:BabelAsyncCore.obj
 0001:0002d8e0       ?_Destroy@?$vector@PAVCBabelRemoteSwitch@@V?$allocator@PAVCBabelRemoteSwitch@@@std@@@std@@IAEXPAPAVCBabelRemoteSwitch@@0@Z 1002e8e0 f i BabelClientC2e:BabelAsyncCore.obj
 0001:0002d8e0       ?_Destroy@?$vector@PAVPersistentObject@@V?$allocator@PAVPersistentObject@@@std@@@std@@IAEXPAPAVPersistentObject@@0@Z 1002e8e0 f i BabelClientC2e:BabelAsyncCore.obj
 0001:0002d8e0       ?_Destroy@?$vector@PAMV?$allocator@PAM@std@@@std@@IAEXPAPAM0@Z 1002e8e0 f i BabelClientC2e:BabelAsyncCore.obj
 0001:0002d8e0       ?_Destroy@?$vector@PAVCBabelVirtualSocket@@V?$allocator@PAVCBabelVirtualSocket@@@std@@@std@@IAEXPAPAVCBabelVirtualSocket@@0@Z 1002e8e0 f i BabelClientC2e:BabelAsyncCore.obj
 0001:0002d8f0       ?insert@?$map@HPAVCBabelAsyncCore@@U?$less@H@std@@V?$allocator@PAVCBabelAsyncCore@@@3@@std@@QAE?AU?$pair@Viterator@?$_Tree@HU?$pair@$$CBHPAVCBabelAsyncCore@@@std@@U_Kfn@?$map@HPAVCBabelAsyncCore@@U?$less@H@std@@V?$allocator@PAVCBabelAsyncCore@@@3@@2@U?$less@H@2@V?$allocator@PAVCBabelAsyncCore@@@2@@std@@_N@2@ABU?$pair@$$CBHPAVCBabelAsyncCore@@@2@@Z 1002e8f0 f i BabelClientC2e:BabelAsyncCore.obj
 0001:0002d9d0       ??0?$_Tree@HU?$pair@$$CBHPAVCBabelAsyncCore@@@std@@U_Kfn@?$map@HPAVCBabelAsyncCore@@U?$less@H@std@@V?$allocator@PAVCBabelAsyncCore@@@3@@2@U?$less@H@2@V?$allocator@PAVCBabelAsyncCore@@@2@@std@@QAE@ABU?$less@H@1@_NABV?$allocator@PAVCBabelAsyncCore@@@1@@Z 1002e9d0 f i BabelClientC2e:BabelAsyncCore.obj
 0001:0002da40       ?erase@?$_Tree@HU?$pair@$$CBHPAVCBabelAsyncCore@@@std@@U_Kfn@?$map@HPAVCBabelAsyncCore@@U?$less@H@std@@V?$allocator@PAVCBabelAsyncCore@@@3@@2@U?$less@H@2@V?$allocator@PAVCBabelAsyncCore@@@2@@std@@QAE?AViterator@12@V312@0@Z 1002ea40 f i BabelClientC2e:BabelAsyncCore.obj
 0001:0002daf0       ?equal_range@?$_Tree@HU?$pair@$$CBHPAVCBabelAsyncCore@@@std@@U_Kfn@?$map@HPAVCBabelAsyncCore@@U?$less@H@std@@V?$allocator@PAVCBabelAsyncCore@@@3@@2@U?$less@H@2@V?$allocator@PAVCBabelAsyncCore@@@2@@std@@QAE?AU?$pair@Viterator@?$_Tree@HU?$pair@$$CBHPAVCBabelAsyncCore@@@std@@U_Kfn@?$map@HPAVCBabelAsyncCore@@U?$less@H@std@@V?$allocator@PAVCBabelAsyncCore@@@3@@2@U?$less@H@2@V?$allocator@PAVCBabelAsyncCore@@@2@@std@@V123@@2@ABH@Z 1002eaf0 f i BabelClientC2e:BabelAsyncCore.obj
 0001:0002db50       ?_Erase@?$_Tree@HU?$pair@$$CBHPAVCBabelAsyncCore@@@std@@U_Kfn@?$map@HPAVCBabelAsyncCore@@U?$less@H@std@@V?$allocator@PAVCBabelAsyncCore@@@3@@2@U?$less@H@2@V?$allocator@PAVCBabelAsyncCore@@@2@@std@@IAEXPAU_Node@12@@Z 1002eb50 f i BabelClientC2e:BabelAsyncCore.obj
 0001:0002db90       ?lower_bound@?$_Tree@HU?$pair@$$CBHPAVCBabelAsyncCore@@@std@@U_Kfn@?$map@HPAVCBabelAsyncCore@@U?$less@H@std@@V?$allocator@PAVCBabelAsyncCore@@@3@@2@U?$less@H@2@V?$allocator@PAVCBabelAsyncCore@@@2@@std@@QAE?AViterator@12@ABH@Z 1002eb90 f i BabelClientC2e:BabelAsyncCore.obj
 0001:0002dbd0       ?upper_bound@?$_Tree@HU?$pair@$$CBHPAVCBabelAsyncCore@@@std@@U_Kfn@?$map@HPAVCBabelAsyncCore@@U?$less@H@std@@V?$allocator@PAVCBabelAsyncCore@@@3@@2@U?$less@H@2@V?$allocator@PAVCBabelAsyncCore@@@2@@std@@QAE?AViterator@12@ABH@Z 1002ebd0 f i BabelClientC2e:BabelAsyncCore.obj
 0001:0002dc10       ?_Insert@?$_Tree@HU?$pair@$$CBHPAVCBabelAsyncCore@@@std@@U_Kfn@?$map@HPAVCBabelAsyncCore@@U?$less@H@std@@V?$allocator@PAVCBabelAsyncCore@@@3@@2@U?$less@H@2@V?$allocator@PAVCBabelAsyncCore@@@2@@std@@IAE?AViterator@12@PAU_Node@12@0ABU?$pair@$$CBHPAVCBabelAsyncCore@@@2@@Z 1002ec10 f i BabelClientC2e:BabelAsyncCore.obj
 0001:0002de50       ??1?$BabelThread@VCBabelAsyncCore@@@@QAE@XZ 1002ee50 f i BabelClientC2e:BabelAsyncCore.obj
 0001:0002de50       ??1?$BabelThread@VCBabelAsyncCoreChild@@@@QAE@XZ 1002ee50 f i BabelClientC2e:BabelAsyncCore.obj
 0001:0002dea0       ?_Distance@std@@YAXViterator@?$_Tree@HU?$pair@$$CBHPAVCBabelAsyncCore@@@std@@U_Kfn@?$map@HPAVCBabelAsyncCore@@U?$less@H@std@@V?$allocator@PAVCBabelAsyncCore@@@3@@2@U?$less@H@2@V?$allocator@PAVCBabelAsyncCore@@@2@@1@0AAI@Z 1002eea0 f i BabelClientC2e:BabelAsyncCore.obj
 0001:0002df00       ?InitialiseCriticalBlock@SystemThread@@SAHPAU_RTL_CRITICAL_SECTION@@@Z 1002ef00 f   BabelClientC2e:BabelSystemThread.obj
 0001:0002df20       ?EnterCriticalBlock@SystemThread@@SAHPAU_RTL_CRITICAL_SECTION@@@Z 1002ef20 f   BabelClientC2e:BabelSystemThread.obj
 0001:0002df40       ?LeaveCriticalBlock@SystemThread@@SAHPAU_RTL_CRITICAL_SECTION@@@Z 1002ef40 f   BabelClientC2e:BabelSystemThread.obj
 0001:0002df60       ?DeleteCriticalBlock@SystemThread@@SAHPAU_RTL_CRITICAL_SECTION@@@Z 1002ef60 f   BabelClientC2e:BabelSystemThread.obj
 0001:0002df80       ?remove@CBabelConnection@@QAEXXZ 1002ef80 f   BabelClientC2e:BabelConnection.obj
 0001:0002e000       ?Add@CBabelConnection@@QAEXXZ 1002f000 f   BabelClientC2e:BabelConnection.obj
 0001:0002e090       ?CloseSocket@SystemSocket@@SAHI@Z 1002f090 f   BabelClientC2e:BabelSystemSocket.obj
 0001:0002e0a0       ?GetLastError@SystemSocket@@SAHXZ 1002f0a0 f   BabelClientC2e:BabelSystemSocket.obj
 0001:0002e0b0       ?SetLastError@SystemSocket@@SAXH@Z 1002f0b0 f   BabelClientC2e:BabelSystemSocket.obj
 0001:0002e0c0       ?Ioctl@SystemSocket@@SAHIJPAK@Z 1002f0c0 f   BabelClientC2e:BabelSystemSocket.obj
 0001:0002e0e0       ?SetIPAddress@SystemSocket@@SAXAAUin_addr@@H@Z 1002f0e0 f   BabelClientC2e:BabelSystemSocket.obj
 0001:0002e0f0       ??0CBabelVirtualSocket@@QAE@PAVCBabelClient@@@Z 1002f0f0 f   BabelClientC2e:BabelVirtualSocket.obj
 0001:0002e2f0       ??_GCBabelVirtualSocket@@UAEPAXI@Z 1002f2f0 f i BabelClientC2e:BabelVirtualSocket.obj
 0001:0002e2f0       ??_ECBabelVirtualSocket@@UAEPAXI@Z 1002f2f0 f i BabelClientC2e:BabelVirtualSocket.obj
 0001:0002e320       ??1CBabelVirtualSocket@@UAE@XZ 1002f320 f   BabelClientC2e:BabelVirtualSocket.obj
 0001:0002e3f0       ?Connect@CBabelVirtualSocket@@QAEXPAVC_TID_VIRTUAL_CONNECT@@@Z 1002f3f0 f   BabelClientC2e:BabelVirtualSocket.obj
 0001:0002e480       ?Connect@CBabelVirtualSocket@@QAE_NAAVB_UIN@@@Z 1002f480 f   BabelClientC2e:BabelVirtualSocket.obj
 0001:0002e530       ?DataIn@CBabelVirtualSocket@@QAEXPAXI@Z 1002f530 f   BabelClientC2e:BabelVirtualSocket.obj
 0001:0002e600       ?DataOut@CBabelVirtualSocket@@QAEXPAXI@Z 1002f600 f   BabelClientC2e:BabelVirtualSocket.obj
 0001:0002e6a0       ?Read@CBabelVirtualSocket@@UAEHPAXH@Z 1002f6a0 f   BabelClientC2e:BabelVirtualSocket.obj
 0001:0002e6c0       ?Write@CBabelVirtualSocket@@UAEHPBXH@Z 1002f6c0 f   BabelClientC2e:BabelVirtualSocket.obj
 0001:0002e790       ?H@CBabelVirtualSocket@@UBEIXZ 1002f790 f i BabelClientC2e:BabelVirtualSocket.obj
 0001:0002e7a0       ?_Construct@std@@YAXPAPAVCBabelAsyncCoreChild@@ABQAV2@@Z 1002f7a0 f i BabelClientC2e:BabelVirtualSocket.obj
 0001:0002e7a0       ?_Construct@std@@YAXPAPAVCBabelVirtualSocket@@ABQAV2@@Z 1002f7a0 f i BabelClientC2e:BabelVirtualSocket.obj
 0001:0002e7a0       ?_Construct@std@@YAXPAHABH@Z 1002f7a0 f i BabelClientC2e:BabelVirtualSocket.obj
 0001:0002e7a0       ?_Construct@std@@YAXPAPAMABQAM@Z 1002f7a0 f i BabelClientC2e:BabelVirtualSocket.obj
 0001:0002e7c0       ?BytesReady@CBabelSyncSocket@@UAEKXZ 1002f7c0 f   BabelClientC2e:BabelRawSocket.obj
 0001:0002e800       ?Init@CBabelSyncSocket@@IAEXI@Z 1002f800 f   BabelClientC2e:BabelRawSocket.obj
 0001:0002e810       ?Close@CBabelSyncSocket@@UAEXXZ 1002f810 f   BabelClientC2e:BabelRawSocket.obj
 0001:0002e870       ??0CBabelSyncSocket@@QAE@I@Z 1002f870 f   BabelClientC2e:BabelRawSocket.obj
 0001:0002e890       ??_ECBabelSyncSocket@@UAEPAXI@Z 1002f890 f i BabelClientC2e:BabelRawSocket.obj
 0001:0002e890       ??_GCBabelSyncSocket@@UAEPAXI@Z 1002f890 f i BabelClientC2e:BabelRawSocket.obj
 0001:0002e8c0       ??1CBabelSyncSocket@@UAE@XZ 1002f8c0 f   BabelClientC2e:BabelRawSocket.obj
 0001:0002e910       ?Accept@CBabelSyncSocket@@UAEIXZ 1002f910 f   BabelClientC2e:BabelRawSocket.obj
 0001:0002e920       ?Connect@CBabelSyncSocket@@QAE_NPBDI@Z 1002f920 f   BabelClientC2e:BabelRawSocket.obj
 0001:0002ea00       ?Read@CBabelReadWriteSocket@@UAEHPAXH@Z 1002fa00 f   BabelClientC2e:BabelRawSocket.obj
 0001:0002ea70       ?Write@CBabelReadWriteSocket@@UAEHPBXH@Z 1002fa70 f   BabelClientC2e:BabelRawSocket.obj
 0001:0002ead0       ?Handle@CBabelDConnection@@QAEXXZ 1002fad0 f   BabelClientC2e:BabelDConnection.obj
 0001:0002ecd0       ?Migrate@CBabelDConnection@@AAEXPAVC_TID_BASE@@@Z 1002fcd0 f   BabelClientC2e:BabelDConnection.obj
 0001:0002ed50       ?TicketDispatch@CBabelDConnection@@AAEXPAVC_TID_BASE@@@Z 1002fd50 f   BabelClientC2e:BabelDConnection.obj
 0001:0002ed70       ?UserOnline@CBabelDConnection@@AAEXPAVC_TID_BASE@@@Z 1002fd70 f   BabelClientC2e:BabelDConnection.obj
 0001:0002ee30       ?UserOffline@CBabelDConnection@@AAEXPAVC_TID_BASE@@@Z 1002fe30 f   BabelClientC2e:BabelDConnection.obj
 0001:0002eef0       ?MessageDispatch@CBabelDConnection@@AAEXPAVC_TID_BASE@@@Z 1002fef0 f   BabelClientC2e:BabelDConnection.obj
 0001:0002efc0       ?ClientClientCommand@CBabelDConnection@@AAEXPAVC_TID_BASE@@@Z 1002ffc0 f   BabelClientC2e:BabelDConnection.obj
 0001:0002f0a0       ?OnlineChange@CBabelDConnection@@AAEXPAVC_TID_BASE@@@Z 100300a0 f   BabelClientC2e:BabelDConnection.obj
 0001:0002f0f0       ?VirtualCircuitClose@CBabelDConnection@@AAEXPAVC_TID_BASE@@@Z 100300f0 f   BabelClientC2e:BabelDConnection.obj
 0001:0002f1c0       ?VirtualCircuitConnect@CBabelDConnection@@AAEXPAVC_TID_BASE@@@Z 100301c0 f   BabelClientC2e:BabelDConnection.obj
 0001:0002f270       ?VirtualCircuit@CBabelDConnection@@AAEXPAVC_TID_BASE@@@Z 10030270 f   BabelClientC2e:BabelDConnection.obj
 0001:0002f3f0       ?Read@CBabelDConnection@@QAEXXZ 100303f0 f   BabelClientC2e:BabelDConnection.obj
 0001:0002f430       ?Handle_Close@CBabelDConnection@@UAEXXZ 10030430 f   BabelClientC2e:BabelDConnection.obj
 0001:0002f450       ?Close@CBabelDConnection@@UAEXXZ 10030450 f   BabelClientC2e:BabelDConnection.obj
 0001:0002f460       ?Write@CBabelDConnection@@UAEHPBXH@Z 10030460 f   BabelClientC2e:BabelDConnection.obj
 0001:0002f4c0       ?Read@CBabelDConnection@@UAEHPAXH@Z 100304c0 f   BabelClientC2e:BabelDConnection.obj
 0001:0002f520       ?Handle_Read@CBabelDConnection@@MAEXXZ 10030520 f   BabelClientC2e:BabelDConnection.obj
 0001:0002f530       ??0CBabelMigrateConnection@@QAE@PAVCBabelAsyncCore@@@Z 10030530 f   BabelClientC2e:BabelDConnection.obj
 0001:0002f590       ??_ECBabelMigrateConnection@@UAEPAXI@Z 10030590 f i BabelClientC2e:BabelDConnection.obj
 0001:0002f590       ??_GCBabelMigrateConnection@@UAEPAXI@Z 10030590 f i BabelClientC2e:BabelDConnection.obj
 0001:0002f5c0       ?AttemptMigrate@CBabelMigrateConnection@@QAE_NPADHHGK@Z 100305c0 f   BabelClientC2e:BabelDConnection.obj
 0001:0002f7a0       ??1CBabelMigrateConnection@@UAE@XZ 100307a0 f   BabelClientC2e:BabelDConnection.obj
 0001:0002f7b0       ?Handle_Close@CBabelMigrateConnection@@EAEXXZ 100307b0 f   BabelClientC2e:BabelDConnection.obj
 0001:0002f7c0       ?Write@CBabelMigrateConnection@@AAEHPBXH@Z 100307c0 f   BabelClientC2e:BabelDConnection.obj
 0001:0002f820       ?Read@CBabelMigrateConnection@@AAEHPAXH@Z 10030820 f   BabelClientC2e:BabelDConnection.obj
 0001:0002f880       ?Handle_Read@CBabelMigrateConnection@@EAEXXZ 10030880 f   BabelClientC2e:BabelDConnection.obj
 0001:0002f8a0       ?insert@?$_Tree@HU?$pair@$$CBHPAVCBabelAsyncCore@@@std@@U_Kfn@?$map@HPAVCBabelAsyncCore@@U?$less@H@std@@V?$allocator@PAVCBabelAsyncCore@@@3@@2@U?$less@H@2@V?$allocator@PAVCBabelAsyncCore@@@2@@std@@QAE?AU?$pair@Viterator@?$_Tree@HU?$pair@$$CBHPAVCBabelAsyncCore@@@std@@U_Kfn@?$map@HPAVCBabelAsyncCore@@U?$less@H@std@@V?$allocator@PAVCBabelAsyncCore@@@3@@2@U?$less@H@2@V?$allocator@PAVCBabelAsyncCore@@@2@@std@@_N@2@ABU?$pair@$$CBHPAVCBabelAsyncCore@@@2@@Z 100308a0 f i BabelClientC2e:BabelDConnection.obj
 0001:0002faf0       ?insert@?$vector@HV?$allocator@H@std@@@std@@QAEXPAHIABH@Z 10030af0 f i BabelClientC2e:BabelDConnection.obj
 0001:0002faf0       ?insert@?$vector@PAVCBabelTransactionTicket@@V?$allocator@PAVCBabelTransactionTicket@@@std@@@std@@QAEXPAPAVCBabelTransactionTicket@@IABQAV3@@Z 10030af0 f i BabelClientC2e:BabelDConnection.obj
 0001:0002faf0       ?insert@?$vector@PAVCBabelShortUserDataObject@@V?$allocator@PAVCBabelShortUserDataObject@@@std@@@std@@QAEXPAPAVCBabelShortUserDataObject@@IABQAV3@@Z 10030af0 f i BabelClientC2e:BabelDConnection.obj
 0001:0002faf0       ?insert@?$vector@W4MessageType@NetMessages@@V?$allocator@W4MessageType@NetMessages@@@std@@@std@@QAEXPAW4MessageType@NetMessages@@IABW434@@Z 10030af0 f i BabelClientC2e:BabelDConnection.obj
 0001:0002faf0       ?insert@?$vector@PAVCBabelMessage@@V?$allocator@PAVCBabelMessage@@@std@@@std@@QAEXPAPAVCBabelMessage@@IABQAV3@@Z 10030af0 f i BabelClientC2e:BabelDConnection.obj
 0001:0002faf0       ?insert@?$vector@PAVCBabelAsyncCore@@V?$allocator@PAVCBabelAsyncCore@@@std@@@std@@QAEXPAPAVCBabelAsyncCore@@IABQAV3@@Z 10030af0 f i BabelClientC2e:BabelDConnection.obj
 0001:0002fd00       ?IsConnected@CBabelRemoteSwitch@@QAE_NXZ 10030d00 f   BabelClientC2e:BabelRemoteSwitch.obj
 0001:0002fd20       ?UsingLink@CBabelRemoteSwitch@@QAE_NPAVCBabelRadioLink@@@Z 10030d20 f   BabelClientC2e:BabelRemoteSwitch.obj
 0001:0002fd60       ?RemoveLink@CBabelRemoteSwitch@@AAEXPAVCBabelRadioLink@@@Z 10030d60 f   BabelClientC2e:BabelRemoteSwitch.obj
 0001:0002fdc0       ?Disconnected@CBabelRemoteSwitch@@QAE_NPAVCBabelRadioLink@@@Z 10030dc0 f   BabelClientC2e:BabelRemoteSwitch.obj
 0001:0002fed0       ?Disconnect@CBabelRemoteSwitch@@QAEXXZ 10030ed0 f   BabelClientC2e:BabelRemoteSwitch.obj
 0001:0002ff10       ??0CBabelSwitchBox@@QAE@XZ 10030f10 f   BabelClientC2e:BabelRemoteSwitch.obj
 0001:0002ff70       ??1CBabelSwitchBox@@QAE@XZ 10030f70 f   BabelClientC2e:BabelRemoteSwitch.obj
 0001:00030050       ?CheckChannelExists@CBabelSwitchBox@@QAE_NH@Z 10031050 f   BabelClientC2e:BabelRemoteSwitch.obj
 0001:00030070       ?CreateChannel@CBabelSwitchBox@@QAE_NH@Z 10031070 f   BabelClientC2e:BabelRemoteSwitch.obj
 0001:00030260       ?ResolveChannel@CBabelSwitchBox@@AAEPAVCBabelRemoteSwitch@@H@Z 10031260 f   BabelClientC2e:BabelRemoteSwitch.obj
 0001:000302b0       ?Disconnect@CBabelSwitchBox@@QAEXXZ 100312b0 f   BabelClientC2e:BabelRemoteSwitch.obj
 0001:000302e0       ?BabelTrace@@YAXPADZZ      100312e0 f   BabelClientC2e:BabelTrace.obj
 0001:00030340       ??0CBabelClientPeerLink@@QAE@PAVCBabelClient@@@Z 10031340 f   BabelClientC2e:BabelClientPeerLink.obj
 0001:00030390       ??_ECBabelClientPeerLink@@UAEPAXI@Z 10031390 f i BabelClientC2e:BabelClientPeerLink.obj
 0001:00030390       ??_GCBabelClientPeerLink@@UAEPAXI@Z 10031390 f i BabelClientC2e:BabelClientPeerLink.obj
 0001:000303c0       ??1CBabelClientPeerLink@@UAE@XZ 100313c0 f   BabelClientC2e:BabelClientPeerLink.obj
 0001:00030470       ??1NetMemoryUnpack@@QAE@XZ 10031470 f   BabelClientC2e:BabelClientPeerLink.obj
 0001:00030470       ?Close@CBabelClientPeerLink@@UAEXXZ 10031470 f   BabelClientC2e:BabelClientPeerLink.obj
 0001:00030470       ?Read@CBabelClientPeerLink@@UAEXXZ 10031470 f   BabelClientC2e:BabelClientPeerLink.obj
 0001:00030480       ?Accept@CBabelClientPeerLink@@UAEXXZ 10031480 f   BabelClientC2e:BabelClientPeerLink.obj
 0001:00030500       ?AcceptCore@CBabelClientPeerLink@@UAEXPAVCBabelSocket@@@Z 10031500 f   BabelClientC2e:BabelClientPeerLink.obj
 0001:000305d0       ?Disconnect@CBabelRadioLink@@QAE_NH@Z 100315d0 f   BabelClientC2e:BabelRadioLink.obj
 0001:00030610       _WSAStartup@8              10031610 f   wsock32:WSOCK32.dll
 0001:00030616       _WSACleanup@0              10031616 f   wsock32:WSOCK32.dll
 0001:0003061c       _inet_ntoa@4               1003161c f   wsock32:WSOCK32.dll
 0001:00030622       ___WSAFDIsSet@8            10031622 f   wsock32:WSOCK32.dll
 0001:00030628       _select@20                 10031628 f   wsock32:WSOCK32.dll
 0001:0003062e       _recv@16                   1003162e f   wsock32:WSOCK32.dll
 0001:00030634       _socket@12                 10031634 f   wsock32:WSOCK32.dll
 0001:0003063a       _accept@12                 1003163a f   wsock32:WSOCK32.dll
 0001:00030640       _connect@12                10031640 f   wsock32:WSOCK32.dll
 0001:00030646       _htons@4                   10031646 f   wsock32:WSOCK32.dll
 0001:0003064c       _gethostbyname@4           1003164c f   wsock32:WSOCK32.dll
 0001:00030652       _inet_addr@4               10031652 f   wsock32:WSOCK32.dll
 0001:00030658       _send@16                   10031658 f   wsock32:WSOCK32.dll
 0001:0003065e       _closesocket@4             1003165e f   wsock32:WSOCK32.dll
 0001:00030664       _WSAGetLastError@0         10031664 f   wsock32:WSOCK32.dll
 0001:0003066a       _WSASetLastError@4         1003166a f   wsock32:WSOCK32.dll
 0001:00030670       _ioctlsocket@12            10031670 f   wsock32:WSOCK32.dll
 0002:00000000       __imp__GetLastError@0      10035000     kernel32:KERNEL32.dll
 0002:00000004       __imp__OutputDebugStringA@4 10035004     kernel32:KERNEL32.dll
 0002:00000008       __imp__DeleteCriticalSection@4 10035008     kernel32:KERNEL32.dll
 0002:0000000c       __imp__LeaveCriticalSection@4 1003500c     kernel32:KERNEL32.dll
 0002:00000010       __imp__EnterCriticalSection@4 10035010     kernel32:KERNEL32.dll
 0002:00000014       __imp__InitializeCriticalSection@4 10035014     kernel32:KERNEL32.dll
 0002:00000018       __imp__DisableThreadLibraryCalls@4 10035018     kernel32:KERNEL32.dll
 0002:0000001c       __imp__MoveFileA@8         1003501c     kernel32:KERNEL32.dll
 0002:00000020       __imp__DeleteFileA@4       10035020     kernel32:KERNEL32.dll
 0002:00000024       __imp__Sleep@4             10035024     kernel32:KERNEL32.dll
 0002:00000028       __imp__WaitForMultipleObjects@16 10035028     kernel32:KERNEL32.dll
 0002:0000002c       __imp__SetEvent@4          1003502c     kernel32:KERNEL32.dll
 0002:00000030       __imp__CreateEventA@16     10035030     kernel32:KERNEL32.dll
 0002:00000034       __imp__FindNextFileA@8     10035034     kernel32:KERNEL32.dll
 0002:00000038       __imp__FindClose@4         10035038     kernel32:KERNEL32.dll
 0002:0000003c       __imp__FindFirstFileA@8    1003503c     kernel32:KERNEL32.dll
 0002:00000040       __imp__GetFileAttributesA@4 10035040     kernel32:KERNEL32.dll
 0002:00000044       __imp__WaitForSingleObject@8 10035044     kernel32:KERNEL32.dll
 0002:00000048       __imp__ReleaseMutex@4      10035048     kernel32:KERNEL32.dll
 0002:0000004c       __imp__CreateMutexA@12     1003504c     kernel32:KERNEL32.dll
 0002:00000050       __imp__CloseHandle@4       10035050     kernel32:KERNEL32.dll
 0002:00000054       \177KERNEL32_NULL_THUNK_DATA 10035054     kernel32:KERNEL32.dll
 0002:00000058       __imp_?init@?$basic_ios@DU?$char_traits@D@std@@@std@@IAEXPAV?$basic_streambuf@DU?$char_traits@D@std@@@2@_N@Z 10035058     msvcprt:MSVCP60.dll
 0002:0000005c       __imp_??Hstd@@YA?AV?$basic_string@DU?$char_traits@D@std@@V?$allocator@D@2@@0@PBDABV10@@Z 1003505c     msvcprt:MSVCP60.dll
 0002:00000060       __imp_??9std@@YA_NABV?$basic_string@DU?$char_traits@D@std@@V?$allocator@D@2@@0@0@Z 10035060     msvcprt:MSVCP60.dll
 0002:00000064       __imp_??6?$basic_ostream@DU?$char_traits@D@std@@@std@@QAEAAV01@H@Z 10035064     msvcprt:MSVCP60.dll
 0002:00000068       __imp_?str@?$basic_ostringstream@DU?$char_traits@D@std@@V?$allocator@D@2@@std@@QBE?AV?$basic_string@DU?$char_traits@D@std@@V?$allocator@D@2@@2@XZ 10035068     msvcprt:MSVCP60.dll
 0002:0000006c       __imp_??6std@@YAAAV?$basic_ostream@DU?$char_traits@D@std@@@0@AAV10@PBD@Z 1003506c     msvcprt:MSVCP60.dll
 0002:00000070       __imp_??1?$basic_streambuf@DU?$char_traits@D@std@@@std@@UAE@XZ 10035070     msvcprt:MSVCP60.dll
 0002:00000074       __imp_??0?$basic_ios@DU?$char_traits@D@std@@@std@@IAE@XZ 10035074     msvcprt:MSVCP60.dll
 0002:00000078       __imp_?_Tidy@?$basic_stringbuf@DU?$char_traits@D@std@@V?$allocator@D@2@@std@@IAEXXZ 10035078     msvcprt:MSVCP60.dll
 0002:0000007c       __imp_?assign@?$basic_string@DU?$char_traits@D@std@@V?$allocator@D@2@@std@@QAEAAV12@PBDI@Z 1003507c     msvcprt:MSVCP60.dll
 0002:00000080       __imp_??6?$basic_ostream@DU?$char_traits@D@std@@@std@@QAEAAV01@I@Z 10035080     msvcprt:MSVCP60.dll
 0002:00000084       __imp_?endl@std@@YAAAV?$basic_ostream@DU?$char_traits@D@std@@@1@AAV21@@Z 10035084     msvcprt:MSVCP60.dll
 0002:00000088       __imp_??9std@@YA_NABV?$basic_string@DU?$char_traits@D@std@@V?$allocator@D@2@@0@PBD@Z 10035088     msvcprt:MSVCP60.dll
 0002:0000008c       __imp_??Hstd@@YA?AV?$basic_string@DU?$char_traits@D@std@@V?$allocator@D@2@@0@ABV10@0@Z 1003508c     msvcprt:MSVCP60.dll
 0002:00000090       __imp_??Hstd@@YA?AV?$basic_string@DU?$char_traits@D@std@@V?$allocator@D@2@@0@ABV10@PBD@Z 10035090     msvcprt:MSVCP60.dll
 0002:00000094       __imp_??0ios_base@std@@IAE@XZ 10035094     msvcprt:MSVCP60.dll
 0002:00000098       __imp_??0?$basic_ostream@DU?$char_traits@D@std@@@std@@QAE@PAV?$basic_streambuf@DU?$char_traits@D@std@@@1@_N1@Z 10035098     msvcprt:MSVCP60.dll
 0002:0000009c       __imp_??0?$basic_stringbuf@DU?$char_traits@D@std@@V?$allocator@D@2@@std@@QAE@H@Z 1003509c     msvcprt:MSVCP60.dll
 0002:000000a0       __imp_??_8?$basic_istringstream@DU?$char_traits@D@std@@V?$allocator@D@2@@std@@7B@ 100350a0     msvcprt:MSVCP60.dll
 0002:000000a4       __imp_??_7?$basic_istream@DU?$char_traits@D@std@@@std@@6B@ 100350a4     msvcprt:MSVCP60.dll
 0002:000000a8       __imp_??0?$basic_stringbuf@DU?$char_traits@D@std@@V?$allocator@D@2@@std@@QAE@ABV?$basic_string@DU?$char_traits@D@std@@V?$allocator@D@2@@1@H@Z 100350a8     msvcprt:MSVCP60.dll
 0002:000000ac       __imp_??_7?$basic_istringstream@DU?$char_traits@D@std@@V?$allocator@D@2@@std@@6B@ 100350ac     msvcprt:MSVCP60.dll
 0002:000000b0       __imp_??5?$basic_istream@DU?$char_traits@D@std@@@std@@QAEAAV01@AAK@Z 100350b0     msvcprt:MSVCP60.dll
 0002:000000b4       __imp_??5std@@YAAAV?$basic_istream@DU?$char_traits@D@std@@@0@AAV10@AAD@Z 100350b4     msvcprt:MSVCP60.dll
 0002:000000b8       __imp_??5?$basic_istream@DU?$char_traits@D@std@@@std@@QAEAAV01@AAH@Z 100350b8     msvcprt:MSVCP60.dll
 0002:000000bc       __imp_??1?$basic_istream@DU?$char_traits@D@std@@@std@@UAE@XZ 100350bc     msvcprt:MSVCP60.dll
 0002:000000c0       __imp_??_D?$basic_istringstream@DU?$char_traits@D@std@@V?$allocator@D@2@@std@@QAEXXZ 100350c0     msvcprt:MSVCP60.dll
 0002:000000c4       __imp_??6?$basic_ostream@DU?$char_traits@D@std@@@std@@QAEAAV01@K@Z 100350c4     msvcprt:MSVCP60.dll
 0002:000000c8       __imp_??6?$basic_ostream@DU?$char_traits@D@std@@@std@@QAEAAV01@G@Z 100350c8     msvcprt:MSVCP60.dll
 0002:000000cc       __imp_??_8?$basic_ofstream@DU?$char_traits@D@std@@@std@@7B@ 100350cc     msvcprt:MSVCP60.dll
 0002:000000d0       __imp_??0?$basic_filebuf@DU?$char_traits@D@std@@@std@@QAE@PAU_iobuf@@@Z 100350d0     msvcprt:MSVCP60.dll
 0002:000000d4       __imp_??_7?$basic_ofstream@DU?$char_traits@D@std@@@std@@6B@ 100350d4     msvcprt:MSVCP60.dll
 0002:000000d8       __imp_?open@?$basic_filebuf@DU?$char_traits@D@std@@@std@@QAEPAV12@PBDH@Z 100350d8     msvcprt:MSVCP60.dll
 0002:000000dc       __imp_?setstate@?$basic_ios@DU?$char_traits@D@std@@@std@@QAEXH_N@Z 100350dc     msvcprt:MSVCP60.dll
 0002:000000e0       __imp_?write@?$basic_ostream@DU?$char_traits@D@std@@@std@@QAEAAV12@PBDH@Z 100350e0     msvcprt:MSVCP60.dll
 0002:000000e4       __imp_??1?$basic_filebuf@DU?$char_traits@D@std@@@std@@UAE@XZ 100350e4     msvcprt:MSVCP60.dll
 0002:000000e8       __imp_??_D?$basic_ofstream@DU?$char_traits@D@std@@@std@@QAEXXZ 100350e8     msvcprt:MSVCP60.dll
 0002:000000ec       __imp_??0?$basic_ostringstream@DU?$char_traits@D@std@@V?$allocator@D@2@@std@@QAE@H@Z 100350ec     msvcprt:MSVCP60.dll
 0002:000000f0       __imp_??1?$basic_stringbuf@DU?$char_traits@D@std@@V?$allocator@D@2@@std@@UAE@XZ 100350f0     msvcprt:MSVCP60.dll
 0002:000000f4       __imp_?substr@?$basic_string@DU?$char_traits@D@std@@V?$allocator@D@2@@std@@QBE?AV12@II@Z 100350f4     msvcprt:MSVCP60.dll
 0002:000000f8       __imp_??8std@@YA_NABV?$basic_string@DU?$char_traits@D@std@@V?$allocator@D@2@@0@PBD@Z 100350f8     msvcprt:MSVCP60.dll
 0002:000000fc       __imp_??0?$basic_string@DU?$char_traits@D@std@@V?$allocator@D@2@@std@@QAE@PBDIABV?$allocator@D@1@@Z 100350fc     msvcprt:MSVCP60.dll
 0002:00000100       __imp_?_Freeze@?$basic_string@DU?$char_traits@D@std@@V?$allocator@D@2@@std@@AAEXXZ 10035100     msvcprt:MSVCP60.dll
 0002:00000104       __imp_?_Eos@?$basic_string@DU?$char_traits@D@std@@V?$allocator@D@2@@std@@AAEXI@Z 10035104     msvcprt:MSVCP60.dll
 0002:00000108       __imp_?_Refcnt@?$basic_string@DU?$char_traits@D@std@@V?$allocator@D@2@@std@@AAEAAEPBD@Z 10035108     msvcprt:MSVCP60.dll
 0002:0000010c       __imp_??_7?$basic_streambuf@DU?$char_traits@D@std@@@std@@6B@ 1003510c     msvcprt:MSVCP60.dll
 0002:00000110       __imp_??1locale@std@@QAE@XZ 10035110     msvcprt:MSVCP60.dll
 0002:00000114       __imp_?copyfmt@ios_base@std@@QAEAAV12@ABV12@@Z 10035114     msvcprt:MSVCP60.dll
 0002:00000118       __imp_??_8?$basic_ostream@DU?$char_traits@D@std@@@std@@7B@ 10035118     msvcprt:MSVCP60.dll
 0002:0000011c       __imp_??4ios_base@std@@QAEAAV01@ABV01@@Z 1003511c     msvcprt:MSVCP60.dll
 0002:00000120       __imp_??4?$basic_streambuf@DU?$char_traits@D@std@@@std@@QAEAAV01@ABV01@@Z 10035120     msvcprt:MSVCP60.dll
 0002:00000124       __imp_??_8?$basic_ostringstream@DU?$char_traits@D@std@@V?$allocator@D@2@@std@@7B@ 10035124     msvcprt:MSVCP60.dll
 0002:00000128       __imp_??_7ios_base@std@@6B@ 10035128     msvcprt:MSVCP60.dll
 0002:0000012c       __imp_??_7?$basic_ios@DU?$char_traits@D@std@@@std@@6B@ 1003512c     msvcprt:MSVCP60.dll
 0002:00000130       __imp_??0?$basic_string@DU?$char_traits@D@std@@V?$allocator@D@2@@std@@QAE@ABV?$allocator@D@1@@Z 10035130     msvcprt:MSVCP60.dll
 0002:00000134       __imp_??4?$basic_ios@DU?$char_traits@D@std@@@std@@QAEAAV01@ABV01@@Z 10035134     msvcprt:MSVCP60.dll
 0002:00000138       __imp_??_7?$basic_ostream@DU?$char_traits@D@std@@@std@@6B@ 10035138     msvcprt:MSVCP60.dll
 0002:0000013c       __imp_??0?$basic_string@DU?$char_traits@D@std@@V?$allocator@D@2@@std@@QAE@PBDABV?$allocator@D@1@@Z 1003513c     msvcprt:MSVCP60.dll
 0002:00000140       __imp_??6std@@YAAAV?$basic_ostream@DU?$char_traits@D@std@@@0@AAV10@ABV?$basic_string@DU?$char_traits@D@std@@V?$allocator@D@2@@0@@Z 10035140     msvcprt:MSVCP60.dll
 0002:00000144       __imp_?_Xran@std@@YAXXZ    10035144     msvcprt:MSVCP60.dll
 0002:00000148       __imp_??1?$basic_string@DU?$char_traits@D@std@@V?$allocator@D@2@@std@@QAE@XZ 10035148     msvcprt:MSVCP60.dll
 0002:0000014c       __imp_??_7?$basic_ostringstream@DU?$char_traits@D@std@@V?$allocator@D@2@@std@@6B@ 1003514c     msvcprt:MSVCP60.dll
 0002:00000150       __imp_??1ios_base@std@@UAE@XZ 10035150     msvcprt:MSVCP60.dll
 0002:00000154       __imp_??1?$basic_ostringstream@DU?$char_traits@D@std@@V?$allocator@D@2@@std@@UAE@XZ 10035154     msvcprt:MSVCP60.dll
 0002:00000158       __imp_??_7?$basic_stringbuf@DU?$char_traits@D@std@@V?$allocator@D@2@@std@@6B@ 10035158     msvcprt:MSVCP60.dll
 0002:0000015c       __imp_??Mstd@@YA_NABV?$basic_string@DU?$char_traits@D@std@@V?$allocator@D@2@@0@0@Z 1003515c     msvcprt:MSVCP60.dll
 0002:00000160       __imp_??1?$basic_ostream@DU?$char_traits@D@std@@@std@@UAE@XZ 10035160     msvcprt:MSVCP60.dll
 0002:00000164       __imp_??_D?$basic_ostringstream@DU?$char_traits@D@std@@V?$allocator@D@2@@std@@QAEXXZ 10035164     msvcprt:MSVCP60.dll
 0002:00000168       __imp_??1?$basic_ios@DU?$char_traits@D@std@@@std@@UAE@XZ 10035168     msvcprt:MSVCP60.dll
 0002:0000016c       __imp_?_Grow@?$basic_string@DU?$char_traits@D@std@@V?$allocator@D@2@@std@@AAE_NI_N@Z 1003516c     msvcprt:MSVCP60.dll
 0002:00000170       __imp_?_Tidy@?$basic_string@DU?$char_traits@D@std@@V?$allocator@D@2@@std@@AAEX_N@Z 10035170     msvcprt:MSVCP60.dll
 0002:00000174       __imp_?_C@?1??_Nullstr@?$basic_string@DU?$char_traits@D@std@@V?$allocator@D@2@@std@@CAPBDXZ@4DB 10035174     msvcprt:MSVCP60.dll
 0002:00000178       __imp_?erase@?$basic_string@DU?$char_traits@D@std@@V?$allocator@D@2@@std@@QAEAAV12@II@Z 10035178     msvcprt:MSVCP60.dll
 0002:0000017c       __imp_?npos@?$basic_string@DU?$char_traits@D@std@@V?$allocator@D@2@@std@@2IB 1003517c     msvcprt:MSVCP60.dll
 0002:00000180       __imp_??0?$basic_streambuf@DU?$char_traits@D@std@@@std@@QAE@ABV01@@Z 10035180     msvcprt:MSVCP60.dll
 0002:00000184       __imp_??0_Winit@std@@QAE@XZ 10035184     msvcprt:MSVCP60.dll
 0002:00000188       __imp_??1_Winit@std@@QAE@XZ 10035188     msvcprt:MSVCP60.dll
 0002:0000018c       __imp_?assign@?$basic_string@DU?$char_traits@D@std@@V?$allocator@D@2@@std@@QAEAAV12@ABV12@II@Z 1003518c     msvcprt:MSVCP60.dll
 0002:00000190       __imp_??0Init@ios_base@std@@QAE@XZ 10035190     msvcprt:MSVCP60.dll
 0002:00000194       __imp_??1Init@ios_base@std@@QAE@XZ 10035194     msvcprt:MSVCP60.dll
 0002:00000198       __imp_?_Xlen@std@@YAXXZ    10035198     msvcprt:MSVCP60.dll
 0002:0000019c       __imp_?max_size@?$basic_string@DU?$char_traits@D@std@@V?$allocator@D@2@@std@@QBEIXZ 1003519c     msvcprt:MSVCP60.dll
 0002:000001a0       __imp_??0?$basic_string@DU?$char_traits@D@std@@V?$allocator@D@2@@std@@QAE@ABV01@@Z 100351a0     msvcprt:MSVCP60.dll
 0002:000001a4       __imp_?_Copy@?$basic_string@DU?$char_traits@D@std@@V?$allocator@D@2@@std@@AAEXI@Z 100351a4     msvcprt:MSVCP60.dll
 0002:000001a8       \177MSVCP60_NULL_THUNK_DATA 100351a8     msvcprt:MSVCP60.dll
 0002:000001ac       __imp__time                100351ac     msvcrt:MSVCRT.dll
 0002:000001b0       __imp___adjust_fdiv        100351b0     msvcrt:MSVCRT.dll
 0002:000001b4       __imp_??1type_info@@UAE@XZ 100351b4     msvcrt:MSVCRT.dll
 0002:000001b8       __imp_?terminate@@YAXXZ    100351b8     msvcrt:MSVCRT.dll
 0002:000001bc       __imp__malloc              100351bc     msvcrt:MSVCRT.dll
 0002:000001c0       __imp___initterm           100351c0     msvcrt:MSVCRT.dll
 0002:000001c4       __imp__fopen               100351c4     msvcrt:MSVCRT.dll
 0002:000001c8       __imp___onexit             100351c8     msvcrt:MSVCRT.dll
 0002:000001cc       __imp____dllonexit         100351cc     msvcrt:MSVCRT.dll
 0002:000001d0       __imp___vsnprintf          100351d0     msvcrt:MSVCRT.dll
 0002:000001d4       __imp___beginthreadex      100351d4     msvcrt:MSVCRT.dll
 0002:000001d8       __imp__free                100351d8     msvcrt:MSVCRT.dll
 0002:000001dc       __imp__memchr              100351dc     msvcrt:MSVCRT.dll
 0002:000001e0       __imp___purecall           100351e0     msvcrt:MSVCRT.dll
 0002:000001e4       __imp___CxxThrowException@8 100351e4     msvcrt:MSVCRT.dll
 0002:000001e8       __imp_??0exception@@QAE@ABV0@@Z 100351e8     msvcrt:MSVCRT.dll
 0002:000001ec       __imp___isnan              100351ec     msvcrt:MSVCRT.dll
 0002:000001f0       __imp_??0exception@@QAE@XZ 100351f0     msvcrt:MSVCRT.dll
 0002:000001f4       __imp_??1exception@@UAE@XZ 100351f4     msvcrt:MSVCRT.dll
 0002:000001f8       __imp_??3@YAXPAX@Z         100351f8     msvcrt:MSVCRT.dll
 0002:000001fc       __imp__memmove             100351fc     msvcrt:MSVCRT.dll
 0002:00000200       __imp____CxxFrameHandler   10035200     msvcrt:MSVCRT.dll
 0002:00000204       __imp_??2@YAPAXI@Z         10035204     msvcrt:MSVCRT.dll
 0002:00000208       __imp__realloc             10035208     msvcrt:MSVCRT.dll
 0002:0000020c       __imp__rand                1003520c     msvcrt:MSVCRT.dll
 0002:00000210       __imp___stat               10035210     msvcrt:MSVCRT.dll
 0002:00000210       __imp__stat                10035210     msvcrt:MSVCRT.dll
 0002:00000214       __imp__fclose              10035214     msvcrt:MSVCRT.dll
 0002:00000218       __imp__fread               10035218     msvcrt:MSVCRT.dll
 0002:0000021c       __imp___except_handler3    1003521c     msvcrt:MSVCRT.dll
 0002:00000220       \177MSVCRT_NULL_THUNK_DATA 10035220     msvcrt:MSVCRT.dll
 0002:00000224       __imp__InternetAutodial@8  10035224     wininet:WININET.dll
 0002:00000228       __imp__InternetGetConnectedState@8 10035228     wininet:WININET.dll
 0002:0000022c       \177WININET_NULL_THUNK_DATA 1003522c     wininet:WININET.dll
 0002:00000230       __imp__WSASetLastError@4   10035230     wsock32:WSOCK32.dll
 0002:00000234       __imp__WSAGetLastError@0   10035234     wsock32:WSOCK32.dll
 0002:00000238       __imp__ioctlsocket@12      10035238     wsock32:WSOCK32.dll
 0002:0000023c       __imp__send@16             1003523c     wsock32:WSOCK32.dll
 0002:00000240       __imp__inet_addr@4         10035240     wsock32:WSOCK32.dll
 0002:00000244       __imp__closesocket@4       10035244     wsock32:WSOCK32.dll
 0002:00000248       __imp__htons@4             10035248     wsock32:WSOCK32.dll
 0002:0000024c       __imp__connect@12          1003524c     wsock32:WSOCK32.dll
 0002:00000250       __imp__gethostbyname@4     10035250     wsock32:WSOCK32.dll
 0002:00000254       __imp__accept@12           10035254     wsock32:WSOCK32.dll
 0002:00000258       __imp__recv@16             10035258     wsock32:WSOCK32.dll
 0002:0000025c       __imp__select@20           1003525c     wsock32:WSOCK32.dll
 0002:00000260       __imp__socket@12           10035260     wsock32:WSOCK32.dll
 0002:00000264       __imp__inet_ntoa@4         10035264     wsock32:WSOCK32.dll
 0002:00000268       __imp__WSACleanup@0        10035268     wsock32:WSOCK32.dll
 0002:0000026c       __imp____WSAFDIsSet@8      1003526c     wsock32:WSOCK32.dll
 0002:00000270       __imp__WSAStartup@8        10035270     wsock32:WSOCK32.dll
 0002:00000274       \177WSOCK32_NULL_THUNK_DATA 10035274     wsock32:WSOCK32.dll
 0002:00000278       __imp_?ExecuteScriptOnAgent@AgentManager@@QAEXVAgentHandle@@HABVCAOSVar@@11@Z 10035278     engine:engine.exe
 0002:0000027c       __imp_?GetPrayManager@PrayManager@@SAAAV1@XZ 1003527c     engine:engine.exe
 0002:00000280       __imp_?CheckChunk@PrayManager@@QAEHV?$basic_string@DU?$char_traits@D@std@@V?$allocator@D@2@@std@@@Z 10035280     engine:engine.exe
 0002:00000284       __imp_?GetAgentManager@AgentManager@@SAAAV1@XZ 10035284     engine:engine.exe
 0002:00000288       __imp_?ThrowTagRunError@CAOSMachine@@SAXPBDHZZ 10035288     engine:engine.exe
 0002:0000028c       __imp_?Get@Configurator@@QBEXABV?$basic_string@DU?$char_traits@D@std@@V?$allocator@D@2@@std@@AAV23@@Z 1003528c     engine:engine.exe
 0002:00000290       __imp_?Get@Configurator@@QBEXABV?$basic_string@DU?$char_traits@D@std@@V?$allocator@D@2@@std@@AAH@Z 10035290     engine:engine.exe
 0002:00000294       __imp_?Block@CAOSMachine@@QAEXXZ 10035294     engine:engine.exe
 0002:00000298       __imp_?UnBlock@CAOSMachine@@QAEXXZ 10035298     engine:engine.exe
 0002:0000029c       __imp_?PushTable@CAOSDescription@@QAEXVHandlerFunction@@HABV?$basic_string@DU?$char_traits@D@std@@V?$allocator@D@2@@std@@PAVOpSpec@@H@Z 1003529c     engine:engine.exe
 0002:000002a0       __imp_?Write@AgentManager@@UBE_NAAVCreaturesArchive@@@Z 100352a0     engine:engine.exe
 0002:000002a4       __imp_?Read@AgentManager@@UAE_NAAVCreaturesArchive@@@Z 100352a4     engine:engine.exe
 0002:000002a8       __imp_?IsInvalid@AgentHandle@@QAE_NXZ 100352a8     engine:engine.exe
 0002:000002ac       __imp_?ThrowInvalidAgentHandle@CAOSMachine@@SAXHZZ 100352ac     engine:engine.exe
 0002:000002b0       __imp_??1CAOSMachine@@UAE@XZ 100352b0     engine:engine.exe
 0002:000002b4       __imp_??4CAOSVar@@QAEAAV0@ABV0@@Z 100352b4     engine:engine.exe
 0002:000002b8       __imp_?GetClassNameX@CAOSMachine@@UBEPBDXZ 100352b8     engine:engine.exe
 0002:000002bc       __imp_?Write@CAOSMachine@@UBE_NAAVCreaturesArchive@@@Z 100352bc     engine:engine.exe
 0002:000002c0       __imp_?Read@CAOSMachine@@UAE_NAAVCreaturesArchive@@@Z 100352c0     engine:engine.exe
 0002:000002c4       __imp_?ThrowRunError@CAOSMachine@@SAXHZZ 100352c4     engine:engine.exe
 0002:000002c8       __imp_??0CAOSVar@@QAE@ABV0@@Z 100352c8     engine:engine.exe
 0002:000002cc       __imp_?Write@CreaturesArchive@@QAEXABV?$basic_string@DU?$char_traits@D@std@@V?$allocator@D@2@@std@@@Z 100352cc     engine:engine.exe
 0002:000002d0       __imp_?IsValid@AgentHandle@@QAE_NXZ 100352d0     engine:engine.exe
 0002:000002d4       __imp_??1AgentHandle@@QAE@XZ 100352d4     engine:engine.exe
 0002:000002d8       __imp_?GetChunkParentFile@PrayManager@@QAE?AV?$basic_string@DU?$char_traits@D@std@@V?$allocator@D@2@@std@@V23@@Z 100352d8     engine:engine.exe
 0002:000002dc       __imp_?GetDirectoryManager@DirectoryManager@@SAAAV1@XZ 100352dc     engine:engine.exe
 0002:000002e0       __imp_?GetWorldDirectoryVersion@DirectoryManager@@QAE_NHAAV?$basic_string@DU?$char_traits@D@std@@V?$allocator@D@2@@std@@_NV23@@Z 100352e0     engine:engine.exe
 0002:000002e4       __imp_?GetDirectory@DirectoryManager@@QAE?AV?$basic_string@DU?$char_traits@D@std@@V?$allocator@D@2@@std@@H@Z 100352e4     engine:engine.exe
 0002:000002e8       __imp_?MakeHelper@PrayHandlers@@SA_NV?$basic_string@DU?$char_traits@D@std@@V?$allocator@D@2@@std@@00AAVCAOSVar@@@Z 100352e8     engine:engine.exe
 0002:000002ec       __imp_??8AgentHandle@@QBE_NABV0@@Z 100352ec     engine:engine.exe
 0002:000002f0       __imp_?GetCreatureTarg@CAOSMachine@@QAEAAVCreature@@XZ 100352f0     engine:engine.exe
 0002:000002f4       __imp_?ExportHelper@PrayHandlers@@SAHAAVCreature@@V?$basic_string@DU?$char_traits@D@std@@V?$allocator@D@2@@std@@1_N2@Z 100352f4     engine:engine.exe
 0002:000002f8       __imp_?ThrowRunError@CAOSMachine@@QAEXABVexception@@@Z 100352f8     engine:engine.exe
 0002:000002fc       __imp_?FetchVariable@CAOSMachine@@QAEAAVCAOSVar@@XZ 100352fc     engine:engine.exe
 0002:00000300       __imp_?GetTheApp@App@@SAAAV1@XZ 10035300     engine:engine.exe
 0002:00000304       __imp_?GetGameVar@App@@QAEAAVCAOSVar@@ABV?$basic_string@DU?$char_traits@D@std@@V?$allocator@D@2@@std@@@Z 10035304     engine:engine.exe
 0002:00000308       __imp_?Set@Configurator@@QAEXABV?$basic_string@DU?$char_traits@D@std@@V?$allocator@D@2@@std@@0@Z 10035308     engine:engine.exe
 0002:0000030c       __imp_?Zap@Configurator@@QAEXABV?$basic_string@DU?$char_traits@D@std@@V?$allocator@D@2@@std@@@Z 1003530c     engine:engine.exe
 0002:00000310       __imp_??0AgentHandle@@QAE@XZ 10035310     engine:engine.exe
 0002:00000314       __imp_?Write@CAOSVar@@UBE_NAAV?$basic_ostream@DU?$char_traits@D@std@@@std@@@Z 10035314     engine:engine.exe
 0002:00000318       __imp_?Write@CAOSVar@@UBE_NAAVCreaturesArchive@@@Z 10035318     engine:engine.exe
 0002:0000031c       __imp_?Read@CAOSVar@@UAE_NAAV?$basic_istream@DU?$char_traits@D@std@@@std@@@Z 1003531c     engine:engine.exe
 0002:00000320       __imp_?Read@CAOSVar@@UAE_NAAVCreaturesArchive@@@Z 10035320     engine:engine.exe
 0002:00000324       __imp_?Get@CAOSVar@@MBEXHAATPolyVar@1@@Z 10035324     engine:engine.exe
 0002:00000328       __imp_?Set@CAOSVar@@MAEXHABTPolyVar@1@@Z 10035328     engine:engine.exe
 0002:0000032c       __imp_??6@YAAAVCreaturesArchive@@AAV0@ABVAgentHandle@@@Z 1003532c     engine:engine.exe
 0002:00000330       __imp_?Read@CreaturesArchive@@QAEXAAV?$basic_string@DU?$char_traits@D@std@@V?$allocator@D@2@@std@@@Z 10035330     engine:engine.exe
 0002:00000334       __imp_?Write@CreaturesArchive@@QAEXK@Z 10035334     engine:engine.exe
 0002:00000338       __imp_?GetFileVersion@CreaturesArchive@@QAEJXZ 10035338     engine:engine.exe
 0002:0000033c       __imp_??MAgentHandle@@QBE_NABV0@@Z 1003533c     engine:engine.exe
 0002:00000340       __imp_?Read@CreaturesArchive@@QAEXAAK@Z 10035340     engine:engine.exe
 0002:00000344       __imp_?FetchGenericRV@CAOSMachine@@QAE?AVCAOSVar@@XZ 10035344     engine:engine.exe
 0002:00000348       __imp_??5@YAAAVCreaturesArchive@@AAV0@AAVAgentHandle@@@Z 10035348     engine:engine.exe
 0002:0000034c       __imp_?BindToFile@Configurator@@QAE_NABV?$basic_string@DU?$char_traits@D@std@@V?$allocator@D@2@@std@@@Z 1003534c     engine:engine.exe
 0002:00000350       __imp_?Set@Configurator@@QAEXABV?$basic_string@DU?$char_traits@D@std@@V?$allocator@D@2@@std@@H@Z 10035350     engine:engine.exe
 0002:00000354       __imp_??0CreatureHistory@@QAE@XZ 10035354     engine:engine.exe
 0002:00000358       __imp_?Log@FlightRecorder@@QAAXW4FlightCategory@@PBDZZ 10035358     engine:engine.exe
 0002:0000035c       __imp_?GetFlightRecorder@@YAAAVFlightRecorder@@XZ 1003535c     engine:engine.exe
 0002:00000360       __imp_?GetCreatureHistory@HistoryStore@@QAEAAVCreatureHistory@@ABV?$basic_string@DU?$char_traits@D@std@@V?$allocator@D@2@@std@@@Z 10035360     engine:engine.exe
 0002:00000364       __imp_?ExecuteScriptOnAllAgents@AgentManager@@QAEXHABVCAOSVar@@00@Z 10035364     engine:engine.exe
 0002:00000368       __imp_?GetLifeEvent@CreatureHistory@@QAEPAVLifeEvent@@H@Z 10035368     engine:engine.exe
 0002:0000036c       __imp_?CreaturePresentForEvent@LifeEvent@@QBE_NXZ 1003536c     engine:engine.exe
 0002:00000370       __imp_?GetSolidLifeEvent@CreatureHistory@@QAEPAVLifeEvent@@USolidIndex@1@@Z 10035370     engine:engine.exe
 0002:00000374       __imp_?SolidCount@CreatureHistory@@QBE?AUSolidIndex@1@XZ 10035374     engine:engine.exe
 0002:00000378       __imp_?Flush@Configurator@@QAE_NXZ 10035378     engine:engine.exe
 0002:0000037c       __imp_?Next@HistoryStore@@QAE?AV?$basic_string@DU?$char_traits@D@std@@V?$allocator@D@2@@std@@ABV23@@Z 1003537c     engine:engine.exe
 0002:00000380       __imp_??4AgentHandle@@QAEAAV0@ABV0@@Z 10035380     engine:engine.exe
 0002:00000384       __imp_?NotifyNewNickname@App@@QAEXABV?$basic_string@DU?$char_traits@D@std@@V?$allocator@D@2@@std@@@Z 10035384     engine:engine.exe
 0002:00000388       __imp_??0AgentHandle@@QAE@ABV0@@Z 10035388     engine:engine.exe
 0002:0000038c       __imp_?FetchStringRV@CAOSMachine@@QAEXAAV?$basic_string@DU?$char_traits@D@std@@V?$allocator@D@2@@std@@@Z 1003538c     engine:engine.exe
 0002:00000390       __imp_?FetchIntegerRV@CAOSMachine@@QAEHXZ 10035390     engine:engine.exe
 0002:00000394       \177engine_NULL_THUNK_DATA 10035394     engine:engine.exe
 0002:0000039c       ??_7CAOSVar@@6B@           1003539c     NetHandlers.obj
 0002:000003b8       ??_7CAOSMachine@@6B@       100353b8     NetHandlers.obj
 0002:000003d0       ??_7PersistentObject@@6B@  100353d0     NetHandlers.obj
 0002:000003e8       ??_7AgentManager@@6B@      100353e8     NetHandlers.obj
 0002:000003f4       ??_7BasicException@@6B@    100353f4     NetHandlers.obj
 0002:00000400       ??_7NetLogImplementation@@6B@ 10035400     NetworkImplementation.obj
 0002:00000408       ??_7NetworkImplementation@@6B@ 10035408     NetworkImplementation.obj
 0002:00000450       ??_7NetworkInterface@@6B@  10035450     NetworkImplementation.obj
 0002:00000498       ??_7HistoryQueuedMessage@@6B@ 10035498     NetworkImplementation.obj
 0002:000004a4       ??_7QueuedMessage@@6B@     100354a4     NetworkImplementation.obj
 0002:000004b0       ??_7DSNetManager@@6B@      100354b0     DSNetManager.obj
 0002:000004bc       ??_7?$MemberFunctionQueuedMessage@VDSNetManager@@@@6B@ 100354bc     DSNetManager.obj
 0002:000004c8       ??_7MessageThread@@6B@     100354c8     MessageThread.obj
 0002:000004d4       ??_7CBabelShortUserDataObject@@6B@ 100354d4     NetDebugListUsers.obj
 0002:000004fc       ??_7NetDirectLink@@6B@     100354fc     NetDirectLink.obj
 0002:00000520       ??_7CBabelConnection@@6B@  10035520     NetDirectLink.obj
 0002:00000544       ??_7CBabelReadWriteSocket@@6B@ 10035544     NetDirectLink.obj
 0002:00000560       ?MESSAGE_BEING_SENT@NetManager@@1HB 10035560     NetManager.obj
 0002:00000564       ?MESSAGE_NONE@NetManager@@1HB 10035564     NetManager.obj
 0002:0000056c       ??_7NetManager@@6B@        1003556c     NetManager.obj
 0002:00000578       ??_7?$MemberFunctionQueuedMessage@VNetManager@@@@6B@ 10035578     NetManager.obj
 0002:00000584       ??_7InternalQueuedMessage@@6B@ 10035584     NetManager.obj
 0002:00000590       ??_7type_info@@6B@         10035590     msvcrt:ti_inst.obj
 0002:000005b4       ??_7CBabelDConnection@@6BCBabelSocket@@@ 100355b4     BabelClientC2e:BabelClient.obj
 0002:000005d0       ??_7CBabelDConnection@@6BCBabelAsyncCore@@@ 100355d0     BabelClientC2e:BabelClient.obj
 0002:000005f4       ??_7CBabelSocket@@6B@      100355f4     BabelClientC2e:BabelClient.obj
 0002:00000610       ??_7CBabelMessage@@6B@     10035610     BabelClientC2e:BabelClient.obj
 0002:00000620       ??_7CBabelDHandle@@6B@     10035620     BabelClientC2e:BabelClient.obj
 0002:00000640       ??_7CBabelAsyncCore@@6B@   10035640     BabelClientC2e:BabelClient.obj
 0002:00000664       ??_7CBabelVirtualSocket@@6B@ 10035664     BabelClientC2e:BabelVirtualSocket.obj
 0002:00000680       ??_7CBabelSyncSocket@@6B@  10035680     BabelClientC2e:BabelRawSocket.obj
 0002:0000069c       ??_7CBabelMigrateConnection@@6B@ 1003569c     BabelClientC2e:BabelDConnection.obj
 0002:000006c0       ??_7CBabelClientPeerLink@@6B@ 100356c0     BabelClientC2e:BabelClientPeerLink.obj
 0002:000006e0       ??_R1A@?0A@A@CAOSVar@@8    100356e0     NetHandlers.obj
 0002:000006f8       ??_R2CAOSVar@@8            100356f8     NetHandlers.obj
 0002:00000700       ??_R3CAOSVar@@8            10035700     NetHandlers.obj
 0002:00000710       ??_R4CAOSVar@@6B@          10035710     NetHandlers.obj
 0002:00000728       ??_R1A@?0A@A@CAOSMachine@@8 10035728     NetHandlers.obj
 0002:00000740       ??_R2CAOSMachine@@8        10035740     NetHandlers.obj
 0002:00000750       ??_R3CAOSMachine@@8        10035750     NetHandlers.obj
 0002:00000760       ??_R4CAOSMachine@@6B@      10035760     NetHandlers.obj
 0002:00000778       ??_R1A@?0A@A@PersistentObject@@8 10035778     NetHandlers.obj
 0002:00000790       ??_R2PersistentObject@@8   10035790     NetHandlers.obj
 0002:00000798       ??_R3PersistentObject@@8   10035798     NetHandlers.obj
 0002:000007a8       ??_R4PersistentObject@@6B@ 100357a8     NetHandlers.obj
 0002:000007c0       ??_R1A@?0A@A@AgentManager@@8 100357c0     NetHandlers.obj
 0002:000007d8       ??_R2AgentManager@@8       100357d8     NetHandlers.obj
 0002:000007e0       ??_R3AgentManager@@8       100357e0     NetHandlers.obj
 0002:000007f0       ??_R4AgentManager@@6B@     100357f0     NetHandlers.obj
 0002:00000808       ??_R1A@?0A@A@exception@@8  10035808     NetHandlers.obj
 0002:00000820       ??_R1A@?0A@A@BasicException@@8 10035820     NetHandlers.obj
 0002:00000838       ??_R2BasicException@@8     10035838     NetHandlers.obj
 0002:00000848       ??_R3BasicException@@8     10035848     NetHandlers.obj
 0002:00000858       ??_R4BasicException@@6B@   10035858     NetHandlers.obj
 0002:00000870       ??_R1A@?0A@A@NetworkImplementation@@8 10035870     NetworkImplementation.obj
 0002:00000888       ??_R2NetworkImplementation@@8 10035888     NetworkImplementation.obj
 0002:00000898       ??_R3NetworkImplementation@@8 10035898     NetworkImplementation.obj
 0002:000008a8       ??_R4NetworkImplementation@@6B@ 100358a8     NetworkImplementation.obj
 0002:000008c0       ??_R1A@?0A@A@ModuleInterface@@8 100358c0     NetworkImplementation.obj
 0002:000008d8       ??_R1A@?0A@A@NetworkInterface@@8 100358d8     NetworkImplementation.obj
 0002:000008f0       ??_R2NetworkInterface@@8   100358f0     NetworkImplementation.obj
 0002:00000900       ??_R3NetworkInterface@@8   10035900     NetworkImplementation.obj
 0002:00000910       ??_R4NetworkInterface@@6B@ 10035910     NetworkImplementation.obj
 0002:00000928       ??_R1A@?0A@A@NetLogInterface@@8 10035928     NetworkImplementation.obj
 0002:00000940       ??_R1A@?0A@A@NetLogImplementation@@8 10035940     NetworkImplementation.obj
 0002:00000958       ??_R2NetLogImplementation@@8 10035958     NetworkImplementation.obj
 0002:00000968       ??_R3NetLogImplementation@@8 10035968     NetworkImplementation.obj
 0002:00000978       ??_R4NetLogImplementation@@6B@ 10035978     NetworkImplementation.obj
 0002:00000990       ??_R1A@?0A@A@QueuedMessage@@8 10035990     NetworkImplementation.obj
 0002:000009a8       ??_R1A@?0A@A@HistoryQueuedMessage@@8 100359a8     NetworkImplementation.obj
 0002:000009c0       ??_R2HistoryQueuedMessage@@8 100359c0     NetworkImplementation.obj
 0002:000009d0       ??_R3HistoryQueuedMessage@@8 100359d0     NetworkImplementation.obj
 0002:000009e0       ??_R4HistoryQueuedMessage@@6B@ 100359e0     NetworkImplementation.obj
 0002:000009f4       ??_R2QueuedMessage@@8      100359f4     NetworkImplementation.obj
 0002:00000a00       ??_R3QueuedMessage@@8      10035a00     NetworkImplementation.obj
 0002:00000a10       ??_R4QueuedMessage@@6B@    10035a10     NetworkImplementation.obj
 0002:00000a28       ??_R1A@?0A@A@NetManager@@8 10035a28     DSNetManager.obj
 0002:00000a40       ??_R1A@?0A@A@DSNetManager@@8 10035a40     DSNetManager.obj
 0002:00000a58       ??_R2DSNetManager@@8       10035a58     DSNetManager.obj
 0002:00000a68       ??_R3DSNetManager@@8       10035a68     DSNetManager.obj
 0002:00000a78       ??_R4DSNetManager@@6B@     10035a78     DSNetManager.obj
 0002:00000a90       ??_R1A@?0A@A@?$MemberFunctionQueuedMessage@VDSNetManager@@@@8 10035a90     DSNetManager.obj
 0002:00000aa8       ??_R2?$MemberFunctionQueuedMessage@VDSNetManager@@@@8 10035aa8     DSNetManager.obj
 0002:00000ab8       ??_R3?$MemberFunctionQueuedMessage@VDSNetManager@@@@8 10035ab8     DSNetManager.obj
 0002:00000ac8       ??_R4?$MemberFunctionQueuedMessage@VDSNetManager@@@@6B@ 10035ac8     DSNetManager.obj
 0002:00000ae0       ??_R1A@?0A@A@MessageThread@@8 10035ae0     MessageThread.obj
 0002:00000af8       ??_R2MessageThread@@8      10035af8     MessageThread.obj
 0002:00000b00       ??_R3MessageThread@@8      10035b00     MessageThread.obj
 0002:00000b10       ??_R4MessageThread@@6B@    10035b10     MessageThread.obj
 0002:00000b28       ??_R1A@?0A@A@CBabelShortUserDataObject@@8 10035b28     NetDebugListUsers.obj
 0002:00000b40       ??_R2CBabelShortUserDataObject@@8 10035b40     NetDebugListUsers.obj
 0002:00000b48       ??_R3CBabelShortUserDataObject@@8 10035b48     NetDebugListUsers.obj
 0002:00000b58       ??_R4CBabelShortUserDataObject@@6B@ 10035b58     NetDebugListUsers.obj
 0002:00000b70       ??_R1A@?0A@A@CBabelConnection@@8 10035b70     NetDirectLink.obj
 0002:00000b88       ??_R1A@?0A@A@NetDirectLink@@8 10035b88     NetDirectLink.obj
 0002:00000ba0       ??_R2NetDirectLink@@8      10035ba0     NetDirectLink.obj
 0002:00000bb0       ??_R3NetDirectLink@@8      10035bb0     NetDirectLink.obj
 0002:00000bc0       ??_R4NetDirectLink@@6B@    10035bc0     NetDirectLink.obj
 0002:00000bd4       ??_R2CBabelConnection@@8   10035bd4     NetDirectLink.obj
 0002:00000be0       ??_R3CBabelConnection@@8   10035be0     NetDirectLink.obj
 0002:00000bf0       ??_R4CBabelConnection@@6B@ 10035bf0     NetDirectLink.obj
 0002:00000c08       ??_R1A@?0A@A@CBabelSocket@@8 10035c08     NetDirectLink.obj
 0002:00000c20       ??_R1A@?0A@A@CBabelSyncSocket@@8 10035c20     NetDirectLink.obj
 0002:00000c38       ??_R1A@?0A@A@CBabelReadWriteSocket@@8 10035c38     NetDirectLink.obj
 0002:00000c50       ??_R2CBabelReadWriteSocket@@8 10035c50     NetDirectLink.obj
 0002:00000c60       ??_R3CBabelReadWriteSocket@@8 10035c60     NetDirectLink.obj
 0002:00000c70       ??_R4CBabelReadWriteSocket@@6B@ 10035c70     NetDirectLink.obj
 0002:00000c84       ??_R2NetManager@@8         10035c84     NetManager.obj
 0002:00000c90       ??_R3NetManager@@8         10035c90     NetManager.obj
 0002:00000ca0       ??_R4NetManager@@6B@       10035ca0     NetManager.obj
 0002:00000cb8       ??_R1A@?0A@A@?$MemberFunctionQueuedMessage@VNetManager@@@@8 10035cb8     NetManager.obj
 0002:00000cd0       ??_R2?$MemberFunctionQueuedMessage@VNetManager@@@@8 10035cd0     NetManager.obj
 0002:00000ce0       ??_R3?$MemberFunctionQueuedMessage@VNetManager@@@@8 10035ce0     NetManager.obj
 0002:00000cf0       ??_R4?$MemberFunctionQueuedMessage@VNetManager@@@@6B@ 10035cf0     NetManager.obj
 0002:00000d08       ??_R1A@?0A@A@InternalQueuedMessage@@8 10035d08     NetManager.obj
 0002:00000d20       ??_R2InternalQueuedMessage@@8 10035d20     NetManager.obj
 0002:00000d30       ??_R3InternalQueuedMessage@@8 10035d30     NetManager.obj
 0002:00000d40       ??_R4InternalQueuedMessage@@6B@ 10035d40     NetManager.obj
 0002:00000d58       ??_R1A@?0A@A@type_info@@8  10035d58     msvcrt:ti_inst.obj
 0002:00000d70       ??_R2type_info@@8          10035d70     msvcrt:ti_inst.obj
 0002:00000d78       ??_R3type_info@@8          10035d78     msvcrt:ti_inst.obj
 0002:00000d88       ??_R4type_info@@6B@        10035d88     msvcrt:ti_inst.obj
 0002:00002a08       __CT??_R0?AVexception@@@8??0exception@@QAE@ABV0@@Z12 10037a08     NetworkImplementation.obj
 0002:00002a28       __CT??_R0?AVBasicException@@@8??0BasicException@@QAE@ABV0@@Z28 10037a28     NetworkImplementation.obj
 0002:00002a48       __CTA2?AVBasicException@@  10037a48     NetworkImplementation.obj
 0002:00002a58       __TI2?AVBasicException@@   10037a58     NetworkImplementation.obj
 0002:00004ab0       __IMPORT_DESCRIPTOR_engine 10039ab0     engine:engine.exe
 0002:00004ac4       __IMPORT_DESCRIPTOR_MSVCRT 10039ac4     msvcrt:MSVCRT.dll
 0002:00004ad8       __IMPORT_DESCRIPTOR_MSVCP60 10039ad8     msvcprt:MSVCP60.dll
 0002:00004aec       __IMPORT_DESCRIPTOR_KERNEL32 10039aec     kernel32:KERNEL32.dll
 0002:00004b00       __IMPORT_DESCRIPTOR_WININET 10039b00     wininet:WININET.dll
 0002:00004b14       __IMPORT_DESCRIPTOR_WSOCK32 10039b14     wsock32:WSOCK32.dll
 0002:00004b28       __NULL_IMPORT_DESCRIPTOR   10039b28     engine:engine.exe
 0003:00000000       ___xc_a                    1003f000     msvcrt:cinitexe.obj
 0003:00000088       ___xc_z                    1003f088     msvcrt:cinitexe.obj
 0003:0000008c       ___xi_a                    1003f08c     msvcrt:cinitexe.obj
 0003:00000090       ___xi_z                    1003f090     msvcrt:cinitexe.obj
 0003:00000100       ??_R0?AVCAOSVar@@@8        1003f100     NetHandlers.obj
 0003:00000118       ??_R0?AVCAOSMachine@@@8    1003f118     NetHandlers.obj
 0003:00000138       ??_R0?AVPersistentObject@@@8 1003f138     NetHandlers.obj
 0003:00000158       ??_C@_0BB@KKGE@PersistantObject?$AA@ 1003f158     NetHandlers.obj
 0003:00000170       ??_R0?AVAgentManager@@@8   1003f170     NetHandlers.obj
 0003:0000018c       ??_C@_04JICL@STAT?$AA@     1003f18c     NetHandlers.obj
 0003:00000194       ??_C@_04LNOL@vvvv?$AA@     1003f194     NetHandlers.obj
 0003:0000019c       ??_C@_0DD@JEFO@time_online?5users_online?5bytes_r@ 1003f19c     NetHandlers.obj
 0003:000001d0       ??_C@_0BGC@MIMH@Returns?5statistics?5for?5the?5curre@ 1003f1d0     NetHandlers.obj
 0003:00000334       ??_C@_04EPEM@UNIK?$AA@     1003f334     NetHandlers.obj
 0003:0000033c       ??_C@_02IPID@sv?$AA@       1003f33c     NetHandlers.obj
 0003:00000340       ??_C@_0BF@FILI@user_id?5store_result?$AA@ 1003f340     NetHandlers.obj
 0003:00000358       ??_C@_0MC@DLEM@Returns?5the?5specified?5user?8s?5scr@ 1003f358     NetHandlers.obj
 0003:0000041c       ??_C@_04KKOC@RUSO?$AA@     1003f41c     NetHandlers.obj
 0003:00000424       ??_C@_01KBCC@v?$AA@        1003f424     NetHandlers.obj
 0003:00000428       ??_C@_0N@LGON@store_result?$AA@ 1003f428     NetHandlers.obj
 0003:00000438       ??_C@_0CMB@CHDB@Returns?5?$CIinto?5store_result?$CJ?5a?5ra@ 1003f438     NetHandlers.obj
 0003:000006fc       ??_C@_04JNIH@WHOZ?$AA@     1003f6fc     NetHandlers.obj
 0003:00000704       ??_C@_0EE@LCNO@Zap?5the?5target?5agent?8s?5whose?5wan@ 1003f704     NetHandlers.obj
 0003:00000748       ??_C@_04NOOC@PASS?$AA@     1003f748     NetHandlers.obj
 0003:00000750       ??_C@_02IPEI@ss?$AA@       1003f750     NetHandlers.obj
 0003:00000754       ??_C@_0BD@EHDC@nick_name?5password?$AA@ 1003f754     NetHandlers.obj
 0003:00000768       ??_C@_0BJM@GEBD@Set?5nickname?5and?5password?5?9?5do?5t@ 1003f768     NetHandlers.obj
 0003:00000904       ??_C@_04FCGA@HEAD?$AA@     1003f904     NetHandlers.obj
 0003:0000090c       ??_C@_0EK@EJNK@Dump?5debugging?5informatino?5about@ 1003f90c     NetHandlers.obj
 0003:00000958       ??_C@_04EGC@HEAR?$AA@      1003f958     NetHandlers.obj
 0003:00000960       ??_C@_07FCIA@channel?$AA@  1003f960     NetHandlers.obj
 0003:00000968       ??_C@_0KK@NJLO@The?5target?5agent?5will?5now?5accept@ 1003f968     NetHandlers.obj
 0003:00000a14       ??_C@_04FEEA@WRIT?$AA@     1003fa14     NetHandlers.obj
 0003:00000a1c       ??_C@_05LPI@ssimm?$AA@     1003fa1c     NetHandlers.obj
 0003:00000a24       ??_C@_0CL@BEG@user_id?5channel?5message_id?5param@ 1003fa24     NetHandlers.obj
 0003:00000a50       ??_C@_0BHH@JENK@Send?5a?5message?5to?5a?5remote?5machi@ 1003fa50     NetHandlers.obj
 0003:00000bc8       ??_C@_04JPDN@WHOD?$AA@     1003fbc8     NetHandlers.obj
 0003:00000bd0       ??_C@_0DM@NB@Dump?5debugging?5information?5about@ 1003fbd0     NetHandlers.obj
 0003:00000c0c       ??_C@_04MKBD@WHOF?$AA@     1003fc0c     NetHandlers.obj
 0003:00000c14       ??_C@_0FD@JJAK@Removes?5a?5user?5from?5the?5whose?5wa@ 1003fc14     NetHandlers.obj
 0003:00000c68       ??_C@_04JOKL@WHON?$AA@     1003fc68     NetHandlers.obj
 0003:00000c70       ??_C@_01KBOJ@s?$AA@        1003fc70     NetHandlers.obj
 0003:00000c74       ??_C@_04DDFL@user?$AA@     1003fc74     NetHandlers.obj
 0003:00000c7c       ??_C@_0BEK@CIKK@Add?5a?5user?5to?5the?5whose?5wanted?5r@ 1003fc7c     NetHandlers.obj
 0003:00000dc8       ??_C@_04GBFB@LINE?$AA@     1003fdc8     NetHandlers.obj
 0003:00000dd0       ??_C@_01JAP@i?$AA@         1003fdd0     NetHandlers.obj
 0003:00000dd4       ??_C@_05PMBM@state?$AA@    1003fdd4     NetHandlers.obj
 0003:00000ddc       ??_C@_0BDA@IBAN@Goes?5on?5or?5offline?0?5connecting?5o@ 1003fddc     NetHandlers.obj
 0003:00000f0c       ??_C@_04JIOO@RAWE?$AA@     1003ff0c     NetHandlers.obj
 0003:00000f14       ??_C@_0KB@FJCA@Returns?5an?5internal?5error?5code?5f@ 1003ff14     NetHandlers.obj
 0003:00000fb8       ??_C@_04GHM@ERRA?$AA@      1003ffb8     NetHandlers.obj
 0003:00000fc0       ??_C@_0CBB@FMKL@Returns?5an?5error?5code?5from?5the?5l@ 1003ffc0     NetHandlers.obj
 0003:000011d4       ??_C@_04JILG@MAKE?$AA@     100401d4     NetHandlers.obj
 0003:000011dc       ??_C@_04GOKI@issv?$AA@     100401dc     NetHandlers.obj
 0003:000011e4       ??_C@_0DI@CEKP@which_journal_spot?5journal_name?5@ 100401e4     NetHandlers.obj
 0003:0000121c       ??_C@_0LH@EJGC@Like?5?$EA?$CDPRAY?5MAKE?$EA?0?5only?5sends?5th@ 1004021c     NetHandlers.obj
 0003:000012d4       ??_C@_04OLKK@ULIN?$AA@     100402d4     NetHandlers.obj
 0003:000012dc       ??_C@_07PFMH@user_id?$AA@  100402dc     NetHandlers.obj
 0003:000012e4       ??_C@_0OA@JHHI@Returns?51?5if?5the?5specified?5user?5@ 100402e4     NetHandlers.obj
 0003:000013c4       ??_C@_04LEHL@EXPO?$AA@     100403c4     NetHandlers.obj
 0003:000013cc       ??_C@_0BI@DEOD@chunk_type?5dest_user_id?$AA@ 100403cc     NetHandlers.obj
 0003:000013e4       ??_C@_0CCM@PHMI@Transwarp?5the?5target?5creature?5to@ 100403e4     NetHandlers.obj
 0003:00001610       ??_C@_0EI@HNPF@Returns?51?5if?5you?5are?5connected?5t@ 10040610     NetHandlers.obj
 0003:00001658       ??_C@_04PEOG@WHAT?$AA@     10040658     NetHandlers.obj
 0003:00001660       ??_C@_0PH@GAPO@For?5debugging?5only?4?5?5Returns?5a?5s@ 10040660     NetHandlers.obj
 0003:00001758       ??_C@_0DO@LFLD@Returns?5the?5currently?5set?5userna@ 10040758     NetHandlers.obj
 0003:00001798       ??_C@_04IIHE@HOST?$AA@     10040798     NetHandlers.obj
 0003:000017a0       ??_C@_0NL@NIGH@Returns?5the?5hostname?0?5port?0?5id?5a@ 100407a0     NetHandlers.obj
 0003:0000187c       ??_C@_04EJD@FROM?$AA@      1004087c     NetHandlers.obj
 0003:00001884       ??_C@_0O@NFLB@resource_name?$AA@ 10040884     NetHandlers.obj
 0003:00001894       ??_C@_0BKN@OBFI@The?5user?5who?5sent?5the?5PRAY?5file?5@ 10040894     NetHandlers.obj
 0003:00001a44       ??_C@_04FMHO@USER?$AA@     10040a44     NetHandlers.obj
 0003:00001a4c       ??_C@_0II@KFIO@Returns?5the?5user?8s?5numeric?5Babel@ 10040a4c     NetHandlers.obj
 0003:00001ad4       ??_C@_04FOLP@NET?3?$AA@    10040ad4     NetHandlers.obj
 0003:00001adc       ??_C@_0O@MEMG@Override?5Port?$AA@ 10040adc     NetHandlers.obj
 0003:00001aec       ??_C@_0BA@OIPH@Override?5Server?$AA@ 10040aec     NetHandlers.obj
 0003:00001afc       ??_C@_09LOOG@net_babel?$AA@ 10040afc     NetHandlers.obj
 0003:00001b08       ??_C@_0BP@ODOA@engine_netbabel_save_passwords?$AA@ 10040b08     NetHandlers.obj
 0003:00001b28       ??_C@_09FBDK@Password?5?$AA@ 10040b28     NetHandlers.obj
 0003:00001b34       ??_C@_01FCOA@?5?$AA@       10040b34     NetHandlers.obj
 0003:00001b38       ??_R0?AVPrayException@@@8  10040b38     NetHandlers.obj
 0003:00001b58       ??_R0?AVexception@@@8      10040b58     NetHandlers.obj
 0003:00001b70       ??_R0?AVBasicException@@@8 10040b70     NetHandlers.obj
 0003:00001b90       ??_C@_04CJIC@?4tmp?$AA@    10040b90     NetHandlers.obj
 0003:00001b98       ??_C@_0BJ@LIIP@Journal?5Folder?5not?5found?$AA@ 10040b98     NetHandlers.obj
 0003:00001bb4       ??_C@_04KCGK@warp?$AA@     10040bb4     NetHandlers.obj
 0003:00001bbc       ??_C@_08PFFF@someone?5?$AA@ 10040bbc     NetHandlers.obj
 0003:00001bc8       ??_C@_05FKNB@targ?5?$AA@   10040bc8     NetHandlers.obj
 0003:00001bd0       ??_C@_02HFBK@?3?5?$AA@     10040bd0     NetHandlers.obj
 0003:00001bd4       ??_C@_0BE@IGEB@?5users?5in?5agent?5WWR?$AA@ 10040bd4     NetHandlers.obj
 0003:00001be8       ??_C@_09POLO@?5channels?$AA@ 10040be8     NetHandlers.obj
 0003:00001bf4       ??_C@_0O@KDHJ@?5FriendlyName?$AA@ 10040bf4     NetHandlers.obj
 0003:00001c04       ??_C@_03EEBC@?5ID?$AA@     10040c04     NetHandlers.obj
 0003:00001c08       ??_C@_05CAKC@?5Port?$AA@   10040c08     NetHandlers.obj
 0003:00001c10       ??_C@_07KMJC@Server?5?$AA@ 10040c10     NetHandlers.obj
 0003:00001c18       ??_C@_05EJLJ@?5Host?$AA@   10040c18     NetHandlers.obj
 0003:00001c20       ??_C@_07KLCM@invalid?$AA@  10040c20     NetHandlers.obj
 0003:00001c28       ??_C@_07HJJI@Invalid?$AA@  10040c28     NetHandlers.obj
 0003:00001c30       ??_C@_0N@FKFK@Server?5Count?$AA@ 10040c30     NetHandlers.obj
 0003:00001c40       ??_C@_0L@IFJM@server?4cfg?$AA@ 10040c40     NetHandlers.obj
 0003:00001c4c       ??_C@_0N@IGGN@password?4cfg?$AA@ 10040c4c     NetHandlers.obj
 0003:00001c5c       ??_C@_0N@PIPC@netbabel?3?5?$CFs?$AA@ 10040c5c     NetLogImplementation.obj
 0003:00001c6c       ??_C@_0BL@GIBI@Couldn?8t?5close?5Win32?5mutex?$AA@ 10040c6c     NetworkImplementation.obj
 0003:00001c88       ??_R0?AVNetworkImplementation@@@8 10040c88     NetworkImplementation.obj
 0003:00001cb0       ??_R0?AVModuleInterface@@@8 10040cb0     NetworkImplementation.obj
 0003:00001cd0       ??_R0?AVNetworkInterface@@@8 10040cd0     NetworkImplementation.obj
 0003:00001cf0       ??_R0?AVNetLogInterface@@@8 10040cf0     NetworkImplementation.obj
 0003:00001d10       ??_R0?AVNetLogImplementation@@@8 10040d10     NetworkImplementation.obj
 0003:00001d34       ??_C@_0BM@DLMF@Couldn?8t?5create?5Win32?5mutex?$AA@ 10040d34     NetworkImplementation.obj
 0003:00001d50       ??_C@_08DDE@netbabel?$AA@  10040d50     NetworkImplementation.obj
 0003:00001d5c       ??_C@_04KIKH@none?$AA@     10040d5c     NetworkImplementation.obj
 0003:00001d64       ??_C@_0CN@NBOP@Internal?5error?5formatting?5histor@ 10040d64     NetworkImplementation.obj
 0003:00001d94       ??_C@_0BN@LIOG@Couldn?8t?5release?5Win32?5mutex?$AA@ 10040d94     NetworkImplementation.obj
 0003:00001db4       ??_C@_0BK@EDIM@Couldn?8t?5lock?5Win32?5mutex?$AA@ 10040db4     NetworkImplementation.obj
 0003:00001dd0       ??_R0?AVQueuedMessage@@@8  10040dd0     NetworkImplementation.obj
 0003:00001df0       ??_R0?AVHistoryQueuedMessage@@@8 10040df0     NetworkImplementation.obj
 0003:00001e14       ??_C@_0BH@LPEO@Uploading?5history?5for?5?$AA@ 10040e14     NetworkImplementation.obj
 0003:00001e2c       ??_C@_09BLIO@?$DMunnamed?$DO?$AA@ 10040e2c     NetworkImplementation.obj
 0003:00001e38       ?pathSeparator@@3PADA      10040e38     FileFuncs.obj
 0003:00001e3c       ??_C@_01PJCK@?4?$AA@       10040e3c     FileFuncs.obj
 0003:00001e40       ??_R0?AVNetManager@@@8     10040e40     DSNetManager.obj
 0003:00001e60       ??_R0?AVDSNetManager@@@8   10040e60     DSNetManager.obj
 0003:00001e80       ??_R0?AV?$MemberFunctionQueuedMessage@VDSNetManager@@@@@8 10040e80     DSNetManager.obj
 0003:00001ebc       ??_C@_0BN@DJLP@Getting?5a?5random?5online?5user?$AA@ 10040ebc     DSNetManager.obj
 0003:00001ee0       ??_R0?AVMessageThread@@@8  10040ee0     MessageThread.obj
 0003:00001efc       ??_C@_09OOJM@?$DMunknown?$DO?$AA@ 10040efc     MessageThread.obj
 0003:00001f08       ??_R0?AVCBabelShortUserDataObject@@@8 10040f08     NetDebugListUsers.obj
 0003:00001f30       ??_C@_0BE@DMOA@heart?4creatures?4net?$AA@ 10040f30     NetDebugListUsers.obj
 0003:00001f48       ??_R0?AVCBabelConnection@@@8 10040f48     NetDirectLink.obj
 0003:00001f68       ??_R0?AVNetDirectLink@@@8  10040f68     NetDirectLink.obj
 0003:00001f88       ??_R0?AVCBabelSocket@@@8   10040f88     NetDirectLink.obj
 0003:00001fa8       ??_R0?AVCBabelSyncSocket@@@8 10040fa8     NetDirectLink.obj
 0003:00001fc8       ??_R0?AVCBabelReadWriteSocket@@@8 10040fc8     NetDirectLink.obj
 0003:00001fec       ?ourOverridePort@NetManager@@1HA 10040fec     NetManager.obj
 0003:00001ff0       ??_C@_05GHDF@?4warp?$AA@   10040ff0     NetManager.obj
 0003:00001ff8       ??_C@_0FG@NIFP@?$CK?$CK?$CK?$CK?$CK?5Warning?5?9?5couldn?8t?5display@ 10040ff8     NetManager.obj
 0003:00002050       ??_R0?AV?$MemberFunctionQueuedMessage@VNetManager@@@@@8 10041050     NetManager.obj
 0003:0000208c       ??_C@_0N@IKAC@Going?5online?$AA@ 1004108c     NetManager.obj
 0003:0000209c       ??_C@_01GJD@?9?$AA@        1004109c     NetManager.obj
 0003:000020a0       ??_C@_01KGOM@T?$AA@        100410a0     NetManager.obj
 0003:000020a8       ??_R0?AVInternalQueuedMessage@@@8 100410a8     NetManager.obj
 0003:000020cc       ??_C@_0BE@LIOP@Sending?5message?5to?5?$AA@ 100410cc     NetManager.obj
 0003:000020e0       ??_C@_06BJFP@?5size?5?$AA@ 100410e0     NetManager.obj
 0003:000020e8       ??_C@_01FDHG@?$CK?$AA@     100410e8     NetManager.obj
 0003:000020ec       ??_C@_0FB@MBFA@Outbox?5message?5send?5failed?5?$CIprob@ 100410ec     NetManager.obj
 0003:00002140       ??_C@_0BH@BDAH@Fetching?5nickname?5for?5?$AA@ 10041140     NetManager.obj
 0003:00002158       ??_C@_0BO@COKK@?5to?5WWR?5?$CIand?5possibly?5others?$CJ?$AA@ 10041158     NetManager.obj
 0003:00002178       ??_C@_07IKOB@Adding?5?$AA@ 10041178     NetManager.obj
 0003:00002180       ??_C@_0BI@HLCI@Retrieving?5Babel?5status?$AA@ 10041180     NetManager.obj
 0003:00002198       ??_C@_0DO@GIMH@Duff?5message?5spooled?5in?0?5not?5BAB@ 10041198     NetManager.obj
 0003:000021d8       ??_C@_0EJ@MLDK@Message?5discarded?5because?5it?5was@ 100411d8     NetManager.obj
 0003:00002224       ??_C@_0EL@BPIH@File?5write?5to?5?$CFs?5failed?5while?5sp@ 10041224     NetManager.obj
 0003:00002270       ??_C@_0EK@EHFN@File?5open?5to?5?$CFs?5failed?5while?5spo@ 10041270     NetManager.obj
 0003:000022bc       ??_C@_02JKAF@rb?$AA@       100412bc     NetMemoryPack.obj
 0003:000022c0       ??_C@_01PJOB@?$CL?$AA@     100412c0     NetUtilities.obj
 0003:000022c4       ?ourTimestamp@QueuedMessage@@0IA 100412c4     QueuedMessage.obj
 0003:000022d0       ??_R0?AVtype_info@@@8      100412d0     msvcrt:ti_inst.obj
 0003:000022f0       ??_C@_05MLOK@Babel?$AA@    100412f0     BabelClientC2e:BabelClient.obj
 0003:000022f8       ??_C@_06NILE@System?$AA@   100412f8     BabelClientC2e:BabelClient.obj
 0003:00002300       ??_C@_03NBNC@The?$AA@      10041300     BabelClientC2e:BabelClient.obj
 0003:00002304       ??_C@_05BPMN@Heart?$AA@    10041304     BabelClientC2e:BabelClient.obj
 0003:0000230c       ??_C@_0CJ@MNBK@CBabelClient?3?3Connect?51?5exceptio@ 1004130c     BabelClientC2e:BabelClient.obj
 0003:00002338       ??_C@_0CJ@PDAG@CBabelClient?3?3Connect?52?5exceptio@ 10041338     BabelClientC2e:BabelClient.obj
 0003:00002364       ??_C@_0DI@NJAA@?$DO?$DO?$DO?$DO?$DO?5WHAT?$CB?$CB?$CB?5I?5don?8t?5understand@ 10041364     BabelClientC2e:BabelClient.obj
 0003:0000239c       ??_C@_0CP@DJHM@CBabelAsyncCoreChild?3?3ThreadCore@ 1004139c     BabelClientC2e:BabelAsyncCore.obj
 0003:000023cc       ??_C@_0CP@MGMF@CBabelAsyncCoreChild?3?3ThreadCore@ 100413cc     BabelClientC2e:BabelAsyncCore.obj
 0003:000023fc       ??_C@_0DL@BDML@?$CD?$CD?$CD?5WSAError?5?$CFd?5?$CI0x?$CFx?$CJ?5?$CFd?5?$HLCBabe@ 100413fc     BabelClientC2e:BabelAsyncCore.obj
 0003:00002438       ??_C@_0CB@LFBA@CBabelAsyncCore?5recverror?5?91?4?4?4?4@ 10041438     BabelClientC2e:BabelAsyncCore.obj
 0003:0000245c       ??_C@_0CB@KBBP@CBabelAsyncCore?5recv?5error?50?4?4?4?4@ 1004145c     BabelClientC2e:BabelAsyncCore.obj
 0003:00002480       ??_C@_0BE@HNBN@UNHANDLED?5Accept?5?$CFd?$AA@ 10041480     BabelClientC2e:BabelAsyncCore.obj
 0003:00002494       ??_C@_0CK@IDLJ@CBabelSyncSocket?3?3BytesReady?5WSA@ 10041494     BabelClientC2e:BabelRawSocket.obj
 0003:000024c0       ??_C@_0DD@PAPO@?$CD?$CD?$CD?5Error?5is?5BABEL_ENOTSOCK?5so?5s@ 100414c0     BabelClientC2e:BabelRawSocket.obj
 0003:000024f4       ??_C@_0BH@CDPP@?$CD?$CD?$CD?5WSAError?5?$CFd?5?$CI0x?$CFx?$CJ?$AA@ 100414f4     BabelClientC2e:BabelRawSocket.obj
 0003:0000250c       ??_C@_0CD@GBJM@?$CK?$CK?$CK?$CK?5Connect?3?5no?5more?5sockets?5?$CK?$CK@ 1004150c     BabelClientC2e:BabelRawSocket.obj
 0003:00002530       ??_C@_0DN@HJPK@CBabelDConnection?3?3Handle?5?9?5Some@ 10041530     BabelClientC2e:BabelDConnection.obj
 0003:00002570       ??_C@_0BK@KJJD@ctlcpc180?4cyberlife?4co?4uk?$AA@ 10041570     BabelClientC2e:BabelDConnection.obj
 0003:0000258c       ??_C@_0BK@IPOE@No?5data?5on?5virtual?5packet?$AA@ 1004158c     BabelClientC2e:BabelDConnection.obj
 0003:000025a8       ??_C@_0FF@GJAK@?$CK?$CK?$CK?$CK?$CK?5Warning?5?9?5couldn?8t?5display@ 100415a8     BabelClientC2e:BabelTrace.obj
 0003:00002600       ??_C@_01BJG@?6?$AA@        10041600     BabelClientC2e:BabelTrace.obj
 0003:00002604       ??_C@_0DN@OMGD@Like?5durrrr?0?5I?5haven?8t?5set?5one?5u@ 10041604     BabelClientC2e:BabelClientPeerLink.obj
 0003:00002650       ?ourSubStringRVTable_NET@@3PAVOpSpec@@A 10041650     NetHandlers.obj
 0003:000028d0       ?myHearingMap@NetHandlers@@0V?$map@V?$basic_string@DU?$char_traits@D@std@@V?$allocator@D@2@@std@@V?$set@VAgentHandle@@U?$less@VAgentHandle@@@std@@V?$allocator@VAgentHandle@@@3@@2@U?$less@V?$basic_string@DU?$char_traits@D@std@@V?$allocator@D@2@@std@@@2@V?$allocator@V?$set@VAgentHandle@@U?$less@VAgentHandle@@@std@@V?$allocator@VAgentHandle@@@3@@std@@@2@@std@@A 100418d0     NetHandlers.obj
 0003:000028e8       ?myWhoseWantedMap@NetHandlers@@0V?$map@V?$basic_string@DU?$char_traits@D@std@@V?$allocator@D@2@@std@@V?$set@VAgentHandle@@U?$less@VAgentHandle@@@std@@V?$allocator@VAgentHandle@@@3@@2@U?$less@V?$basic_string@DU?$char_traits@D@std@@V?$allocator@D@2@@std@@@2@V?$allocator@V?$set@VAgentHandle@@U?$less@VAgentHandle@@@std@@V?$allocator@VAgentHandle@@@3@@std@@@2@@std@@A 100418e8     NetHandlers.obj
 0003:00002900       ?myPasswordConfig@NetHandlers@@0VConfigurator@@A 10041900     NetHandlers.obj
 0003:00002928       ?myNickname@NetHandlers@@0V?$basic_string@DU?$char_traits@D@std@@V?$allocator@D@2@@std@@A 10041928     NetHandlers.obj
 0003:00002940       ?ourSubCommandTable_NET@@3PAVOpSpec@@A 10041940     NetHandlers.obj
 0003:00002f40       ?ourSubIntegerRVTable_NET@@3PAVOpSpec@@A 10041f40     NetHandlers.obj
 0003:00003240       ?myUserID@NetHandlers@@0V?$basic_string@DU?$char_traits@D@std@@V?$allocator@D@2@@std@@A 10042240     NetHandlers.obj
 0003:00003258       ?myServerConfig@NetHandlers@@0VConfigurator@@A 10042258     NetHandlers.obj
 0003:00003288       ?myPassword@NetHandlers@@0V?$basic_string@DU?$char_traits@D@std@@V?$allocator@D@2@@std@@A 10042288     NetHandlers.obj
 0003:00003298       ??_C@_00A@?$AA@            10042298     NetHandlers.obj
 0003:000032b0       ?NULLHANDLE@@3VAgentHandle@@A 100422b0     NetworkImplementation.obj
 0003:000032b8       ?COASVARAGENTNULL@@3VCAOSVar@@A 100422b8     NetworkImplementation.obj
 0003:000032d0       ?ourImplementation@@3VNetworkImplementation@@A 100422d0     NetworkImplementation.obj
 0003:00003360       ?INTEGERZERO@@3VCAOSVar@@A 10042360     NetworkImplementation.obj
 0003:00003388       ?ourInitialisingBabelClient@@3VCBabelClient@@A 10042388     NetManager.obj
 0003:000035a0       ?ourOverrideHost@NetManager@@1V?$basic_string@DU?$char_traits@D@std@@V?$allocator@D@2@@std@@A 100425a0     NetManager.obj
 0003:000035cc       ?BabelClient@@3PAVCBabelClient@@A 100425cc     BabelClientC2e:BabelClient.obj
 0003:000035d0       ?m_nBabelClients@CBabelClient@@0HA 100425d0     BabelClientC2e:BabelClient.obj
 0003:000035d8       ?add_channels_to_delete_cs@CBabelAsyncCore@@0VCBabelCriticalSection@@A 100425d8     BabelClientC2e:BabelAsyncCore.obj
 0003:000035f8       ?m_Closures@CBabelAsyncCore@@1V?$vector@PAVCBabelAsyncCore@@V?$allocator@PAVCBabelAsyncCore@@@std@@@std@@A 100425f8     BabelClientC2e:BabelAsyncCore.obj
 0003:00003608       ?delete_closed_channels_cs@CBabelAsyncCore@@0VCBabelCriticalSection@@A 10042608     BabelClientC2e:BabelAsyncCore.obj
 0003:00003628       ?channels@CBabelAsyncCore@@1V?$map@HPAVCBabelAsyncCore@@U?$less@H@std@@V?$allocator@PAVCBabelAsyncCore@@@3@@std@@A 10042628     BabelClientC2e:BabelAsyncCore.obj
 0003:00003640       ?m_Children@CBabelAsyncCore@@2V?$vector@PAVCBabelAsyncCoreChild@@V?$allocator@PAVCBabelAsyncCoreChild@@@std@@@std@@A 10042640     BabelClientC2e:BabelAsyncCore.obj
 0003:00003652       ?our_bMaintain@CBabelAsyncCore@@0_NA 10042652     BabelClientC2e:BabelAsyncCore.obj
 0003:00003654       __adjust_fdiv              10042654     <common>
 0003:00003658       __pRawDllMain              10042658     <common>
 0003:0000365c       ___onexitend               1004265c     <common>
 0003:00003660       ___onexitbegin             10042660     <common>

 entry point at        0001:0002859a

 Static symbols

 0001:00026d70       _$E23                      10027d70 f   HistoryTransferOut.obj
 0001:00026d80       _$E22                      10027d80 f   HistoryTransferOut.obj
 0001:00026da0       _$E28                      10027da0 f   HistoryTransferOut.obj
 0001:00026db0       _$E25                      10027db0 f   HistoryTransferOut.obj
 0001:00026dc0       _$E27                      10027dc0 f   HistoryTransferOut.obj
 0001:00026dd0       _$E26                      10027dd0 f   HistoryTransferOut.obj
 0001:00026de0       _$E34                      10027de0 f   HistoryTransferOut.obj
 0001:00026df0       _$E31                      10027df0 f   HistoryTransferOut.obj
 0001:00026e00       _$E33                      10027e00 f   HistoryTransferOut.obj
 0001:00026e10       _$E32                      10027e10 f   HistoryTransferOut.obj
 0001:0001d570       _$E47                      1001e570 f   NetManager.obj
 0001:0001d580       _$E44                      1001e580 f   NetManager.obj
 0001:0001d590       _$E46                      1001e590 f   NetManager.obj
 0001:0001d5a0       _$E45                      1001e5a0 f   NetManager.obj
 0001:0001d5b0       _$E53                      1001e5b0 f   NetManager.obj
 0001:0001d5c0       _$E49                      1001e5c0 f   NetManager.obj
 0001:0001d6b0       _$E52                      1001e6b0 f   NetManager.obj
 0001:0001d6c0       _$E50                      1001e6c0 f   NetManager.obj
 0001:0001f710       _$E56                      10020710 f   NetManager.obj
 0001:0001f850       _$E58                      10020850 f   NetManager.obj
 0001:000170a0       _$E23                      100180a0 f   NetworkImplementation.obj
 0001:000170b0       _$E22                      100180b0 f   NetworkImplementation.obj
 0001:000170d0       _$E28                      100180d0 f   NetworkImplementation.obj
 0001:000170e0       _$E25                      100180e0 f   NetworkImplementation.obj
 0001:000170f0       _$E27                      100180f0 f   NetworkImplementation.obj
 0001:00017100       _$E26                      10018100 f   NetworkImplementation.obj
 0001:00017110       _$E34                      10018110 f   NetworkImplementation.obj
 0001:00017120       _$E31                      10018120 f   NetworkImplementation.obj
 0001:00017130       _$E33                      10018130 f   NetworkImplementation.obj
 0001:00017140       _$E32                      10018140 f   NetworkImplementation.obj
 0001:00018490       _$E83                      10019490 f   NetworkImplementation.obj
 0001:000184a0       _$E80                      100194a0 f   NetworkImplementation.obj
 0001:000184b0       _$E82                      100194b0 f   NetworkImplementation.obj
 0001:000184c0       _$E81                      100194c0 f   NetworkImplementation.obj
 0001:000184d0       _$E88                      100194d0 f   NetworkImplementation.obj
 0001:000184e0       _$E85                      100194e0 f   NetworkImplementation.obj
 0001:000184f0       _$E87                      100194f0 f   NetworkImplementation.obj
 0001:00018500       _$E86                      10019500 f   NetworkImplementation.obj
 0001:00018510       _$E93                      10019510 f   NetworkImplementation.obj
 0001:00018520       _$E90                      10019520 f   NetworkImplementation.obj
 0001:00018530       _$E92                      10019530 f   NetworkImplementation.obj
 0001:00018540       _$E91                      10019540 f   NetworkImplementation.obj
 0001:00018550       _$E98                      10019550 f   NetworkImplementation.obj
 0001:00018560       _$E95                      10019560 f   NetworkImplementation.obj
 0001:00018570       _$E97                      10019570 f   NetworkImplementation.obj
 0001:00018580       _$E96                      10019580 f   NetworkImplementation.obj
 0001:00016fd0       _$E2                       10017fd0 f   NetLogImplementation.obj
 0001:00016fe0       _$E1                       10017fe0 f   NetLogImplementation.obj
 0001:00017000       _$E28                      10018000 f   NetLogImplementation.obj
 0001:00017010       _$E25                      10018010 f   NetLogImplementation.obj
 0001:00017020       _$E27                      10018020 f   NetLogImplementation.obj
 0001:00017030       _$E26                      10018030 f   NetLogImplementation.obj
 0001:00017040       _$E34                      10018040 f   NetLogImplementation.obj
 0001:00017050       _$E31                      10018050 f   NetLogImplementation.obj
 0001:00017060       _$E33                      10018060 f   NetLogImplementation.obj
 0001:00017070       _$E32                      10018070 f   NetLogImplementation.obj
 0001:00000650       _$E30                      10001650 f   NetHandlers.obj
 0001:00000660       _$E29                      10001660 f   NetHandlers.obj
 0001:000006a0       _$E35                      100016a0 f   NetHandlers.obj
 0001:000006b0       _$E32                      100016b0 f   NetHandlers.obj
 0001:000006c0       _$E34                      100016c0 f   NetHandlers.obj
 0001:000006d0       _$E33                      100016d0 f   NetHandlers.obj
 0001:000006e0       _$E41                      100016e0 f   NetHandlers.obj
 0001:000006f0       _$E38                      100016f0 f   NetHandlers.obj
 0001:00000700       _$E40                      10001700 f   NetHandlers.obj
 0001:00000710       _$E39                      10001710 f   NetHandlers.obj
 0001:00004ee0       _$E103                     10005ee0 f   NetHandlers.obj
 0001:00004ef0       _$E99                      10005ef0 f   NetHandlers.obj
 0001:00004f10       _$E102                     10005f10 f   NetHandlers.obj
 0001:00004f20       _$E100                     10005f20 f   NetHandlers.obj
 0001:00005010       _$E109                     10006010 f   NetHandlers.obj
 0001:00005020       _$E105                     10006020 f   NetHandlers.obj
 0001:00005040       _$E108                     10006040 f   NetHandlers.obj
 0001:00005050       _$E106                     10006050 f   NetHandlers.obj
 0001:00005070       _$E114                     10006070 f   NetHandlers.obj
 0001:00005080       _$E111                     10006080 f   NetHandlers.obj
 0001:000050b0       _$E113                     100060b0 f   NetHandlers.obj
 0001:000050c0       _$E112                     100060c0 f   NetHandlers.obj
 0001:00005120       _$E119                     10006120 f   NetHandlers.obj
 0001:00005130       _$E116                     10006130 f   NetHandlers.obj
 0001:00005160       _$E118                     10006160 f   NetHandlers.obj
 0001:00005170       _$E117                     10006170 f   NetHandlers.obj
 0001:000051d0       _$E124                     100061d0 f   NetHandlers.obj
 0001:000051e0       _$E121                     100061e0 f   NetHandlers.obj
 0001:00005210       _$E123                     10006210 f   NetHandlers.obj
 0001:00005220       _$E122                     10006220 f   NetHandlers.obj
 0001:00005280       _$E129                     10006280 f   NetHandlers.obj
 0001:00005290       _$E126                     10006290 f   NetHandlers.obj
 0001:000052a0       _$E128                     100062a0 f   NetHandlers.obj
 0001:000052b0       _$E127                     100062b0 f   NetHandlers.obj
 0001:000052d0       _$E134                     100062d0 f   NetHandlers.obj
 0001:000052e0       _$E131                     100062e0 f   NetHandlers.obj
 0001:000052f0       _$E133                     100062f0 f   NetHandlers.obj
 0001:00005300       _$E132                     10006300 f   NetHandlers.obj
 0001:00005570       _$E139                     10006570 f   NetHandlers.obj
 0001:00005580       _$E136                     10006580 f   NetHandlers.obj
 0001:000069d0       _$E138                     100079d0 f   NetHandlers.obj
 0001:000069e0       _$E137                     100079e0 f   NetHandlers.obj
 0001:00006c30       _$E144                     10007c30 f   NetHandlers.obj
 0001:00006c40       _$E141                     10007c40 f   NetHandlers.obj
 0001:00007530       _$E143                     10008530 f   NetHandlers.obj
 0001:00007540       _$E142                     10008540 f   NetHandlers.obj
 0001:00007560       _$E149                     10008560 f   NetHandlers.obj
 0001:00007570       _$E146                     10008570 f   NetHandlers.obj
 0001:00007ce0       _$E148                     10008ce0 f   NetHandlers.obj
 0001:00007cf0       _$E147                     10008cf0 f   NetHandlers.obj
 0001:0002848e       ?ArrayUnwindFilter@@YAHPAU_EXCEPTION_POINTERS@@@Z 1002948e f   msvcrt:ehvecdtr.obj
 0001:0002c120       _$E43                      1002d120 f   BabelClientC2e:BabelAsyncCore.obj
 0001:0002c130       _$E39                      1002d130 f   BabelClientC2e:BabelAsyncCore.obj
 0001:0002c150       _$E42                      1002d150 f   BabelClientC2e:BabelAsyncCore.obj
 0001:0002c160       _$E40                      1002d160 f   BabelClientC2e:BabelAsyncCore.obj
 0001:0002c240       _$E49                      1002d240 f   BabelClientC2e:BabelAsyncCore.obj
 0001:0002c250       _$E45                      1002d250 f   BabelClientC2e:BabelAsyncCore.obj
 0001:0002c280       _$E48                      1002d280 f   BabelClientC2e:BabelAsyncCore.obj
 0001:0002c290       _$E46                      1002d290 f   BabelClientC2e:BabelAsyncCore.obj
 0001:0002c2d0       _$E54                      1002d2d0 f   BabelClientC2e:BabelAsyncCore.obj
 0001:0002c2e0       _$E51                      1002d2e0 f   BabelClientC2e:BabelAsyncCore.obj
 0001:0002c310       _$E53                      1002d310 f   BabelClientC2e:BabelAsyncCore.obj
 0001:0002c320       _$E52                      1002d320 f   BabelClientC2e:BabelAsyncCore.obj
 0001:0002c360       _$E59                      1002d360 f   BabelClientC2e:BabelAsyncCore.obj
 0001:0002c370       _$E56                      1002d370 f   BabelClientC2e:BabelAsyncCore.obj
 0001:0002c390       _$E58                      1002d390 f   BabelClientC2e:BabelAsyncCore.obj
 0001:0002c3a0       _$E57                      1002d3a0 f   BabelClientC2e:BabelAsyncCore.obj
 0001:0002c3d0       _$E64                      1002d3d0 f   BabelClientC2e:BabelAsyncCore.obj
 0001:0002c3e0       _$E61                      1002d3e0 f   BabelClientC2e:BabelAsyncCore.obj
 0001:0002c400       _$E63                      1002d400 f   BabelClientC2e:BabelAsyncCore.obj
 0001:0002c410       _$E62                      1002d410 f   BabelClientC2e:BabelAsyncCore.obj

 15552 bytes saved through ICF

